 sdk_demo_v2

 Timestamp is 63999a6e (Wed Dec 14 16:42:06 2022)

 Preferred load address is 0000000140000000

 Start         Length     Name                   Class
 0001:00000000 00000140H .text$di                CODE
 0001:00000140 000d5390H .text$mn                CODE
 0001:000d54d0 00000040H .text$mn$00             CODE
 0001:000d5510 000038a0H .text$x                 CODE
 0001:000d8db0 00000124H .text$yd                CODE
 0002:00000000 00000bc0H .idata$5                DATA
 0002:00000bc0 00000028H .00cfg                  DATA
 0002:00000be8 00000008H .CRT$XCA                DATA
 0002:00000bf0 00000008H .CRT$XCAA               DATA
 0002:00000bf8 00000008H .CRT$XCL                DATA
 0002:00000c00 00000030H .CRT$XCU                DATA
 0002:00000c30 00000008H .CRT$XCZ                DATA
 0002:00000c38 00000008H .CRT$XIA                DATA
 0002:00000c40 00000008H .CRT$XIAA               DATA
 0002:00000c48 00000008H .CRT$XIAC               DATA
 0002:00000c50 00000008H .CRT$XIC                DATA
 0002:00000c58 00000008H .CRT$XIZ                DATA
 0002:00000c60 00000008H .CRT$XLA                DATA
 0002:00000c68 00000008H .CRT$XLZ                DATA
 0002:00000c70 00000008H .CRT$XPA                DATA
 0002:00000c78 00000008H .CRT$XPZ                DATA
 0002:00000c80 00000008H .CRT$XTA                DATA
 0002:00000c88 00000008H .CRT$XTZ                DATA
 0002:00000c90 00000000H .gehcont$y              DATA
 0002:00000c90 00000000H .gfids$y                DATA
 0002:00000c90 000260f0H .rdata                  DATA
 0002:00026d80 00000000H .rdata$CastGuardVftablesA DATA
 0002:00026d80 00000000H .rdata$CastGuardVftablesC DATA
 0002:00026d80 00000030H .rdata$T                DATA
 0002:00026db0 00007f64H .rdata$r                DATA
 0002:0002ed14 00000448H .rdata$voltmd           DATA
 0002:0002f15c 0000041cH .rdata$zzzdbg           DATA
 0002:0002f578 00000008H .rtc$IAA                DATA
 0002:0002f580 00000008H .rtc$IZZ                DATA
 0002:0002f588 00000008H .rtc$TAA                DATA
 0002:0002f590 00000008H .rtc$TZZ                DATA
 0002:0002f598 00000004H .tls                    DATA
 0002:0002f59c 00000004H .tls$                   DATA
 0002:0002f5a0 00000008H .tls$ZZZ                DATA
 0002:0002f5a8 00004370H .xdata                  DATA
 0002:00033918 00000148H .xdata$x                DATA
 0002:00033a60 00000000H ATL$__a                 DATA
 0002:00033a60 00000000H ATL$__z                 DATA
 0002:00033a60 00000000H .edata                  DATA
 0002:00033a60 000001e0H .idata$2                DATA
 0002:00033c40 00000018H .idata$3                DATA
 0002:00033c58 00000bc0H .idata$4                DATA
 0002:00034818 00001a1cH .idata$6                DATA
 0003:00000000 00000370H .data                   DATA
 0003:00000370 00000dd0H .data$r                 DATA
 0003:00001140 000019c0H .data$rs                DATA
 0003:00002b00 00000e10H .bss                    DATA
 0004:00000000 00009be8H .pdata                  DATA
 0005:00000000 00003680H .rsrc$01                DATA
 0005:00003680 000657b8H .rsrc$02                DATA

  Address         Publics by Value              Rva+Base               Lib:Object

 0000:00000000       __guard_iat_count          0000000000000000     <absolute>
 0000:00000000       __guard_longjmp_table      0000000000000000     <absolute>
 0000:00000000       __dynamic_value_reloc_table 0000000000000000     <absolute>
 0000:00000000       __x64_code_ranges_to_entry_points 0000000000000000     <absolute>
 0000:00000000       __hybrid_auxiliary_iat     0000000000000000     <absolute>
 0000:00000000       __hybrid_auxiliary_iat_copy 0000000000000000     <absolute>
 0000:00000000       __guard_fids_count         0000000000000000     <absolute>
 0000:00000000       __arm64x_extra_rfe_table   0000000000000000     <absolute>
 0000:00000000       __guard_iat_table          0000000000000000     <absolute>
 0000:00000000       __AbsoluteZero             0000000000000000     <absolute>
 0000:00000000       __hybrid_code_map          0000000000000000     <absolute>
 0000:00000000       __arm64x_extra_rfe_table_size 0000000000000000     <absolute>
 0000:00000000       __guard_longjmp_count      0000000000000000     <absolute>
 0000:00000000       ___safe_se_handler_count   0000000000000000     <absolute>
 0000:00000000       __guard_check_icall_a64n_fptr 0000000000000000     <absolute>
 0000:00000000       ___safe_se_handler_table   0000000000000000     <absolute>
 0000:00000000       __arm64x_redirection_metadata 0000000000000000     <absolute>
 0000:00000000       __guard_fids_table         0000000000000000     <absolute>
 0000:00000000       __guard_eh_cont_count      0000000000000000     <absolute>
 0000:00000000       __x64_code_ranges_to_entry_points_count 0000000000000000     <absolute>
 0000:00000000       __arm64x_redirection_metadata_count 0000000000000000     <absolute>
 0000:00000000       __enclave_config           0000000000000000     <absolute>
 0000:00000000       __guard_eh_cont_table      0000000000000000     <absolute>
 0000:00000000       __arm64x_native_entrypoint 0000000000000000     <absolute>
 0000:00000000       __hybrid_code_map_count    0000000000000000     <absolute>
 0000:00000100       __guard_flags              0000000000000100     <absolute>
 0000:00000000       __ImageBase                0000000140000000     <linker-defined>
 0001:00000140       ??$?0$$V@?$_Compressed_pair@V?$allocator@_W@std@@V?$_String_val@U?$_Simple_types@_W@std@@@2@$00@std@@QEAA@U_Zero_then_variadic_args_t@1@@Z 0000000140001140 f i AnnotateBarWindow.obj
 0001:00000170       ??$?8_WU?$char_traits@_W@std@@V?$allocator@_W@1@@std@@YA_NAEBV?$basic_string@_WU?$char_traits@_W@std@@V?$allocator@_W@2@@0@QEB_W@Z 0000000140001170 f i AnnotateBarWindow.obj
 0001:000001a0       ??$?9_WU?$char_traits@_W@std@@V?$allocator@_W@1@@std@@YA_NAEBV?$basic_string@_WU?$char_traits@_W@std@@V?$allocator@_W@2@@0@QEB_W@Z 00000001400011a0 f i AnnotateBarWindow.obj
 0001:000001e0       ??$_Allocate@$0BA@U_Default_allocate_traits@std@@$0A@@std@@YAPEAX_K@Z 00000001400011e0 f i AnnotateBarWindow.obj
 0001:00000220       ??$_Allocate_manually_vector_aligned@U_Default_allocate_traits@std@@@std@@YAPEAX_K@Z 0000000140001220 f i AnnotateBarWindow.obj
 0001:000002b0       ??$_Construct_in_place@PEA_WAEAPEA_W@std@@YAXAEAPEA_W0@Z 00000001400012b0 f i chat_controller_ui.obj
 0001:000002b0       ??$_Construct_in_place@PEAU?$_Tree_node@PEAVIMeetingVideoCtrlEvent@ZOOMSDK@@PEAX@std@@AEAPEAU12@@std@@YAXAEAPEAU?$_Tree_node@PEAVIMeetingVideoCtrlEvent@ZOOMSDK@@PEAX@0@0@Z 00000001400012b0 f i sdk_util.obj
 0001:000002b0       ??$_Construct_in_place@PEAU?$_Tree_node@PEAVIMeetingVideoCtrlEvent@ZOOMSDK@@PEAX@std@@AEBQEAU12@@std@@YAXAEAPEAU?$_Tree_node@PEAVIMeetingVideoCtrlEvent@ZOOMSDK@@PEAX@0@AEBQEAU10@@Z 00000001400012b0 f i sdk_util.obj
 0001:000002b0       ??$_Construct_in_place@PEAU?$_Tree_node@U?$pair@$$CBHW4bkItemType@@@std@@PEAX@std@@AEAPEAU12@@std@@YAXAEAPEAU?$_Tree_node@U?$pair@$$CBHW4bkItemType@@@std@@PEAX@0@0@Z 00000001400012b0 f i settings_ui.obj
 0001:000002b0       ??$_Construct_in_place@PEAU?$_Tree_node@PEAVIMeetingParticipantsCtrlEvent@ZOOMSDK@@PEAX@std@@AEAPEAU12@@std@@YAXAEAPEAU?$_Tree_node@PEAVIMeetingParticipantsCtrlEvent@ZOOMSDK@@PEAX@0@0@Z 00000001400012b0 f i sdk_util.obj
 0001:000002b0       ??$_Construct_in_place@PEAU?$_Tree_node@U?$pair@$$CBHW4bkItemType@@@std@@PEAX@std@@AEBQEAU12@@std@@YAXAEAPEAU?$_Tree_node@U?$pair@$$CBHW4bkItemType@@@std@@PEAX@0@AEBQEAU10@@Z 00000001400012b0 f i settings_ui.obj
 0001:000002b0       ??$_Construct_in_place@PEAU?$_Tree_node@U?$pair@$$CBIPEAVIUserInfo@ZOOMSDK@@@std@@PEAX@std@@AEBQEAU12@@std@@YAXAEAPEAU?$_Tree_node@U?$pair@$$CBIPEAVIUserInfo@ZOOMSDK@@@std@@PEAX@0@AEBQEAU10@@Z 00000001400012b0 f i user_manager.obj
 0001:000002b0       ??$_Construct_in_place@PEAU?$_Tree_node@PEAVIMeetingChatCtrlEvent@ZOOMSDK@@PEAX@std@@AEAPEAU12@@std@@YAXAEAPEAU?$_Tree_node@PEAVIMeetingChatCtrlEvent@ZOOMSDK@@PEAX@0@0@Z 00000001400012b0 f i sdk_util.obj
 0001:000002b0       ??$_Construct_in_place@PEAU?$_Tree_node@PEAVIAuthServiceEvent@ZOOMSDK@@PEAX@std@@AEBQEAU12@@std@@YAXAEAPEAU?$_Tree_node@PEAVIAuthServiceEvent@ZOOMSDK@@PEAX@0@AEBQEAU10@@Z 00000001400012b0 f i sdk_util.obj
 0001:000002b0       ??$_Construct_in_place@PEAU?$_Tree_node@U?$pair@$$CBIPEAVIUserInfo@ZOOMSDK@@@std@@PEAX@std@@AEAPEAU12@@std@@YAXAEAPEAU?$_Tree_node@U?$pair@$$CBIPEAVIUserInfo@ZOOMSDK@@@std@@PEAX@0@0@Z 00000001400012b0 f i user_manager.obj
 0001:000002b0       ??$_Construct_in_place@PEAU?$_Tree_node@PEAVIClosedCaptionControllerEvent@ZOOMSDK@@PEAX@std@@AEBQEAU12@@std@@YAXAEAPEAU?$_Tree_node@PEAVIClosedCaptionControllerEvent@ZOOMSDK@@PEAX@0@AEBQEAU10@@Z 00000001400012b0 f i sdk_util.obj
 0001:000002b0       ??$_Construct_in_place@PEAU?$_List_node@HPEAX@std@@AEAPEAU12@@std@@YAXAEAPEAU?$_List_node@HPEAX@0@0@Z 00000001400012b0 f i participant_ui.obj
 0001:000002b0       ??$_Construct_in_place@PEAU?$_Tree_node@PEAVIAuthServiceEvent@ZOOMSDK@@PEAX@std@@AEAPEAU12@@std@@YAXAEAPEAU?$_Tree_node@PEAVIAuthServiceEvent@ZOOMSDK@@PEAX@0@0@Z 00000001400012b0 f i sdk_util.obj
 0001:000002b0       ??$_Construct_in_place@PEA_WAEBQEA_W@std@@YAXAEAPEA_WAEBQEA_W@Z 00000001400012b0 f i AnnotateBarWindow.obj
 0001:000002b0       ??$_Construct_in_place@PEAU?$_Tree_node@PEAVIMeetingServiceEvent@ZOOMSDK@@PEAX@std@@AEAPEAU12@@std@@YAXAEAPEAU?$_Tree_node@PEAVIMeetingServiceEvent@ZOOMSDK@@PEAX@0@0@Z 00000001400012b0 f i sdk_util.obj
 0001:000002b0       ??$_Construct_in_place@PEAU?$_Tree_node@PEAVISDKInMeetingServiceMgrEvent@@PEAX@std@@AEAPEAU12@@std@@YAXAEAPEAU?$_Tree_node@PEAVISDKInMeetingServiceMgrEvent@@PEAX@0@0@Z 00000001400012b0 f i sdk_util.obj
 0001:000002b0       ??$_Construct_in_place@PEAU?$_Tree_node@PEAVIMeetingServiceEvent@ZOOMSDK@@PEAX@std@@AEBQEAU12@@std@@YAXAEAPEAU?$_Tree_node@PEAVIMeetingServiceEvent@ZOOMSDK@@PEAX@0@AEBQEAU10@@Z 00000001400012b0 f i sdk_util.obj
 0001:000002b0       ??$_Construct_in_place@PEAU?$_List_node@HPEAX@std@@AEBQEAU12@@std@@YAXAEAPEAU?$_List_node@HPEAX@0@AEBQEAU10@@Z 00000001400012b0 f i participant_ui.obj
 0001:000002b0       ??$_Construct_in_place@PEAU?$_Tree_node@PEAVIMeetingParticipantsCtrlEvent@ZOOMSDK@@PEAX@std@@AEBQEAU12@@std@@YAXAEAPEAU?$_Tree_node@PEAVIMeetingParticipantsCtrlEvent@ZOOMSDK@@PEAX@0@AEBQEAU10@@Z 00000001400012b0 f i sdk_util.obj
 0001:000002b0       ??$_Construct_in_place@PEAU?$_Tree_node@PEAVISDKInMeetingServiceMgrEvent@@PEAX@std@@AEBQEAU12@@std@@YAXAEAPEAU?$_Tree_node@PEAVISDKInMeetingServiceMgrEvent@@PEAX@0@AEBQEAU10@@Z 00000001400012b0 f i sdk_util.obj
 0001:000002b0       ??$_Construct_in_place@PEAU?$_Tree_node@PEAVIMeetingChatCtrlEvent@ZOOMSDK@@PEAX@std@@AEBQEAU12@@std@@YAXAEAPEAU?$_Tree_node@PEAVIMeetingChatCtrlEvent@ZOOMSDK@@PEAX@0@AEBQEAU10@@Z 00000001400012b0 f i sdk_util.obj
 0001:000002b0       ??$_Construct_in_place@PEAU?$_Tree_node@PEAVIClosedCaptionControllerEvent@ZOOMSDK@@PEAX@std@@AEAPEAU12@@std@@YAXAEAPEAU?$_Tree_node@PEAVIClosedCaptionControllerEvent@ZOOMSDK@@PEAX@0@0@Z 00000001400012b0 f i sdk_util.obj
 0001:00000300       ??$addressof@V?$_String_val@U?$_Simple_types@_W@std@@@std@@@std@@YAPEAV?$_String_val@U?$_Simple_types@_W@std@@@0@AEAV10@@Z 0000000140001300 f i chat_controller_ui.obj
 0001:00000300       ?_Extract@?$_In_place_key_extract_set@PEAVIAuthServiceEvent@ZOOMSDK@@PEAV12@@std@@SAAEBQEAVIAuthServiceEvent@ZOOMSDK@@AEBQEAV34@@Z 0000000140001300 f i sdk_util.obj
 0001:00000300       ??$_Voidify_iter@PEAPEAU?$_Tree_node@PEAVIMeetingServiceEvent@ZOOMSDK@@PEAX@std@@@std@@YAPEAXPEAPEAU?$_Tree_node@PEAVIMeetingServiceEvent@ZOOMSDK@@PEAX@0@@Z 0000000140001300 f i sdk_util.obj
 0001:00000300       ??$addressof@H@std@@YAPEAHAEAH@Z 0000000140001300 f i participant_ui.obj
 0001:00000300       ??$forward@AEBQEAVIAuthServiceEvent@ZOOMSDK@@@std@@YAAEBQEAVIAuthServiceEvent@ZOOMSDK@@AEBQEAV12@@Z 0000000140001300 f i sdk_util.obj
 0001:00000300       ??$forward@AEBQEAU?$_Tree_node@PEAVIMeetingParticipantsCtrlEvent@ZOOMSDK@@PEAX@std@@@std@@YAAEBQEAU?$_Tree_node@PEAVIMeetingParticipantsCtrlEvent@ZOOMSDK@@PEAX@0@AEBQEAU10@@Z 0000000140001300 f i sdk_util.obj
 0001:00000300       ??$_Voidify_iter@PEAPEAVIClosedCaptionControllerEvent@ZOOMSDK@@@std@@YAPEAXPEAPEAVIClosedCaptionControllerEvent@ZOOMSDK@@@Z 0000000140001300 f i sdk_util.obj
 0001:00000300       ??$forward_as_tuple@$$V@std@@YA?AV?$tuple@$$V@0@XZ 0000000140001300 f i user_manager.obj
 0001:00000300       ??0?$allocator@U?$_List_node@HPEAX@std@@@std@@QEAA@XZ 0000000140001300 f i participant_ui.obj
 0001:00000300       ??$forward@U?$pair@IPEAVIUserInfo@ZOOMSDK@@@std@@@std@@YA$$QEAU?$pair@IPEAVIUserInfo@ZOOMSDK@@@0@AEAU10@@Z 0000000140001300 f i user_manager.obj
 0001:00000300       ??$addressof@$$CBV?$_Tree_val@U?$_Tree_simple_types@PEAVIMeetingChatCtrlEvent@ZOOMSDK@@@std@@@std@@@std@@YAPEBV?$_Tree_val@U?$_Tree_simple_types@PEAVIMeetingChatCtrlEvent@ZOOMSDK@@@std@@@0@AEBV10@@Z 0000000140001300 f i sdk_util.obj
 0001:00000300       ??$forward@AEBI@std@@YAAEBIAEBI@Z 0000000140001300 f i user_manager.obj
 0001:00000300       ??0?$allocator@U?$_Tree_node@U?$pair@$$CBIPEAVIUserInfo@ZOOMSDK@@@std@@PEAX@std@@@std@@QEAA@XZ 0000000140001300 f i user_manager.obj
 0001:00000300       ??$_Unfancy@PEAVIVirtualBGImageInfo@ZOOMSDK@@@std@@YAPEAPEAVIVirtualBGImageInfo@ZOOMSDK@@PEAPEAV12@@Z 0000000140001300 f i settings_ui.obj
 0001:00000300       ??$_Kfn@$$CBHW4bkItemType@@@?$_Tmap_traits@HW4bkItemType@@U?$less@H@std@@V?$allocator@U?$pair@$$CBHW4bkItemType@@@std@@@3@$0A@@std@@SAAEBHAEBU?$pair@$$CBHW4bkItemType@@@1@@Z 0000000140001300 f i settings_ui.obj
 0001:00000300       ??$addressof@PEAU?$_Tree_node@PEAVISDKInMeetingServiceMgrEvent@@PEAX@std@@@std@@YAPEAPEAU?$_Tree_node@PEAVISDKInMeetingServiceMgrEvent@@PEAX@0@AEAPEAU10@@Z 0000000140001300 f i sdk_util.obj
 0001:00000300       ??$_Voidify_iter@PEAPEAVIUserInfo@ZOOMSDK@@@std@@YAPEAXPEAPEAVIUserInfo@ZOOMSDK@@@Z 0000000140001300 f i user_manager.obj
 0001:00000300       ?_Extract@?$_In_place_key_extract_set@PEAVISDKInMeetingServiceMgrEvent@@PEAV1@@std@@SAAEBQEAVISDKInMeetingServiceMgrEvent@@AEBQEAV3@@Z 0000000140001300 f i sdk_util.obj
 0001:00000300       ??$addressof@PEAU?$_Tree_node@PEAVIMeetingVideoCtrlEvent@ZOOMSDK@@PEAX@std@@@std@@YAPEAPEAU?$_Tree_node@PEAVIMeetingVideoCtrlEvent@ZOOMSDK@@PEAX@0@AEAPEAU10@@Z 0000000140001300 f i sdk_util.obj
 0001:00000300       ??$_Voidify_iter@PEAPEAU?$_Tree_node@PEAVIMeetingChatCtrlEvent@ZOOMSDK@@PEAX@std@@@std@@YAPEAXPEAPEAU?$_Tree_node@PEAVIMeetingChatCtrlEvent@ZOOMSDK@@PEAX@0@@Z 0000000140001300 f i sdk_util.obj
 0001:00000300       ??$addressof@$$CBV?$basic_string@_WU?$char_traits@_W@std@@V?$allocator@_W@2@@std@@@std@@YAPEBV?$basic_string@_WU?$char_traits@_W@std@@V?$allocator@_W@2@@0@AEBV10@@Z 0000000140001300 f i custom_ui_share_flow.obj
 0001:00000300       ?_Get_first@?$_Compressed_pair@V?$allocator@U?$_List_node@HPEAX@std@@@std@@V?$_List_val@U?$_List_simple_types@H@std@@@2@$00@std@@QEBAAEBV?$allocator@U?$_List_node@HPEAX@std@@@2@XZ 0000000140001300 f i participant_ui.obj
 0001:00000300       ?_Get_first@?$_Compressed_pair@V?$allocator@U?$_Tree_node@PEAVIMeetingChatCtrlEvent@ZOOMSDK@@PEAX@std@@@std@@V?$_Tree_val@U?$_Tree_simple_types@PEAVIMeetingChatCtrlEvent@ZOOMSDK@@@std@@@2@$00@std@@QEBAAEBV?$allocator@U?$_Tree_node@PEAVIMeetingChatCtrlEvent@ZOOMSDK@@PEAX@std@@@2@XZ 0000000140001300 f i sdk_util.obj
 0001:00000300       ??$forward@AEAPEAU?$_List_node@HPEAX@std@@@std@@YAAEAPEAU?$_List_node@HPEAX@0@AEAPEAU10@@Z 0000000140001300 f i participant_ui.obj
 0001:00000300       ??$addressof@$$CBV?$_Tree_val@U?$_Tree_simple_types@PEAVIClosedCaptionControllerEvent@ZOOMSDK@@@std@@@std@@@std@@YAPEBV?$_Tree_val@U?$_Tree_simple_types@PEAVIClosedCaptionControllerEvent@ZOOMSDK@@@std@@@0@AEBV10@@Z 0000000140001300 f i sdk_util.obj
 0001:00000300       ?_Get_first@?$_Compressed_pair@U?$less@PEAVIMeetingChatCtrlEvent@ZOOMSDK@@@std@@V?$_Compressed_pair@V?$allocator@U?$_Tree_node@PEAVIMeetingChatCtrlEvent@ZOOMSDK@@PEAX@std@@@std@@V?$_Tree_val@U?$_Tree_simple_types@PEAVIMeetingChatCtrlEvent@ZOOMSDK@@@std@@@2@$00@2@$00@std@@QEBAAEBU?$less@PEAVIMeetingChatCtrlEvent@ZOOMSDK@@@2@XZ 0000000140001300 f i sdk_util.obj
 0001:00000300       ??$addressof@$$CBV?$_String_val@U?$_Simple_types@_W@std@@@std@@@std@@YAPEBV?$_String_val@U?$_Simple_types@_W@std@@@0@AEBV10@@Z 0000000140001300 f i chat_controller_ui.obj
 0001:00000300       ??$_Convert_size@_K@std@@YA_K_K@Z 0000000140001300 f i AnnotateBarWindow.obj
 0001:00000300       ?_Get_first@?$_Compressed_pair@V?$allocator@U?$_Tree_node@U?$pair@$$CBIPEAVIUserInfo@ZOOMSDK@@@std@@PEAX@std@@@std@@V?$_Tree_val@U?$_Tree_simple_types@U?$pair@$$CBIPEAVIUserInfo@ZOOMSDK@@@std@@@std@@@2@$00@std@@QEAAAEAV?$allocator@U?$_Tree_node@U?$pair@$$CBIPEAVIUserInfo@ZOOMSDK@@@std@@PEAX@std@@@2@XZ 0000000140001300 f i user_manager.obj
 0001:00000300       ?_Extract@?$_In_place_key_extract_set@PEAVIMeetingVideoCtrlEvent@ZOOMSDK@@PEAV12@@std@@SAAEBQEAVIMeetingVideoCtrlEvent@ZOOMSDK@@AEBQEAV34@@Z 0000000140001300 f i sdk_util.obj
 0001:00000300       ?_Extract@?$_In_place_key_extract_set@PEAVIMeetingChatCtrlEvent@ZOOMSDK@@PEAV12@@std@@SAAEBQEAVIMeetingChatCtrlEvent@ZOOMSDK@@AEBQEAV34@@Z 0000000140001300 f i sdk_util.obj
 0001:00000300       ??$forward@AEAPEAU?$_Tree_node@U?$pair@$$CBIPEAVIUserInfo@ZOOMSDK@@@std@@PEAX@std@@@std@@YAAEAPEAU?$_Tree_node@U?$pair@$$CBIPEAVIUserInfo@ZOOMSDK@@@std@@PEAX@0@AEAPEAU10@@Z 0000000140001300 f i user_manager.obj
 0001:00000300       ?_Get_first@?$_Compressed_pair@V?$allocator@U?$_Tree_node@PEAVISDKInMeetingServiceMgrEvent@@PEAX@std@@@std@@V?$_Tree_val@U?$_Tree_simple_types@PEAVISDKInMeetingServiceMgrEvent@@@std@@@2@$00@std@@QEBAAEBV?$allocator@U?$_Tree_node@PEAVISDKInMeetingServiceMgrEvent@@PEAX@std@@@2@XZ 0000000140001300 f i sdk_util.obj
 0001:00000300       ??$move@AEAPEAVIVirtualBGImageInfo@ZOOMSDK@@@std@@YA$$QEAPEAVIVirtualBGImageInfo@ZOOMSDK@@AEAPEAV12@@Z 0000000140001300 f i settings_ui.obj
 0001:00000300       ??$forward@V?$_Tree_const_iterator@V?$_Tree_val@U?$_Tree_simple_types@PEAVIMeetingChatCtrlEvent@ZOOMSDK@@@std@@@std@@@std@@@std@@YA$$QEAV?$_Tree_const_iterator@V?$_Tree_val@U?$_Tree_simple_types@PEAVIMeetingChatCtrlEvent@ZOOMSDK@@@std@@@std@@@0@AEAV10@@Z 0000000140001300 f i sdk_util.obj
 0001:00000300       ??$forward@_N@std@@YA$$QEA_NAEA_N@Z 0000000140001300 f i sdk_util.obj
 0001:00000300       ??$addressof@V?$_Tree_val@U?$_Tree_simple_types@PEAVIMeetingChatCtrlEvent@ZOOMSDK@@@std@@@std@@@std@@YAPEAV?$_Tree_val@U?$_Tree_simple_types@PEAVIMeetingChatCtrlEvent@ZOOMSDK@@@std@@@0@AEAV10@@Z 0000000140001300 f i sdk_util.obj
 0001:00000300       ??$addressof@PEAU?$_Tree_node@U?$pair@$$CBHW4bkItemType@@@std@@PEAX@std@@@std@@YAPEAPEAU?$_Tree_node@U?$pair@$$CBHW4bkItemType@@@std@@PEAX@0@AEAPEAU10@@Z 0000000140001300 f i settings_ui.obj
 0001:00000300       ?_Extract@?$_In_place_key_extract_set@PEAVIClosedCaptionControllerEvent@ZOOMSDK@@PEAV12@@std@@SAAEBQEAVIClosedCaptionControllerEvent@ZOOMSDK@@AEBQEAV34@@Z 0000000140001300 f i sdk_util.obj
 0001:00000300       ??$forward@PEAU?$_Tree_node@PEAVIMeetingChatCtrlEvent@ZOOMSDK@@PEAX@std@@@std@@YA$$QEAPEAU?$_Tree_node@PEAVIMeetingChatCtrlEvent@ZOOMSDK@@PEAX@0@AEAPEAU10@@Z 0000000140001300 f i sdk_util.obj
 0001:00000300       ??$addressof@V?$_Tree_val@U?$_Tree_simple_types@PEAVIMeetingVideoCtrlEvent@ZOOMSDK@@@std@@@std@@@std@@YAPEAV?$_Tree_val@U?$_Tree_simple_types@PEAVIMeetingVideoCtrlEvent@ZOOMSDK@@@std@@@0@AEAV10@@Z 0000000140001300 f i sdk_util.obj
 0001:00000300       ??$forward@AEBUpiecewise_construct_t@std@@@std@@YAAEBUpiecewise_construct_t@0@AEBU10@@Z 0000000140001300 f i user_manager.obj
 0001:00000300       ??0CMoreFeaturesWorkflow@@QEAA@XZ 0000000140001300 f i more_features_workflow.obj
 0001:00000300       ??$_Voidify_iter@PEAPEAVIMeetingVideoCtrlEvent@ZOOMSDK@@@std@@YAPEAXPEAPEAVIMeetingVideoCtrlEvent@ZOOMSDK@@@Z 0000000140001300 f i sdk_util.obj
 0001:00000300       ??$_Voidify_iter@PEAPEAU?$_Tree_node@PEAVIAuthServiceEvent@ZOOMSDK@@PEAX@std@@@std@@YAPEAXPEAPEAU?$_Tree_node@PEAVIAuthServiceEvent@ZOOMSDK@@PEAX@0@@Z 0000000140001300 f i sdk_util.obj
 0001:00000300       ??$forward@AEAPEAU?$_Tree_node@PEAVIMeetingParticipantsCtrlEvent@ZOOMSDK@@PEAX@std@@@std@@YAAEAPEAU?$_Tree_node@PEAVIMeetingParticipantsCtrlEvent@ZOOMSDK@@PEAX@0@AEAPEAU10@@Z 0000000140001300 f i sdk_util.obj
 0001:00000300       ?_Get_first@?$_Compressed_pair@V?$allocator@U?$_List_node@HPEAX@std@@@std@@V?$_List_val@U?$_List_simple_types@H@std@@@2@$00@std@@QEAAAEAV?$allocator@U?$_List_node@HPEAX@std@@@2@XZ 0000000140001300 f i participant_ui.obj
 0001:00000300       ?_Get_first@?$_Compressed_pair@U?$less@I@std@@V?$_Compressed_pair@V?$allocator@U?$_Tree_node@U?$pair@$$CBIPEAVIUserInfo@ZOOMSDK@@@std@@PEAX@std@@@std@@V?$_Tree_val@U?$_Tree_simple_types@U?$pair@$$CBIPEAVIUserInfo@ZOOMSDK@@@std@@@std@@@2@$00@2@$00@std@@QEBAAEBU?$less@I@2@XZ 0000000140001300 f i user_manager.obj
 0001:00000300       ??0?$allocator@V?$basic_string@_WU?$char_traits@_W@std@@V?$allocator@_W@2@@std@@@std@@QEAA@XZ 0000000140001300 f i custom_ui_share_flow.obj
 0001:00000300       ??$forward@AEAPEA_W@std@@YAAEAPEA_WAEAPEA_W@Z 0000000140001300 f i chat_controller_ui.obj
 0001:00000300       ??$forward@V?$basic_string@_WU?$char_traits@_W@std@@V?$allocator@_W@2@@std@@@std@@YA$$QEAV?$basic_string@_WU?$char_traits@_W@std@@V?$allocator@_W@2@@0@AEAV10@@Z 0000000140001300 f i custom_ui_share_flow.obj
 0001:00000300       ??$addressof@V?$_Tree_val@U?$_Tree_simple_types@PEAVIMeetingServiceEvent@ZOOMSDK@@@std@@@std@@@std@@YAPEAV?$_Tree_val@U?$_Tree_simple_types@PEAVIMeetingServiceEvent@ZOOMSDK@@@std@@@0@AEAV10@@Z 0000000140001300 f i sdk_util.obj
 0001:00000300       ??$_Get_unwrapped@AEAV?$_Tree_unchecked_const_iterator@V?$_Tree_val@U?$_Tree_simple_types@PEAVIMeetingServiceEvent@ZOOMSDK@@@std@@@std@@U_Iterator_base0@2@@std@@@std@@YA?A_TAEAV?$_Tree_unchecked_const_iterator@V?$_Tree_val@U?$_Tree_simple_types@PEAVIMeetingServiceEvent@ZOOMSDK@@@std@@@std@@U_Iterator_base0@2@@0@@Z 0000000140001300 f i sdk_util.obj
 0001:00000300       ??$forward@AEAPEAU?$_Tree_node@PEAVISDKInMeetingServiceMgrEvent@@PEAX@std@@@std@@YAAEAPEAU?$_Tree_node@PEAVISDKInMeetingServiceMgrEvent@@PEAX@0@AEAPEAU10@@Z 0000000140001300 f i sdk_util.obj
 0001:00000300       ?_Get_first@?$_Compressed_pair@V?$allocator@U?$_Tree_node@U?$pair@$$CBHW4bkItemType@@@std@@PEAX@std@@@std@@V?$_Tree_val@U?$_Tree_simple_types@U?$pair@$$CBHW4bkItemType@@@std@@@std@@@2@$00@std@@QEAAAEAV?$allocator@U?$_Tree_node@U?$pair@$$CBHW4bkItemType@@@std@@PEAX@std@@@2@XZ 0000000140001300 f i settings_ui.obj
 0001:00000300       ?_Extract@?$_In_place_key_extract_map@IU?$pair@IPEAVIUserInfo@ZOOMSDK@@@std@@@std@@SAAEBIAEBU?$pair@IPEAVIUserInfo@ZOOMSDK@@@2@@Z 0000000140001300 f i user_manager.obj
 0001:00000300       ??$forward@V?$_Tree_iterator@V?$_Tree_val@U?$_Tree_simple_types@U?$pair@$$CBHW4bkItemType@@@std@@@std@@@std@@@std@@@std@@YA$$QEAV?$_Tree_iterator@V?$_Tree_val@U?$_Tree_simple_types@U?$pair@$$CBHW4bkItemType@@@std@@@std@@@std@@@0@AEAV10@@Z 0000000140001300 f i settings_ui.obj
 0001:00000300       ??$_Voidify_iter@PEAPEAVIMeetingChatCtrlEvent@ZOOMSDK@@@std@@YAPEAXPEAPEAVIMeetingChatCtrlEvent@ZOOMSDK@@@Z 0000000140001300 f i sdk_util.obj
 0001:00000300       ??$forward@PEAU?$_Tree_node@PEAVIClosedCaptionControllerEvent@ZOOMSDK@@PEAX@std@@@std@@YA$$QEAPEAU?$_Tree_node@PEAVIClosedCaptionControllerEvent@ZOOMSDK@@PEAX@0@AEAPEAU10@@Z 0000000140001300 f i sdk_util.obj
 0001:00000300       ??$addressof@PEAU?$_Tree_node@PEAVIClosedCaptionControllerEvent@ZOOMSDK@@PEAX@std@@@std@@YAPEAPEAU?$_Tree_node@PEAVIClosedCaptionControllerEvent@ZOOMSDK@@PEAX@0@AEAPEAU10@@Z 0000000140001300 f i sdk_util.obj
 0001:00000300       ?_Get_first@?$_Compressed_pair@V?$allocator@U?$_Tree_node@U?$pair@$$CBIPEAVIUserInfo@ZOOMSDK@@@std@@PEAX@std@@@std@@V?$_Tree_val@U?$_Tree_simple_types@U?$pair@$$CBIPEAVIUserInfo@ZOOMSDK@@@std@@@std@@@2@$00@std@@QEBAAEBV?$allocator@U?$_Tree_node@U?$pair@$$CBIPEAVIUserInfo@ZOOMSDK@@@std@@PEAX@std@@@2@XZ 0000000140001300 f i user_manager.obj
 0001:00000300       ??$addressof@U?$pair@$$CBHW4bkItemType@@@std@@@std@@YAPEAU?$pair@$$CBHW4bkItemType@@@0@AEAU10@@Z 0000000140001300 f i settings_ui.obj
 0001:00000300       ?_Get_first@?$_Compressed_pair@U?$less@PEAVIMeetingParticipantsCtrlEvent@ZOOMSDK@@@std@@V?$_Compressed_pair@V?$allocator@U?$_Tree_node@PEAVIMeetingParticipantsCtrlEvent@ZOOMSDK@@PEAX@std@@@std@@V?$_Tree_val@U?$_Tree_simple_types@PEAVIMeetingParticipantsCtrlEvent@ZOOMSDK@@@std@@@2@$00@2@$00@std@@QEBAAEBU?$less@PEAVIMeetingParticipantsCtrlEvent@ZOOMSDK@@@2@XZ 0000000140001300 f i sdk_util.obj
 0001:00000300       ?_Get_first@?$_Compressed_pair@V?$allocator@U?$_Tree_node@PEAVIAuthServiceEvent@ZOOMSDK@@PEAX@std@@@std@@V?$_Tree_val@U?$_Tree_simple_types@PEAVIAuthServiceEvent@ZOOMSDK@@@std@@@2@$00@std@@QEAAAEAV?$allocator@U?$_Tree_node@PEAVIAuthServiceEvent@ZOOMSDK@@PEAX@std@@@2@XZ 0000000140001300 f i sdk_util.obj
 0001:00000300       ?_Get_first@?$_Compressed_pair@V?$allocator@_W@std@@V?$_String_val@U?$_Simple_types@_W@std@@@2@$00@std@@QEBAAEBV?$allocator@_W@2@XZ 0000000140001300 f i AnnotateBarWindow.obj
 0001:00000300       ??$forward@AEAPEAU?$_Tree_node@U?$pair@$$CBHW4bkItemType@@@std@@PEAX@std@@@std@@YAAEAPEAU?$_Tree_node@U?$pair@$$CBHW4bkItemType@@@std@@PEAX@0@AEAPEAU10@@Z 0000000140001300 f i settings_ui.obj
 0001:00000300       ??$forward@PEAU?$_Tree_node@PEAVIAuthServiceEvent@ZOOMSDK@@PEAX@std@@@std@@YA$$QEAPEAU?$_Tree_node@PEAVIAuthServiceEvent@ZOOMSDK@@PEAX@0@AEAPEAU10@@Z 0000000140001300 f i sdk_util.obj
 0001:00000300       ??$forward@AEAPEAVIUserInfo@ZOOMSDK@@@std@@YAAEAPEAVIUserInfo@ZOOMSDK@@AEAPEAV12@@Z 0000000140001300 f i user_manager.obj
 0001:00000300       ??0?$allocator@U?$_Tree_node@PEAVIAuthServiceEvent@ZOOMSDK@@PEAX@std@@@std@@QEAA@XZ 0000000140001300 f i sdk_util.obj
 0001:00000300       ??$forward@AEAPEAU?$_Tree_node@PEAVIMeetingServiceEvent@ZOOMSDK@@PEAX@std@@@std@@YAAEAPEAU?$_Tree_node@PEAVIMeetingServiceEvent@ZOOMSDK@@PEAX@0@AEAPEAU10@@Z 0000000140001300 f i sdk_util.obj
 0001:00000300       ??$move@AEAV?$allocator@_W@std@@@std@@YA$$QEAV?$allocator@_W@0@AEAV10@@Z 0000000140001300 f i chat_controller_ui.obj
 0001:00000300       ??$_Voidify_iter@PEAPEAU?$_Tree_node@U?$pair@$$CBHW4bkItemType@@@std@@PEAX@std@@@std@@YAPEAXPEAPEAU?$_Tree_node@U?$pair@$$CBHW4bkItemType@@@std@@PEAX@0@@Z 0000000140001300 f i settings_ui.obj
 0001:00000300       ??0?$allocator@_W@std@@QEAA@XZ 0000000140001300 f i AnnotateBarWindow.obj
 0001:00000300       ??$addressof@PEAVIMeetingParticipantsCtrlEvent@ZOOMSDK@@@std@@YAPEAPEAVIMeetingParticipantsCtrlEvent@ZOOMSDK@@AEAPEAV12@@Z 0000000140001300 f i sdk_util.obj
 0001:00000300       ??$_Kfn@$$CBIPEAVIUserInfo@ZOOMSDK@@@?$_Tmap_traits@IPEAVIUserInfo@ZOOMSDK@@U?$less@I@std@@V?$allocator@U?$pair@$$CBIPEAVIUserInfo@ZOOMSDK@@@std@@@4@$0A@@std@@SAAEBIAEBU?$pair@$$CBIPEAVIUserInfo@ZOOMSDK@@@1@@Z 0000000140001300 f i user_manager.obj
 0001:00000300       ??$addressof@$$CBV?$_Tree_val@U?$_Tree_simple_types@U?$pair@$$CBIPEAVIUserInfo@ZOOMSDK@@@std@@@std@@@std@@@std@@YAPEBV?$_Tree_val@U?$_Tree_simple_types@U?$pair@$$CBIPEAVIUserInfo@ZOOMSDK@@@std@@@std@@@0@AEBV10@@Z 0000000140001300 f i user_manager.obj
 0001:00000300       ??$addressof@PEA_W@std@@YAPEAPEA_WAEAPEA_W@Z 0000000140001300 f i AnnotateBarWindow.obj
 0001:00000300       ??$addressof@PEAVIMeetingChatCtrlEvent@ZOOMSDK@@@std@@YAPEAPEAVIMeetingChatCtrlEvent@ZOOMSDK@@AEAPEAV12@@Z 0000000140001300 f i sdk_util.obj
 0001:00000300       ?_Extract@?$_In_place_key_extract_set@PEAVIMeetingParticipantsCtrlEvent@ZOOMSDK@@PEAV12@@std@@SAAEBQEAVIMeetingParticipantsCtrlEvent@ZOOMSDK@@AEBQEAV34@@Z 0000000140001300 f i sdk_util.obj
 0001:00000300       ??$move@AEAV?$tuple@AEBI@std@@@std@@YA$$QEAV?$tuple@AEBI@0@AEAV10@@Z 0000000140001300 f i user_manager.obj
 0001:00000300       ??$_Get_unwrapped@AEAV?$_Tree_unchecked_const_iterator@V?$_Tree_val@U?$_Tree_simple_types@PEAVIClosedCaptionControllerEvent@ZOOMSDK@@@std@@@std@@U_Iterator_base0@2@@std@@@std@@YA?A_TAEAV?$_Tree_unchecked_const_iterator@V?$_Tree_val@U?$_Tree_simple_types@PEAVIClosedCaptionControllerEvent@ZOOMSDK@@@std@@@std@@U_Iterator_base0@2@@0@@Z 0000000140001300 f i sdk_util.obj
 0001:00000300       ??$forward@AEBU?$less@I@std@@@std@@YAAEBU?$less@I@0@AEBU10@@Z 0000000140001300 f i user_manager.obj
 0001:00000300       ??0?$allocator@U?$_Tree_node@PEAVIClosedCaptionControllerEvent@ZOOMSDK@@PEAX@std@@@std@@QEAA@XZ 0000000140001300 f i sdk_util.obj
 0001:00000300       ?_Get_first@?$_Compressed_pair@V?$allocator@PEAVIUserInfo@ZOOMSDK@@@std@@V?$_Vector_val@U?$_Simple_types@PEAVIUserInfo@ZOOMSDK@@@std@@@2@$00@std@@QEAAAEAV?$allocator@PEAVIUserInfo@ZOOMSDK@@@2@XZ 0000000140001300 f i user_manager.obj
 0001:00000300       ??$forward@AEAPEAU?$_Tree_node@PEAVIMeetingChatCtrlEvent@ZOOMSDK@@PEAX@std@@@std@@YAAEAPEAU?$_Tree_node@PEAVIMeetingChatCtrlEvent@ZOOMSDK@@PEAX@0@AEAPEAU10@@Z 0000000140001300 f i sdk_util.obj
 0001:00000300       ??$forward@PEAU?$_Tree_node@PEAVIMeetingVideoCtrlEvent@ZOOMSDK@@PEAX@std@@@std@@YA$$QEAPEAU?$_Tree_node@PEAVIMeetingVideoCtrlEvent@ZOOMSDK@@PEAX@0@AEAPEAU10@@Z 0000000140001300 f i sdk_util.obj
 0001:00000300       ??$forward@V?$tuple@$$V@std@@@std@@YA$$QEAV?$tuple@$$V@0@AEAV10@@Z 0000000140001300 f i user_manager.obj
 0001:00000300       ??$addressof@PEAU?$_Tree_node@PEAVIMeetingChatCtrlEvent@ZOOMSDK@@PEAX@std@@@std@@YAPEAPEAU?$_Tree_node@PEAVIMeetingChatCtrlEvent@ZOOMSDK@@PEAX@0@AEAPEAU10@@Z 0000000140001300 f i sdk_util.obj
 0001:00000300       ?_Get_first@?$_Compressed_pair@V?$allocator@V?$basic_string@_WU?$char_traits@_W@std@@V?$allocator@_W@2@@std@@@std@@V?$_Vector_val@U?$_Simple_types@V?$basic_string@_WU?$char_traits@_W@std@@V?$allocator@_W@2@@std@@@std@@@2@$00@std@@QEBAAEBV?$allocator@V?$basic_string@_WU?$char_traits@_W@std@@V?$allocator@_W@2@@std@@@2@XZ 0000000140001300 f i custom_ui_share_flow.obj
 0001:00000300       ?_Get_first@?$_Compressed_pair@U?$less@H@std@@V?$_Compressed_pair@V?$allocator@U?$_Tree_node@U?$pair@$$CBHW4bkItemType@@@std@@PEAX@std@@@std@@V?$_Tree_val@U?$_Tree_simple_types@U?$pair@$$CBHW4bkItemType@@@std@@@std@@@2@$00@2@$00@std@@QEBAAEBU?$less@H@2@XZ 0000000140001300 f i settings_ui.obj
 0001:00000300       ??$forward@AEBU?$less@PEAVIMeetingVideoCtrlEvent@ZOOMSDK@@@std@@@std@@YAAEBU?$less@PEAVIMeetingVideoCtrlEvent@ZOOMSDK@@@0@AEBU10@@Z 0000000140001300 f i sdk_util.obj
 0001:00000300       ??$addressof@V?$basic_string@_WU?$char_traits@_W@std@@V?$allocator@_W@2@@std@@@std@@YAPEAV?$basic_string@_WU?$char_traits@_W@std@@V?$allocator@_W@2@@0@AEAV10@@Z 0000000140001300 f i chat_controller_ui.obj
 0001:00000300       ?_Kfn@?$_Tset_traits@PEAVISDKInMeetingServiceMgrEvent@@U?$less@PEAVISDKInMeetingServiceMgrEvent@@@std@@V?$allocator@PEAVISDKInMeetingServiceMgrEvent@@@3@$0A@@std@@SAAEBQEAVISDKInMeetingServiceMgrEvent@@AEBQEAV3@@Z 0000000140001300 f i sdk_util.obj
 0001:00000300       ??$forward@V?$_Tree_const_iterator@V?$_Tree_val@U?$_Tree_simple_types@PEAVIClosedCaptionControllerEvent@ZOOMSDK@@@std@@@std@@@std@@@std@@YA$$QEAV?$_Tree_const_iterator@V?$_Tree_val@U?$_Tree_simple_types@PEAVIClosedCaptionControllerEvent@ZOOMSDK@@@std@@@std@@@0@AEAV10@@Z 0000000140001300 f i sdk_util.obj
 0001:00000300       ?_Get_first@?$_Compressed_pair@U?$less@PEAVIAuthServiceEvent@ZOOMSDK@@@std@@V?$_Compressed_pair@V?$allocator@U?$_Tree_node@PEAVIAuthServiceEvent@ZOOMSDK@@PEAX@std@@@std@@V?$_Tree_val@U?$_Tree_simple_types@PEAVIAuthServiceEvent@ZOOMSDK@@@std@@@2@$00@2@$00@std@@QEBAAEBU?$less@PEAVIAuthServiceEvent@ZOOMSDK@@@2@XZ 0000000140001300 f i sdk_util.obj
 0001:00000300       ??$addressof@$$CBV?$_Tree_val@U?$_Tree_simple_types@PEAVIMeetingVideoCtrlEvent@ZOOMSDK@@@std@@@std@@@std@@YAPEBV?$_Tree_val@U?$_Tree_simple_types@PEAVIMeetingVideoCtrlEvent@ZOOMSDK@@@std@@@0@AEBV10@@Z 0000000140001300 f i sdk_util.obj
 0001:00000300       ??$forward@AEBQEAU?$_Tree_node@U?$pair@$$CBIPEAVIUserInfo@ZOOMSDK@@@std@@PEAX@std@@@std@@YAAEBQEAU?$_Tree_node@U?$pair@$$CBIPEAVIUserInfo@ZOOMSDK@@@std@@PEAX@0@AEBQEAU10@@Z 0000000140001300 f i user_manager.obj
 0001:00000300       ??$forward@V?$allocator@_W@std@@@std@@YA$$QEAV?$allocator@_W@0@AEAV10@@Z 0000000140001300 f i chat_controller_ui.obj
 0001:00000300       ?_Get_first@?$_Compressed_pair@V?$allocator@U?$_Tree_node@PEAVIMeetingParticipantsCtrlEvent@ZOOMSDK@@PEAX@std@@@std@@V?$_Tree_val@U?$_Tree_simple_types@PEAVIMeetingParticipantsCtrlEvent@ZOOMSDK@@@std@@@2@$00@std@@QEAAAEAV?$allocator@U?$_Tree_node@PEAVIMeetingParticipantsCtrlEvent@ZOOMSDK@@PEAX@std@@@2@XZ 0000000140001300 f i sdk_util.obj
 0001:00000300       ??$forward@H@std@@YA$$QEAHAEAH@Z 0000000140001300 f i participant_ui.obj
 0001:00000300       ?_Get_first@?$_Compressed_pair@V?$allocator@PEAVIVirtualBGImageInfo@ZOOMSDK@@@std@@V?$_Vector_val@U?$_Simple_types@PEAVIVirtualBGImageInfo@ZOOMSDK@@@std@@@2@$00@std@@QEAAAEAV?$allocator@PEAVIVirtualBGImageInfo@ZOOMSDK@@@2@XZ 0000000140001300 f i settings_ui.obj
 0001:00000300       ??$forward@AEBQEAU?$_Tree_node@PEAVIAuthServiceEvent@ZOOMSDK@@PEAX@std@@@std@@YAAEBQEAU?$_Tree_node@PEAVIAuthServiceEvent@ZOOMSDK@@PEAX@0@AEBQEAU10@@Z 0000000140001300 f i sdk_util.obj
 0001:00000300       ??$addressof@PEAU?$_Tree_node@PEAVIAuthServiceEvent@ZOOMSDK@@PEAX@std@@@std@@YAPEAPEAU?$_Tree_node@PEAVIAuthServiceEvent@ZOOMSDK@@PEAX@0@AEAPEAU10@@Z 0000000140001300 f i sdk_util.obj
 0001:00000300       ??$forward@PEAVIUserInfo@ZOOMSDK@@@std@@YA$$QEAPEAVIUserInfo@ZOOMSDK@@AEAPEAV12@@Z 0000000140001300 f i user_manager.obj
 0001:00000300       ??$_Voidify_iter@PEAPEAVIVirtualBGImageInfo@ZOOMSDK@@@std@@YAPEAXPEAPEAVIVirtualBGImageInfo@ZOOMSDK@@@Z 0000000140001300 f i settings_ui.obj
 0001:00000300       ??$forward@AEBQEAU?$_Tree_node@PEAVIMeetingServiceEvent@ZOOMSDK@@PEAX@std@@@std@@YAAEBQEAU?$_Tree_node@PEAVIMeetingServiceEvent@ZOOMSDK@@PEAX@0@AEBQEAU10@@Z 0000000140001300 f i sdk_util.obj
 0001:00000300       ??$_Voidify_iter@PEAPEAVIAuthServiceEvent@ZOOMSDK@@@std@@YAPEAXPEAPEAVIAuthServiceEvent@ZOOMSDK@@@Z 0000000140001300 f i sdk_util.obj
 0001:00000300       ?_Get_first@?$_Compressed_pair@V?$allocator@U?$_Tree_node@PEAVIMeetingServiceEvent@ZOOMSDK@@PEAX@std@@@std@@V?$_Tree_val@U?$_Tree_simple_types@PEAVIMeetingServiceEvent@ZOOMSDK@@@std@@@2@$00@std@@QEAAAEAV?$allocator@U?$_Tree_node@PEAVIMeetingServiceEvent@ZOOMSDK@@PEAX@std@@@2@XZ 0000000140001300 f i sdk_util.obj
 0001:00000300       ??$_Get_unwrapped@AEAV?$_Tree_unchecked_const_iterator@V?$_Tree_val@U?$_Tree_simple_types@PEAVIMeetingChatCtrlEvent@ZOOMSDK@@@std@@@std@@U_Iterator_base0@2@@std@@@std@@YA?A_TAEAV?$_Tree_unchecked_const_iterator@V?$_Tree_val@U?$_Tree_simple_types@PEAVIMeetingChatCtrlEvent@ZOOMSDK@@@std@@@std@@U_Iterator_base0@2@@0@@Z 0000000140001300 f i sdk_util.obj
 0001:00000300       ??$addressof@PEAVIClosedCaptionControllerEvent@ZOOMSDK@@@std@@YAPEAPEAVIClosedCaptionControllerEvent@ZOOMSDK@@AEAPEAV12@@Z 0000000140001300 f i sdk_util.obj
 0001:00000300       ??$forward@AEBQEAVIClosedCaptionControllerEvent@ZOOMSDK@@@std@@YAAEBQEAVIClosedCaptionControllerEvent@ZOOMSDK@@AEBQEAV12@@Z 0000000140001300 f i sdk_util.obj
 0001:00000300       ??$forward@V?$_Tree_const_iterator@V?$_Tree_val@U?$_Tree_simple_types@PEAVIMeetingVideoCtrlEvent@ZOOMSDK@@@std@@@std@@@std@@@std@@YA$$QEAV?$_Tree_const_iterator@V?$_Tree_val@U?$_Tree_simple_types@PEAVIMeetingVideoCtrlEvent@ZOOMSDK@@@std@@@std@@@0@AEAV10@@Z 0000000140001300 f i sdk_util.obj
 0001:00000300       ??$_Voidify_iter@PEAPEAVIMeetingServiceEvent@ZOOMSDK@@@std@@YAPEAXPEAPEAVIMeetingServiceEvent@ZOOMSDK@@@Z 0000000140001300 f i sdk_util.obj
 0001:00000300       ??$forward@_K@std@@YA$$QEA_KAEA_K@Z 0000000140001300 f i settings_ui.obj
 0001:00000300       ?_Kfn@?$_Tset_traits@PEAVIAuthServiceEvent@ZOOMSDK@@U?$less@PEAVIAuthServiceEvent@ZOOMSDK@@@std@@V?$allocator@PEAVIAuthServiceEvent@ZOOMSDK@@@4@$0A@@std@@SAAEBQEAVIAuthServiceEvent@ZOOMSDK@@AEBQEAV34@@Z 0000000140001300 f i sdk_util.obj
 0001:00000300       ??$forward@AEBQEAVIMeetingChatCtrlEvent@ZOOMSDK@@@std@@YAAEBQEAVIMeetingChatCtrlEvent@ZOOMSDK@@AEBQEAV12@@Z 0000000140001300 f i sdk_util.obj
 0001:00000300       ??$forward@AEBQEAU?$_List_node@HPEAX@std@@@std@@YAAEBQEAU?$_List_node@HPEAX@0@AEBQEAU10@@Z 0000000140001300 f i participant_ui.obj
 0001:00000300       ??$_Unfancy@V?$basic_string@_WU?$char_traits@_W@std@@V?$allocator@_W@2@@std@@@std@@YAPEAV?$basic_string@_WU?$char_traits@_W@std@@V?$allocator@_W@2@@0@PEAV10@@Z 0000000140001300 f i custom_ui_share_flow.obj
 0001:00000300       ??$addressof@PEAVIMeetingServiceEvent@ZOOMSDK@@@std@@YAPEAPEAVIMeetingServiceEvent@ZOOMSDK@@AEAPEAV12@@Z 0000000140001300 f i sdk_util.obj
 0001:00000300       ??$forward@I@std@@YA$$QEAIAEAI@Z 0000000140001300 f i user_manager.obj
 0001:00000300       ?_Kfn@?$_Tset_traits@PEAVIMeetingParticipantsCtrlEvent@ZOOMSDK@@U?$less@PEAVIMeetingParticipantsCtrlEvent@ZOOMSDK@@@std@@V?$allocator@PEAVIMeetingParticipantsCtrlEvent@ZOOMSDK@@@4@$0A@@std@@SAAEBQEAVIMeetingParticipantsCtrlEvent@ZOOMSDK@@AEBQEAV34@@Z 0000000140001300 f i sdk_util.obj
 0001:00000300       ?_Extract@?$_In_place_key_extract_map@HU?$pair@HW4bkItemType@@@std@@@std@@SAAEBHAEBU?$pair@HW4bkItemType@@@2@@Z 0000000140001300 f i settings_ui.obj
 0001:00000300       ??$_Unfancy@_W@std@@YAPEA_WPEA_W@Z 0000000140001300 f i AnnotateBarWindow.obj
 0001:00000300       ??$addressof@PEAVISDKInMeetingServiceMgrEvent@@@std@@YAPEAPEAVISDKInMeetingServiceMgrEvent@@AEAPEAV1@@Z 0000000140001300 f i sdk_util.obj
 0001:00000300       ??$_Voidify_iter@PEAPEA_W@std@@YAPEAXPEAPEA_W@Z 0000000140001300 f i AnnotateBarWindow.obj
 0001:00000300       ??$forward@W4bkItemType@@@std@@YA$$QEAW4bkItemType@@AEAW41@@Z 0000000140001300 f i settings_ui.obj
 0001:00000300       ?_Get_first@?$_Compressed_pair@V?$allocator@U?$_Tree_node@PEAVIMeetingVideoCtrlEvent@ZOOMSDK@@PEAX@std@@@std@@V?$_Tree_val@U?$_Tree_simple_types@PEAVIMeetingVideoCtrlEvent@ZOOMSDK@@@std@@@2@$00@std@@QEBAAEBV?$allocator@U?$_Tree_node@PEAVIMeetingVideoCtrlEvent@ZOOMSDK@@PEAX@std@@@2@XZ 0000000140001300 f i sdk_util.obj
 0001:00000300       ??$addressof@$$CBV?$_Tree_val@U?$_Tree_simple_types@PEAVIMeetingParticipantsCtrlEvent@ZOOMSDK@@@std@@@std@@@std@@YAPEBV?$_Tree_val@U?$_Tree_simple_types@PEAVIMeetingParticipantsCtrlEvent@ZOOMSDK@@@std@@@0@AEBV10@@Z 0000000140001300 f i sdk_util.obj
 0001:00000300       ??$addressof@PEAVIAuthServiceEvent@ZOOMSDK@@@std@@YAPEAPEAVIAuthServiceEvent@ZOOMSDK@@AEAPEAV12@@Z 0000000140001300 f i sdk_util.obj
 0001:00000300       ??$forward@AEBU?$less@PEAVIMeetingServiceEvent@ZOOMSDK@@@std@@@std@@YAAEBU?$less@PEAVIMeetingServiceEvent@ZOOMSDK@@@0@AEBU10@@Z 0000000140001300 f i sdk_util.obj
 0001:00000300       ??$addressof@V?$_Tree_val@U?$_Tree_simple_types@PEAVIClosedCaptionControllerEvent@ZOOMSDK@@@std@@@std@@@std@@YAPEAV?$_Tree_val@U?$_Tree_simple_types@PEAVIClosedCaptionControllerEvent@ZOOMSDK@@@std@@@0@AEAV10@@Z 0000000140001300 f i sdk_util.obj
 0001:00000300       ??$forward@AEBQEAVIVirtualBGImageInfo@ZOOMSDK@@@std@@YAAEBQEAVIVirtualBGImageInfo@ZOOMSDK@@AEBQEAV12@@Z 0000000140001300 f i settings_ui.obj
 0001:00000300       ??$forward@AEBQEAVIMeetingParticipantsCtrlEvent@ZOOMSDK@@@std@@YAAEBQEAVIMeetingParticipantsCtrlEvent@ZOOMSDK@@AEBQEAV12@@Z 0000000140001300 f i sdk_util.obj
 0001:00000300       ?_Kfn@?$_Tset_traits@PEAVIMeetingServiceEvent@ZOOMSDK@@U?$less@PEAVIMeetingServiceEvent@ZOOMSDK@@@std@@V?$allocator@PEAVIMeetingServiceEvent@ZOOMSDK@@@4@$0A@@std@@SAAEBQEAVIMeetingServiceEvent@ZOOMSDK@@AEBQEAV34@@Z 0000000140001300 f i sdk_util.obj
 0001:00000300       ??$forward@AEBQEAVIUserInfo@ZOOMSDK@@@std@@YAAEBQEAVIUserInfo@ZOOMSDK@@AEBQEAV12@@Z 0000000140001300 f i user_manager.obj
 0001:00000300       ??$addressof@PEAU?$_Tree_node@U?$pair@$$CBIPEAVIUserInfo@ZOOMSDK@@@std@@PEAX@std@@@std@@YAPEAPEAU?$_Tree_node@U?$pair@$$CBIPEAVIUserInfo@ZOOMSDK@@@std@@PEAX@0@AEAPEAU10@@Z 0000000140001300 f i user_manager.obj
 0001:00000300       ??$forward@AEAPEAU?$_Tree_node@PEAVIAuthServiceEvent@ZOOMSDK@@PEAX@std@@@std@@YAAEAPEAU?$_Tree_node@PEAVIAuthServiceEvent@ZOOMSDK@@PEAX@0@AEAPEAU10@@Z 0000000140001300 f i sdk_util.obj
 0001:00000300       ?_Get_first@?$_Compressed_pair@U?$less@PEAVISDKInMeetingServiceMgrEvent@@@std@@V?$_Compressed_pair@V?$allocator@U?$_Tree_node@PEAVISDKInMeetingServiceMgrEvent@@PEAX@std@@@std@@V?$_Tree_val@U?$_Tree_simple_types@PEAVISDKInMeetingServiceMgrEvent@@@std@@@2@$00@2@$00@std@@QEBAAEBU?$less@PEAVISDKInMeetingServiceMgrEvent@@@2@XZ 0000000140001300 f i sdk_util.obj
 0001:00000300       ??$forward@PEAU?$_Tree_node@U?$pair@$$CBIPEAVIUserInfo@ZOOMSDK@@@std@@PEAX@std@@@std@@YA$$QEAPEAU?$_Tree_node@U?$pair@$$CBIPEAVIUserInfo@ZOOMSDK@@@std@@PEAX@0@AEAPEAU10@@Z 0000000140001300 f i user_manager.obj
 0001:00000300       ?_Get_first@?$_Compressed_pair@U?$less@PEAVIMeetingVideoCtrlEvent@ZOOMSDK@@@std@@V?$_Compressed_pair@V?$allocator@U?$_Tree_node@PEAVIMeetingVideoCtrlEvent@ZOOMSDK@@PEAX@std@@@std@@V?$_Tree_val@U?$_Tree_simple_types@PEAVIMeetingVideoCtrlEvent@ZOOMSDK@@@std@@@2@$00@2@$00@std@@QEBAAEBU?$less@PEAVIMeetingVideoCtrlEvent@ZOOMSDK@@@2@XZ 0000000140001300 f i sdk_util.obj
 0001:00000300       ??0?$allocator@U?$_Tree_node@PEAVIMeetingChatCtrlEvent@ZOOMSDK@@PEAX@std@@@std@@QEAA@XZ 0000000140001300 f i sdk_util.obj
 0001:00000300       ??$forward@PEAU?$_Tree_node@PEAVIMeetingServiceEvent@ZOOMSDK@@PEAX@std@@@std@@YA$$QEAPEAU?$_Tree_node@PEAVIMeetingServiceEvent@ZOOMSDK@@PEAX@0@AEAPEAU10@@Z 0000000140001300 f i sdk_util.obj
 0001:00000300       ?_Kfn@?$_Tset_traits@PEAVIMeetingChatCtrlEvent@ZOOMSDK@@U?$less@PEAVIMeetingChatCtrlEvent@ZOOMSDK@@@std@@V?$allocator@PEAVIMeetingChatCtrlEvent@ZOOMSDK@@@4@$0A@@std@@SAAEBQEAVIMeetingChatCtrlEvent@ZOOMSDK@@AEBQEAV34@@Z 0000000140001300 f i sdk_util.obj
 0001:00000300       ??$_Voidify_iter@PEAPEAU?$_Tree_node@PEAVISDKInMeetingServiceMgrEvent@@PEAX@std@@@std@@YAPEAXPEAPEAU?$_Tree_node@PEAVISDKInMeetingServiceMgrEvent@@PEAX@0@@Z 0000000140001300 f i sdk_util.obj
 0001:00000300       ??$_Voidify_iter@PEAPEAVISDKInMeetingServiceMgrEvent@@@std@@YAPEAXPEAPEAVISDKInMeetingServiceMgrEvent@@@Z 0000000140001300 f i sdk_util.obj
 0001:00000300       ??$forward@AEBQEAU?$_Tree_node@PEAVIMeetingVideoCtrlEvent@ZOOMSDK@@PEAX@std@@@std@@YAAEBQEAU?$_Tree_node@PEAVIMeetingVideoCtrlEvent@ZOOMSDK@@PEAX@0@AEBQEAU10@@Z 0000000140001300 f i sdk_util.obj
 0001:00000300       ??$addressof@V?$_Tree_val@U?$_Tree_simple_types@PEAVISDKInMeetingServiceMgrEvent@@@std@@@std@@@std@@YAPEAV?$_Tree_val@U?$_Tree_simple_types@PEAVISDKInMeetingServiceMgrEvent@@@std@@@0@AEAV10@@Z 0000000140001300 f i sdk_util.obj
 0001:00000300       ??$addressof@PEAVIMeetingVideoCtrlEvent@ZOOMSDK@@@std@@YAPEAPEAVIMeetingVideoCtrlEvent@ZOOMSDK@@AEAPEAV12@@Z 0000000140001300 f i sdk_util.obj
 0001:00000300       ??$forward@U_Zero_then_variadic_args_t@std@@@std@@YA$$QEAU_Zero_then_variadic_args_t@0@AEAU10@@Z 0000000140001300 f i sdk_util.obj
 0001:00000300       ?_Get_first@?$_Compressed_pair@V?$allocator@_W@std@@V?$_String_val@U?$_Simple_types@_W@std@@@2@$00@std@@QEAAAEAV?$allocator@_W@2@XZ 0000000140001300 f i AnnotateBarWindow.obj
 0001:00000300       ?_Get_first@?$_Compressed_pair@U?$less@PEAVIMeetingServiceEvent@ZOOMSDK@@@std@@V?$_Compressed_pair@V?$allocator@U?$_Tree_node@PEAVIMeetingServiceEvent@ZOOMSDK@@PEAX@std@@@std@@V?$_Tree_val@U?$_Tree_simple_types@PEAVIMeetingServiceEvent@ZOOMSDK@@@std@@@2@$00@2@$00@std@@QEBAAEBU?$less@PEAVIMeetingServiceEvent@ZOOMSDK@@@2@XZ 0000000140001300 f i sdk_util.obj
 0001:00000300       ??$_Voidify_iter@PEAPEAU?$_Tree_node@PEAVIMeetingVideoCtrlEvent@ZOOMSDK@@PEAX@std@@@std@@YAPEAXPEAPEAU?$_Tree_node@PEAVIMeetingVideoCtrlEvent@ZOOMSDK@@PEAX@0@@Z 0000000140001300 f i sdk_util.obj
 0001:00000300       ??$addressof@$$CBV?$_Tree_val@U?$_Tree_simple_types@PEAVISDKInMeetingServiceMgrEvent@@@std@@@std@@@std@@YAPEBV?$_Tree_val@U?$_Tree_simple_types@PEAVISDKInMeetingServiceMgrEvent@@@std@@@0@AEBV10@@Z 0000000140001300 f i sdk_util.obj
 0001:00000300       ?_Get_first@?$_Compressed_pair@V?$allocator@PEAVIVirtualBGImageInfo@ZOOMSDK@@@std@@V?$_Vector_val@U?$_Simple_types@PEAVIVirtualBGImageInfo@ZOOMSDK@@@std@@@2@$00@std@@QEBAAEBV?$allocator@PEAVIVirtualBGImageInfo@ZOOMSDK@@@2@XZ 0000000140001300 f i settings_ui.obj
 0001:00000300       ??$forward@V?$_Tree_const_iterator@V?$_Tree_val@U?$_Tree_simple_types@PEAVIMeetingServiceEvent@ZOOMSDK@@@std@@@std@@@std@@@std@@YA$$QEAV?$_Tree_const_iterator@V?$_Tree_val@U?$_Tree_simple_types@PEAVIMeetingServiceEvent@ZOOMSDK@@@std@@@std@@@0@AEAV10@@Z 0000000140001300 f i sdk_util.obj
 0001:00000300       ??$addressof@$$CBV?$_Tree_val@U?$_Tree_simple_types@PEAVIMeetingServiceEvent@ZOOMSDK@@@std@@@std@@@std@@YAPEBV?$_Tree_val@U?$_Tree_simple_types@PEAVIMeetingServiceEvent@ZOOMSDK@@@std@@@0@AEBV10@@Z 0000000140001300 f i sdk_util.obj
 0001:00000300       ??$_Voidify_iter@PEAV?$basic_string@_WU?$char_traits@_W@std@@V?$allocator@_W@2@@std@@@std@@YAPEAXPEAV?$basic_string@_WU?$char_traits@_W@std@@V?$allocator@_W@2@@0@@Z 0000000140001300 f i custom_ui_share_flow.obj
 0001:00000300       ??$forward@AEBV?$allocator@_W@std@@@std@@YAAEBV?$allocator@_W@0@AEBV10@@Z 0000000140001300 f i join_webinar_wnd_ui.obj
 0001:00000300       ??$forward@AEAW4bkItemType@@@std@@YAAEAW4bkItemType@@AEAW41@@Z 0000000140001300 f i settings_ui.obj
 0001:00000300       ??$addressof@U?$pair@$$CBIPEAVIUserInfo@ZOOMSDK@@@std@@@std@@YAPEAU?$pair@$$CBIPEAVIUserInfo@ZOOMSDK@@@0@AEAU10@@Z 0000000140001300 f i user_manager.obj
 0001:00000300       ??$forward@V?$tuple@AEBI@std@@@std@@YA$$QEAV?$tuple@AEBI@0@AEAV10@@Z 0000000140001300 f i user_manager.obj
 0001:00000300       ??$forward@AEAPEAU?$_Tree_node@PEAVIMeetingVideoCtrlEvent@ZOOMSDK@@PEAX@std@@@std@@YAAEAPEAU?$_Tree_node@PEAVIMeetingVideoCtrlEvent@ZOOMSDK@@PEAX@0@AEAPEAU10@@Z 0000000140001300 f i sdk_util.obj
 0001:00000300       ?_Get_first@?$_Compressed_pair@V?$allocator@U?$_Tree_node@PEAVIMeetingChatCtrlEvent@ZOOMSDK@@PEAX@std@@@std@@V?$_Tree_val@U?$_Tree_simple_types@PEAVIMeetingChatCtrlEvent@ZOOMSDK@@@std@@@2@$00@std@@QEAAAEAV?$allocator@U?$_Tree_node@PEAVIMeetingChatCtrlEvent@ZOOMSDK@@PEAX@std@@@2@XZ 0000000140001300 f i sdk_util.obj
 0001:00000300       ?_Get_first@?$_Compressed_pair@V?$allocator@U?$_Tree_node@PEAVIClosedCaptionControllerEvent@ZOOMSDK@@PEAX@std@@@std@@V?$_Tree_val@U?$_Tree_simple_types@PEAVIClosedCaptionControllerEvent@ZOOMSDK@@@std@@@2@$00@std@@QEBAAEBV?$allocator@U?$_Tree_node@PEAVIClosedCaptionControllerEvent@ZOOMSDK@@PEAX@std@@@2@XZ 0000000140001300 f i sdk_util.obj
 0001:00000300       ??$forward@U?$pair@HW4bkItemType@@@std@@@std@@YA$$QEAU?$pair@HW4bkItemType@@@0@AEAU10@@Z 0000000140001300 f i settings_ui.obj
 0001:00000300       ??$forward@V?$_Tree_const_iterator@V?$_Tree_val@U?$_Tree_simple_types@PEAVIAuthServiceEvent@ZOOMSDK@@@std@@@std@@@std@@@std@@YA$$QEAV?$_Tree_const_iterator@V?$_Tree_val@U?$_Tree_simple_types@PEAVIAuthServiceEvent@ZOOMSDK@@@std@@@std@@@0@AEAV10@@Z 0000000140001300 f i sdk_util.obj
 0001:00000300       ??$_Voidify_iter@PEAPEAU?$_Tree_node@PEAVIClosedCaptionControllerEvent@ZOOMSDK@@PEAX@std@@@std@@YAPEAXPEAPEAU?$_Tree_node@PEAVIClosedCaptionControllerEvent@ZOOMSDK@@PEAX@0@@Z 0000000140001300 f i sdk_util.obj
 0001:00000300       ??$_Voidify_iter@PEAU?$pair@$$CBIPEAVIUserInfo@ZOOMSDK@@@std@@@std@@YAPEAXPEAU?$pair@$$CBIPEAVIUserInfo@ZOOMSDK@@@0@@Z 0000000140001300 f i user_manager.obj
 0001:00000300       ??$addressof@V?$_List_val@U?$_List_simple_types@H@std@@@std@@@std@@YAPEAV?$_List_val@U?$_List_simple_types@H@std@@@0@AEAV10@@Z 0000000140001300 f i participant_ui.obj
 0001:00000300       ??$addressof@V?$_Tree_val@U?$_Tree_simple_types@U?$pair@$$CBIPEAVIUserInfo@ZOOMSDK@@@std@@@std@@@std@@@std@@YAPEAV?$_Tree_val@U?$_Tree_simple_types@U?$pair@$$CBIPEAVIUserInfo@ZOOMSDK@@@std@@@std@@@0@AEAV10@@Z 0000000140001300 f i user_manager.obj
 0001:00000300       ?GetMarkup@CDialogBuilder@DuiLib@@QEAAPEAVCMarkup@2@XZ 0000000140001300 f i DuiLib64:UIDlgBuilder.obj
 0001:00000300       ??$forward@AEBQEAU?$_Tree_node@PEAVISDKInMeetingServiceMgrEvent@@PEAX@std@@@std@@YAAEBQEAU?$_Tree_node@PEAVISDKInMeetingServiceMgrEvent@@PEAX@0@AEBQEAU10@@Z 0000000140001300 f i sdk_util.obj
 0001:00000300       ??$addressof@V?$_Vector_val@U?$_Simple_types@PEAVIUserInfo@ZOOMSDK@@@std@@@std@@@std@@YAPEAV?$_Vector_val@U?$_Simple_types@PEAVIUserInfo@ZOOMSDK@@@std@@@0@AEAV10@@Z 0000000140001300 f i user_manager.obj
 0001:00000300       ?_Kfn@?$_Tset_traits@PEAVIClosedCaptionControllerEvent@ZOOMSDK@@U?$less@PEAVIClosedCaptionControllerEvent@ZOOMSDK@@@std@@V?$allocator@PEAVIClosedCaptionControllerEvent@ZOOMSDK@@@4@$0A@@std@@SAAEBQEAVIClosedCaptionControllerEvent@ZOOMSDK@@AEBQEAV34@@Z 0000000140001300 f i sdk_util.obj
 0001:00000300       ??0?$allocator@U?$_Tree_node@PEAVISDKInMeetingServiceMgrEvent@@PEAX@std@@@std@@QEAA@XZ 0000000140001300 f i sdk_util.obj
 0001:00000300       ??$forward@V?$_Tree_iterator@V?$_Tree_val@U?$_Tree_simple_types@U?$pair@$$CBIPEAVIUserInfo@ZOOMSDK@@@std@@@std@@@std@@@std@@@std@@YA$$QEAV?$_Tree_iterator@V?$_Tree_val@U?$_Tree_simple_types@U?$pair@$$CBIPEAVIUserInfo@ZOOMSDK@@@std@@@std@@@std@@@0@AEAV10@@Z 0000000140001300 f i user_manager.obj
 0001:00000300       ?_Get_first@?$_Compressed_pair@V?$allocator@U?$_Tree_node@PEAVISDKInMeetingServiceMgrEvent@@PEAX@std@@@std@@V?$_Tree_val@U?$_Tree_simple_types@PEAVISDKInMeetingServiceMgrEvent@@@std@@@2@$00@std@@QEAAAEAV?$allocator@U?$_Tree_node@PEAVISDKInMeetingServiceMgrEvent@@PEAX@std@@@2@XZ 0000000140001300 f i sdk_util.obj
 0001:00000300       ??$forward@V?$_Tree_const_iterator@V?$_Tree_val@U?$_Tree_simple_types@PEAVISDKInMeetingServiceMgrEvent@@@std@@@std@@@std@@@std@@YA$$QEAV?$_Tree_const_iterator@V?$_Tree_val@U?$_Tree_simple_types@PEAVISDKInMeetingServiceMgrEvent@@@std@@@std@@@0@AEAV10@@Z 0000000140001300 f i sdk_util.obj
 0001:00000300       ?_Get_first@?$_Compressed_pair@V?$allocator@V?$basic_string@_WU?$char_traits@_W@std@@V?$allocator@_W@2@@std@@@std@@V?$_Vector_val@U?$_Simple_types@V?$basic_string@_WU?$char_traits@_W@std@@V?$allocator@_W@2@@std@@@std@@@2@$00@std@@QEAAAEAV?$allocator@V?$basic_string@_WU?$char_traits@_W@std@@V?$allocator@_W@2@@std@@@2@XZ 0000000140001300 f i custom_ui_share_flow.obj
 0001:00000300       ??$forward@AEBQEAU?$_Tree_node@U?$pair@$$CBHW4bkItemType@@@std@@PEAX@std@@@std@@YAAEBQEAU?$_Tree_node@U?$pair@$$CBHW4bkItemType@@@std@@PEAX@0@AEBQEAU10@@Z 0000000140001300 f i settings_ui.obj
 0001:00000300       ??0?$allocator@U?$_Tree_node@U?$pair@$$CBHW4bkItemType@@@std@@PEAX@std@@@std@@QEAA@XZ 0000000140001300 f i settings_ui.obj
 0001:00000300       ??$forward@AEBQEAU?$_Tree_node@PEAVIClosedCaptionControllerEvent@ZOOMSDK@@PEAX@std@@@std@@YAAEBQEAU?$_Tree_node@PEAVIClosedCaptionControllerEvent@ZOOMSDK@@PEAX@0@AEBQEAU10@@Z 0000000140001300 f i sdk_util.obj
 0001:00000300       ??$addressof@PEAU?$_Tree_node@PEAVIMeetingServiceEvent@ZOOMSDK@@PEAX@std@@@std@@YAPEAPEAU?$_Tree_node@PEAVIMeetingServiceEvent@ZOOMSDK@@PEAX@0@AEAPEAU10@@Z 0000000140001300 f i sdk_util.obj
 0001:00000300       ??$forward@AEBU?$less@H@std@@@std@@YAAEBU?$less@H@0@AEBU10@@Z 0000000140001300 f i settings_ui.obj
 0001:00000300       ??$addressof@PEAU?$_List_node@HPEAX@std@@@std@@YAPEAPEAU?$_List_node@HPEAX@0@AEAPEAU10@@Z 0000000140001300 f i participant_ui.obj
 0001:00000300       ??$addressof@V?$_Tree_val@U?$_Tree_simple_types@U?$pair@$$CBHW4bkItemType@@@std@@@std@@@std@@@std@@YAPEAV?$_Tree_val@U?$_Tree_simple_types@U?$pair@$$CBHW4bkItemType@@@std@@@std@@@0@AEAV10@@Z 0000000140001300 f i settings_ui.obj
 0001:00000300       ??$forward@AEBU?$less@PEAVIMeetingParticipantsCtrlEvent@ZOOMSDK@@@std@@@std@@YAAEBU?$less@PEAVIMeetingParticipantsCtrlEvent@ZOOMSDK@@@0@AEBU10@@Z 0000000140001300 f i sdk_util.obj
 0001:00000300       ??$addressof@$$CBV?$_Tree_val@U?$_Tree_simple_types@U?$pair@$$CBHW4bkItemType@@@std@@@std@@@std@@@std@@YAPEBV?$_Tree_val@U?$_Tree_simple_types@U?$pair@$$CBHW4bkItemType@@@std@@@std@@@0@AEBV10@@Z 0000000140001300 f i settings_ui.obj
 0001:00000300       ??$move@AEAD@std@@YA$$QEADAEAD@Z 0000000140001300 f i sdk_util.obj
 0001:00000300       ??$_Voidify_iter@PEAPEAU?$_List_node@HPEAX@std@@@std@@YAPEAXPEAPEAU?$_List_node@HPEAX@0@@Z 0000000140001300 f i participant_ui.obj
 0001:00000300       ??$_Get_unwrapped@AEAV?$_Tree_unchecked_const_iterator@V?$_Tree_val@U?$_Tree_simple_types@PEAVIMeetingVideoCtrlEvent@ZOOMSDK@@@std@@@std@@U_Iterator_base0@2@@std@@@std@@YA?A_TAEAV?$_Tree_unchecked_const_iterator@V?$_Tree_val@U?$_Tree_simple_types@PEAVIMeetingVideoCtrlEvent@ZOOMSDK@@@std@@@std@@U_Iterator_base0@2@@0@@Z 0000000140001300 f i sdk_util.obj
 0001:00000300       ??$forward@PEAVIVirtualBGImageInfo@ZOOMSDK@@@std@@YA$$QEAPEAVIVirtualBGImageInfo@ZOOMSDK@@AEAPEAV12@@Z 0000000140001300 f i settings_ui.obj
 0001:00000300       ??$move@AEAPEAVIUserInfo@ZOOMSDK@@@std@@YA$$QEAPEAVIUserInfo@ZOOMSDK@@AEAPEAV12@@Z 0000000140001300 f i user_manager.obj
 0001:00000300       ??$addressof@V?$_Tree_val@U?$_Tree_simple_types@PEAVIAuthServiceEvent@ZOOMSDK@@@std@@@std@@@std@@YAPEAV?$_Tree_val@U?$_Tree_simple_types@PEAVIAuthServiceEvent@ZOOMSDK@@@std@@@0@AEAV10@@Z 0000000140001300 f i sdk_util.obj
 0001:00000300       ?_Extract@?$_In_place_key_extract_set@PEAVIMeetingServiceEvent@ZOOMSDK@@PEAV12@@std@@SAAEBQEAVIMeetingServiceEvent@ZOOMSDK@@AEBQEAV34@@Z 0000000140001300 f i sdk_util.obj
 0001:00000300       ??$forward@AEBU?$less@PEAVIClosedCaptionControllerEvent@ZOOMSDK@@@std@@@std@@YAAEBU?$less@PEAVIClosedCaptionControllerEvent@ZOOMSDK@@@0@AEBU10@@Z 0000000140001300 f i sdk_util.obj
 0001:00000300       ??0?$allocator@PEAVIVirtualBGImageInfo@ZOOMSDK@@@std@@QEAA@XZ 0000000140001300 f i settings_ui.obj
 0001:00000300       ?_Get_first@?$_Compressed_pair@V?$allocator@U?$_Tree_node@PEAVIMeetingVideoCtrlEvent@ZOOMSDK@@PEAX@std@@@std@@V?$_Tree_val@U?$_Tree_simple_types@PEAVIMeetingVideoCtrlEvent@ZOOMSDK@@@std@@@2@$00@std@@QEAAAEAV?$allocator@U?$_Tree_node@PEAVIMeetingVideoCtrlEvent@ZOOMSDK@@PEAX@std@@@2@XZ 0000000140001300 f i sdk_util.obj
 0001:00000300       ??$forward@AEBU?$less@PEAVIAuthServiceEvent@ZOOMSDK@@@std@@@std@@YAAEBU?$less@PEAVIAuthServiceEvent@ZOOMSDK@@@0@AEBU10@@Z 0000000140001300 f i sdk_util.obj
 0001:00000300       ??$addressof@PEAU?$_Tree_node@PEAVIMeetingParticipantsCtrlEvent@ZOOMSDK@@PEAX@std@@@std@@YAPEAPEAU?$_Tree_node@PEAVIMeetingParticipantsCtrlEvent@ZOOMSDK@@PEAX@0@AEAPEAU10@@Z 0000000140001300 f i sdk_util.obj
 0001:00000300       ?_Kfn@?$_Tset_traits@PEAVIMeetingVideoCtrlEvent@ZOOMSDK@@U?$less@PEAVIMeetingVideoCtrlEvent@ZOOMSDK@@@std@@V?$allocator@PEAVIMeetingVideoCtrlEvent@ZOOMSDK@@@4@$0A@@std@@SAAEBQEAVIMeetingVideoCtrlEvent@ZOOMSDK@@AEBQEAV34@@Z 0000000140001300 f i sdk_util.obj
 0001:00000300       ??$_Get_unwrapped@AEAV?$_Tree_unchecked_const_iterator@V?$_Tree_val@U?$_Tree_simple_types@PEAVISDKInMeetingServiceMgrEvent@@@std@@@std@@U_Iterator_base0@2@@std@@@std@@YA?A_TAEAV?$_Tree_unchecked_const_iterator@V?$_Tree_val@U?$_Tree_simple_types@PEAVISDKInMeetingServiceMgrEvent@@@std@@@std@@U_Iterator_base0@2@@0@@Z 0000000140001300 f i sdk_util.obj
 0001:00000300       ??$forward@PEAU?$_Tree_node@PEAVIMeetingParticipantsCtrlEvent@ZOOMSDK@@PEAX@std@@@std@@YA$$QEAPEAU?$_Tree_node@PEAVIMeetingParticipantsCtrlEvent@ZOOMSDK@@PEAX@0@AEAPEAU10@@Z 0000000140001300 f i sdk_util.obj
 0001:00000300       ??0?$allocator@U?$_Tree_node@PEAVIMeetingParticipantsCtrlEvent@ZOOMSDK@@PEAX@std@@@std@@QEAA@XZ 0000000140001300 f i sdk_util.obj
 0001:00000300       ??0?$allocator@U?$_Tree_node@PEAVIMeetingVideoCtrlEvent@ZOOMSDK@@PEAX@std@@@std@@QEAA@XZ 0000000140001300 f i sdk_util.obj
 0001:00000300       ??$_Voidify_iter@PEAU?$pair@$$CBHW4bkItemType@@@std@@@std@@YAPEAXPEAU?$pair@$$CBHW4bkItemType@@@0@@Z 0000000140001300 f i settings_ui.obj
 0001:00000300       ??$forward@AEAPEAU?$_Tree_node@PEAVIClosedCaptionControllerEvent@ZOOMSDK@@PEAX@std@@@std@@YAAEAPEAU?$_Tree_node@PEAVIClosedCaptionControllerEvent@ZOOMSDK@@PEAX@0@AEAPEAU10@@Z 0000000140001300 f i sdk_util.obj
 0001:00000300       ??$move@AEAH@std@@YA$$QEAHAEAH@Z 0000000140001300 f i participant_ui.obj
 0001:00000300       ??$forward@AEBQEAVIMeetingServiceEvent@ZOOMSDK@@@std@@YAAEBQEAVIMeetingServiceEvent@ZOOMSDK@@AEBQEAV12@@Z 0000000140001300 f i sdk_util.obj
 0001:00000300       ??$move@AEAV?$basic_string@_WU?$char_traits@_W@std@@V?$allocator@_W@2@@std@@@std@@YA$$QEAV?$basic_string@_WU?$char_traits@_W@std@@V?$allocator@_W@2@@0@AEAV10@@Z 0000000140001300 f i chat_controller_ui.obj
 0001:00000300       ??0?$allocator@U?$_Tree_node@PEAVIMeetingServiceEvent@ZOOMSDK@@PEAX@std@@@std@@QEAA@XZ 0000000140001300 f i sdk_util.obj
 0001:00000300       ??$_Unfancy@PEAVIUserInfo@ZOOMSDK@@@std@@YAPEAPEAVIUserInfo@ZOOMSDK@@PEAPEAV12@@Z 0000000140001300 f i user_manager.obj
 0001:00000300       ??$forward@AEBQEA_W@std@@YAAEBQEA_WAEBQEA_W@Z 0000000140001300 f i AnnotateBarWindow.obj
 0001:00000300       ??$forward@AEBQEAU?$_Tree_node@PEAVIMeetingChatCtrlEvent@ZOOMSDK@@PEAX@std@@@std@@YAAEBQEAU?$_Tree_node@PEAVIMeetingChatCtrlEvent@ZOOMSDK@@PEAX@0@AEBQEAU10@@Z 0000000140001300 f i sdk_util.obj
 0001:00000300       ?_Get_first@?$_Compressed_pair@U?$less@PEAVIClosedCaptionControllerEvent@ZOOMSDK@@@std@@V?$_Compressed_pair@V?$allocator@U?$_Tree_node@PEAVIClosedCaptionControllerEvent@ZOOMSDK@@PEAX@std@@@std@@V?$_Tree_val@U?$_Tree_simple_types@PEAVIClosedCaptionControllerEvent@ZOOMSDK@@@std@@@2@$00@2@$00@std@@QEBAAEBU?$less@PEAVIClosedCaptionControllerEvent@ZOOMSDK@@@2@XZ 0000000140001300 f i sdk_util.obj
 0001:00000300       ??$forward@AEBU?$less@PEAVISDKInMeetingServiceMgrEvent@@@std@@@std@@YAAEBU?$less@PEAVISDKInMeetingServiceMgrEvent@@@0@AEBU10@@Z 0000000140001300 f i sdk_util.obj
 0001:00000300       ??$addressof@$$CBV?$_Tree_val@U?$_Tree_simple_types@PEAVIAuthServiceEvent@ZOOMSDK@@@std@@@std@@@std@@YAPEBV?$_Tree_val@U?$_Tree_simple_types@PEAVIAuthServiceEvent@ZOOMSDK@@@std@@@0@AEBV10@@Z 0000000140001300 f i sdk_util.obj
 0001:00000300       ??$_Voidify_iter@PEAPEAVIMeetingParticipantsCtrlEvent@ZOOMSDK@@@std@@YAPEAXPEAPEAVIMeetingParticipantsCtrlEvent@ZOOMSDK@@@Z 0000000140001300 f i sdk_util.obj
 0001:00000300       ??$forward@AEBQEAVIMeetingVideoCtrlEvent@ZOOMSDK@@@std@@YAAEBQEAVIMeetingVideoCtrlEvent@ZOOMSDK@@AEBQEAV12@@Z 0000000140001300 f i sdk_util.obj
 0001:00000300       ??$_Get_unwrapped@AEAV?$_Tree_unchecked_const_iterator@V?$_Tree_val@U?$_Tree_simple_types@PEAVIAuthServiceEvent@ZOOMSDK@@@std@@@std@@U_Iterator_base0@2@@std@@@std@@YA?A_TAEAV?$_Tree_unchecked_const_iterator@V?$_Tree_val@U?$_Tree_simple_types@PEAVIAuthServiceEvent@ZOOMSDK@@@std@@@std@@U_Iterator_base0@2@@0@@Z 0000000140001300 f i sdk_util.obj
 0001:00000300       ?_Get_first@?$_Compressed_pair@V?$allocator@U?$_Tree_node@PEAVIMeetingParticipantsCtrlEvent@ZOOMSDK@@PEAX@std@@@std@@V?$_Tree_val@U?$_Tree_simple_types@PEAVIMeetingParticipantsCtrlEvent@ZOOMSDK@@@std@@@2@$00@std@@QEBAAEBV?$allocator@U?$_Tree_node@PEAVIMeetingParticipantsCtrlEvent@ZOOMSDK@@PEAX@std@@@2@XZ 0000000140001300 f i sdk_util.obj
 0001:00000300       ??$forward@AEBU?$less@PEAVIMeetingChatCtrlEvent@ZOOMSDK@@@std@@@std@@YAAEBU?$less@PEAVIMeetingChatCtrlEvent@ZOOMSDK@@@0@AEBU10@@Z 0000000140001300 f i sdk_util.obj
 0001:00000300       ??$_Voidify_iter@PEAPEAU?$_Tree_node@U?$pair@$$CBIPEAVIUserInfo@ZOOMSDK@@@std@@PEAX@std@@@std@@YAPEAXPEAPEAU?$_Tree_node@U?$pair@$$CBIPEAVIUserInfo@ZOOMSDK@@@std@@PEAX@0@@Z 0000000140001300 f i user_manager.obj
 0001:00000300       ??$forward@AEAV?$allocator@_W@std@@@std@@YAAEAV?$allocator@_W@0@AEAV10@@Z 0000000140001300 f i chat_controller_ui.obj
 0001:00000300       ??$forward@PEAU?$_Tree_node@PEAVISDKInMeetingServiceMgrEvent@@PEAX@std@@@std@@YA$$QEAPEAU?$_Tree_node@PEAVISDKInMeetingServiceMgrEvent@@PEAX@0@AEAPEAU10@@Z 0000000140001300 f i sdk_util.obj
 0001:00000300       ?_Get_first@?$_Compressed_pair@V?$allocator@PEAVIUserInfo@ZOOMSDK@@@std@@V?$_Vector_val@U?$_Simple_types@PEAVIUserInfo@ZOOMSDK@@@std@@@2@$00@std@@QEBAAEBV?$allocator@PEAVIUserInfo@ZOOMSDK@@@2@XZ 0000000140001300 f i user_manager.obj
 0001:00000300       ??$_Get_unwrapped@AEAV?$_Tree_unchecked_const_iterator@V?$_Tree_val@U?$_Tree_simple_types@PEAVIMeetingParticipantsCtrlEvent@ZOOMSDK@@@std@@@std@@U_Iterator_base0@2@@std@@@std@@YA?A_TAEAV?$_Tree_unchecked_const_iterator@V?$_Tree_val@U?$_Tree_simple_types@PEAVIMeetingParticipantsCtrlEvent@ZOOMSDK@@@std@@@std@@U_Iterator_base0@2@@0@@Z 0000000140001300 f i sdk_util.obj
 0001:00000300       ??$forward@PEAU?$_Tree_node@U?$pair@$$CBHW4bkItemType@@@std@@PEAX@std@@@std@@YA$$QEAPEAU?$_Tree_node@U?$pair@$$CBHW4bkItemType@@@std@@PEAX@0@AEAPEAU10@@Z 0000000140001300 f i settings_ui.obj
 0001:00000300       ??$forward@AEB_N@std@@YAAEB_NAEB_N@Z 0000000140001300 f i sdk_util.obj
 0001:00000300       ??$forward@V?$_Tree_const_iterator@V?$_Tree_val@U?$_Tree_simple_types@PEAVIMeetingParticipantsCtrlEvent@ZOOMSDK@@@std@@@std@@@std@@@std@@YA$$QEAV?$_Tree_const_iterator@V?$_Tree_val@U?$_Tree_simple_types@PEAVIMeetingParticipantsCtrlEvent@ZOOMSDK@@@std@@@std@@@0@AEAV10@@Z 0000000140001300 f i sdk_util.obj
 0001:00000300       ?_Get_first@?$_Compressed_pair@V?$allocator@U?$_Tree_node@PEAVIMeetingServiceEvent@ZOOMSDK@@PEAX@std@@@std@@V?$_Tree_val@U?$_Tree_simple_types@PEAVIMeetingServiceEvent@ZOOMSDK@@@std@@@2@$00@std@@QEBAAEBV?$allocator@U?$_Tree_node@PEAVIMeetingServiceEvent@ZOOMSDK@@PEAX@std@@@2@XZ 0000000140001300 f i sdk_util.obj
 0001:00000300       ??$forward@AEBQEAVISDKInMeetingServiceMgrEvent@@@std@@YAAEBQEAVISDKInMeetingServiceMgrEvent@@AEBQEAV1@@Z 0000000140001300 f i sdk_util.obj
 0001:00000300       ??$addressof@V?$_Tree_val@U?$_Tree_simple_types@PEAVIMeetingParticipantsCtrlEvent@ZOOMSDK@@@std@@@std@@@std@@YAPEAV?$_Tree_val@U?$_Tree_simple_types@PEAVIMeetingParticipantsCtrlEvent@ZOOMSDK@@@std@@@0@AEAV10@@Z 0000000140001300 f i sdk_util.obj
 0001:00000300       ??$_Voidify_iter@PEAPEAU?$_Tree_node@PEAVIMeetingParticipantsCtrlEvent@ZOOMSDK@@PEAX@std@@@std@@YAPEAXPEAPEAU?$_Tree_node@PEAVIMeetingParticipantsCtrlEvent@ZOOMSDK@@PEAX@0@@Z 0000000140001300 f i sdk_util.obj
 0001:00000300       ??$_Voidify_iter@PEAH@std@@YAPEAXPEAH@Z 0000000140001300 f i participant_ui.obj
 0001:00000300       ?_Get_first@?$_Compressed_pair@V?$allocator@U?$_Tree_node@U?$pair@$$CBHW4bkItemType@@@std@@PEAX@std@@@std@@V?$_Tree_val@U?$_Tree_simple_types@U?$pair@$$CBHW4bkItemType@@@std@@@std@@@2@$00@std@@QEBAAEBV?$allocator@U?$_Tree_node@U?$pair@$$CBHW4bkItemType@@@std@@PEAX@std@@@2@XZ 0000000140001300 f i settings_ui.obj
 0001:00000300       ?_Get_first@?$_Compressed_pair@V?$allocator@U?$_Tree_node@PEAVIAuthServiceEvent@ZOOMSDK@@PEAX@std@@@std@@V?$_Tree_val@U?$_Tree_simple_types@PEAVIAuthServiceEvent@ZOOMSDK@@@std@@@2@$00@std@@QEBAAEBV?$allocator@U?$_Tree_node@PEAVIAuthServiceEvent@ZOOMSDK@@PEAX@std@@@2@XZ 0000000140001300 f i sdk_util.obj
 0001:00000300       ??0?$allocator@PEAVIUserInfo@ZOOMSDK@@@std@@QEAA@XZ 0000000140001300 f i user_manager.obj
 0001:00000300       ?_Get_first@?$_Compressed_pair@V?$allocator@U?$_Tree_node@PEAVIClosedCaptionControllerEvent@ZOOMSDK@@PEAX@std@@@std@@V?$_Tree_val@U?$_Tree_simple_types@PEAVIClosedCaptionControllerEvent@ZOOMSDK@@@std@@@2@$00@std@@QEAAAEAV?$allocator@U?$_Tree_node@PEAVIClosedCaptionControllerEvent@ZOOMSDK@@PEAX@std@@@2@XZ 0000000140001300 f i sdk_util.obj
 0001:00000310       ??$_Deallocate@$0BA@$0A@@std@@YAXPEAX_K@Z 0000000140001310 f i AnnotateBarWindow.obj
 0001:00000350       ??$_Destroy_in_place@PEAU?$_Tree_node@PEAVIMeetingServiceEvent@ZOOMSDK@@PEAX@std@@@std@@YAXAEAPEAU?$_Tree_node@PEAVIMeetingServiceEvent@ZOOMSDK@@PEAX@0@@Z 0000000140001350 f i sdk_util.obj
 0001:00000350       ?onZoomInviteDialogFailed@CSDKCustomUIWorkFlow@@UEAAXXZ 0000000140001350 f i custom_ui_mgr_flow.obj
 0001:00000350       ?onVBImageDidDownloaded@CSDKVirtualBGSettingsUIGroup@@UEAAXXZ 0000000140001350 f i settings_ui.obj
 0001:00000350       ?Cleanup@CSDKJoinMeetingForLoginUserFlow@@QEAAXXZ 0000000140001350 f i Join_meeting_for_login_user_ui.obj
 0001:00000350       ?onZoomIdentityExpired@CSDKLoginCBHandler@@UEAAXXZ 0000000140001350 f i LOGIN_sdk_login_UI.obj
 0001:00000350       ?onFreeMeetingUpgradeToProMeeting@CSDKCustomUIWorkFlow@@UEAAXXZ 0000000140001350 f i custom_ui_mgr_flow.obj
 0001:00000350       ??$_Destroy_in_place@PEAU?$_Tree_node@PEAVIMeetingVideoCtrlEvent@ZOOMSDK@@PEAX@std@@@std@@YAXAEAPEAU?$_Tree_node@PEAVIMeetingVideoCtrlEvent@ZOOMSDK@@PEAX@0@@Z 0000000140001350 f i sdk_util.obj
 0001:00000350       ?OnNoVideoDeviceIsUseful@CSDKCustomUIWorkFlow@@UEAAXXZ 0000000140001350 f i custom_ui_mgr_flow.obj
 0001:00000350       ?OnNoVideoDeviceIsUseful@CSDKVirtualBGSettingsWorkFlow@@UEAAXXZ 0000000140001350 f i SETTINGS_virtualBG_workflow.obj
 0001:00000350       ?DoInit@CComboUI@DuiLib@@UEAAXXZ 0000000140001350 f i DuiLib64:UICombo.obj
 0001:00000350       ??$_Destroy_in_place@PEAU?$_Tree_node@PEAVIMeetingChatCtrlEvent@ZOOMSDK@@PEAX@std@@@std@@YAXAEAPEAU?$_Tree_node@PEAVIMeetingChatCtrlEvent@ZOOMSDK@@PEAX@0@@Z 0000000140001350 f i sdk_util.obj
 0001:00000350       ?onSelectedVBImageChanged@CSDKVirtualBGSettingsUIGroup@@UEAAXXZ 0000000140001350 f i settings_ui.obj
 0001:00000350       ?onFreeMeetingUpgradeToGiftFreeTrialStart@CSDKCustomUIWorkFlow@@UEAAXXZ 0000000140001350 f i custom_ui_mgr_flow.obj
 0001:00000350       ?_Orphan_all@_Container_base0@std@@QEAAXXZ 0000000140001350 f i AnnotateBarWindow.obj
 0001:00000350       ?onZoomIdentityExpired@CAuthSDKWorkFlow@@UEAAXXZ 0000000140001350 f i init_auth_sdk_workflow.obj
 0001:00000350       ?Cleanup@CSDKRecordingSettingsWorkFlow@@QEAAXXZ 0000000140001350 f i settings_ui.obj
 0001:00000350       ?onInvalidReclaimHostkey@CMoreFeaturesUIMgr@@UEAAXXZ 0000000140001350 f i more_features_ui.obj
 0001:00000350       ?onLogout@CSDKWithoutLoginStartJoinMeetingFlow@@UEAAXXZ 0000000140001350 f i LOGIN_join_meeting_only_workflow.obj
 0001:00000350       ?onCCBTNClicked@CSDKCustomUIWorkFlow@@UEAAXXZ 0000000140001350 f i custom_ui_mgr_flow.obj
 0001:00000350       ?onZoomAuthIdentityExpired@CSDKLoginCBHandler@@UEAAXXZ 0000000140001350 f i LOGIN_sdk_login_UI.obj
 0001:00000350       ?DoInit@CControlUI@DuiLib@@UEAAXXZ 0000000140001350 f i DuiLib64:UIControl.obj
 0001:00000350       ??$_Destroy_in_place@PEAU?$_Tree_node@PEAVIAuthServiceEvent@ZOOMSDK@@PEAX@std@@@std@@YAXAEAPEAU?$_Tree_node@PEAVIAuthServiceEvent@ZOOMSDK@@PEAX@0@@Z 0000000140001350 f i sdk_util.obj
 0001:00000350       ?Cleanup@CAuthSDKWorkFlow@@QEAAXXZ 0000000140001350 f i sdk_init_auth_ui.obj
 0001:00000350       ??1CMoreFeaturesWorkflow@@QEAA@XZ 0000000140001350 f i more_features_workflow.obj
 0001:00000350       ?OnSelectedAudioDeviceIsChanged@CSDKCustomUIWorkFlow@@UEAAXXZ 0000000140001350 f i custom_ui_mgr_flow.obj
 0001:00000350       ?onAudioMenuBtnClicked@CSDKCustomUIWorkFlow@@UEAAXXZ 0000000140001350 f i custom_ui_mgr_flow.obj
 0001:00000350       ?Cleanup@CSDKUICustomSettingsWorkFlow@@QEAAXXZ 0000000140001350 f i settings_ui.obj
 0001:00000350       ?onAllHandsLowered@SDKInterfaceWrap@@UEAAXXZ 0000000140001350 f i sdk_util.obj
 0001:00000350       ??$_Destroy_in_place@PEAU?$_Tree_node@PEAVIMeetingParticipantsCtrlEvent@ZOOMSDK@@PEAX@std@@@std@@YAXAEAPEAU?$_Tree_node@PEAVIMeetingParticipantsCtrlEvent@ZOOMSDK@@PEAX@0@@Z 0000000140001350 f i sdk_util.obj
 0001:00000350       ?Cleanup@CSDKLoginWithSSOFlow@@QEAAXXZ 0000000140001350 f i LOGIN_sdk_login_UI.obj
 0001:00000350       ?onParticipantListBtnClicked@CSDKCustomUIWorkFlow@@UEAAXXZ 0000000140001350 f i custom_ui_mgr_flow.obj
 0001:00000350       ?onInvalidReclaimHostkey@CSDKCustomUIWorkFlow@@UEAAXXZ 0000000140001350 f i custom_ui_mgr_flow.obj
 0001:00000350       ??$_Destroy_in_place@PEAU?$_Tree_node@PEAVIClosedCaptionControllerEvent@ZOOMSDK@@PEAX@std@@@std@@YAXAEAPEAU?$_Tree_node@PEAVIClosedCaptionControllerEvent@ZOOMSDK@@PEAX@0@@Z 0000000140001350 f i sdk_util.obj
 0001:00000350       ?onCustomLiveStreamMenuClicked@CSDKCustomUIWorkFlow@@UEAAXXZ 0000000140001350 f i custom_ui_mgr_flow.obj
 0001:00000350       ?onFreeMeetingUpgradeToGiftFreeTrialStop@CSDKCustomUIWorkFlow@@UEAAXXZ 0000000140001350 f i custom_ui_mgr_flow.obj
 0001:00000350       ??1CComCriticalSection@ATL@@QEAA@XZ 0000000140001350 f i AnnotateBarWindow.obj
 0001:00000350       ?Cleanup@CSDKGeneralSettingsWorkFlow@@QEAAXXZ 0000000140001350 f i settings_ui.obj
 0001:00000350       ?onBreakoutRoomBtnClicked@CSDKCustomUIWorkFlow@@UEAAXXZ 0000000140001350 f i custom_ui_mgr_flow.obj
 0001:00000350       ?onEndMeetingBtnClicked@CSDKCustomUIWorkFlow@@UEAAXXZ 0000000140001350 f i custom_ui_mgr_flow.obj
 0001:00000350       ?DoStopDirectShareBtnClick@CSDKLoggedInUIMgr@@IEAAXXZ 0000000140001350 f i LoggedIn_sdk_controller_ui.obj
 0001:00000350       ?onSharingContentStartRecving@CCustomizeInMeetingUIMgr@@UEAAXXZ 0000000140001350 f i custom_ui_mgr.obj
 0001:00000350       ?OnSelectedVideoDeviceIsChanged@CSDKVirtualBGSettingsWorkFlow@@UEAAXXZ 0000000140001350 f i SETTINGS_virtualBG_workflow.obj
 0001:00000350       ?CleanUp@CSDKFeatureCustomSettingsWorkFlow@@QEAAXXZ 0000000140001350 f i settings_ui.obj
 0001:00000350       ?onZoomAuthIdentityExpired@CSDKWithoutLoginStartJoinMeetingFlow@@UEAAXXZ 0000000140001350 f i LOGIN_join_meeting_only_workflow.obj
 0001:00000350       ?_Release@_Fake_proxy_ptr_impl@std@@QEAAXXZ 0000000140001350 f i AnnotateBarWindow.obj
 0001:00000350       ?onZoomAuthIdentityExpired@CAuthSDKWorkFlow@@UEAAXXZ 0000000140001350 f i init_auth_sdk_workflow.obj
 0001:00000350       ?OnNoWindowToShowPreview@CSDKVirtualBGSettingsWorkFlow@@UEAAXXZ 0000000140001350 f i SETTINGS_virtualBG_workflow.obj
 0001:00000350       ??$_Destroy_in_place@PEAU?$_Tree_node@PEAVISDKInMeetingServiceMgrEvent@@PEAX@std@@@std@@YAXAEAPEAU?$_Tree_node@PEAVISDKInMeetingServiceMgrEvent@@PEAX@0@@Z 0000000140001350 f i sdk_util.obj
 0001:00000350       ??$_Destroy_in_place@PEA_W@std@@YAXAEAPEA_W@Z 0000000140001350 f i AnnotateBarWindow.obj
 0001:00000350       ?CustomizeDemoResource@CInitSDKWorkFlow@@QEAAXXZ 0000000140001350 f i init_auth_sdk_workflow.obj
 0001:00000350       ??$_Destroy_in_place@PEAU?$_Tree_node@U?$pair@$$CBIPEAVIUserInfo@ZOOMSDK@@@std@@PEAX@std@@@std@@YAXAEAPEAU?$_Tree_node@U?$pair@$$CBIPEAVIUserInfo@ZOOMSDK@@@std@@PEAX@0@@Z 0000000140001350 f i user_manager.obj
 0001:00000350       ?onStartShareBtnClicked@CSDKCustomUIWorkFlow@@UEAAXXZ 0000000140001350 f i custom_ui_mgr_flow.obj
 0001:00000350       ?onLogout@CAuthSDKWorkFlow@@UEAAXXZ 0000000140001350 f i init_auth_sdk_workflow.obj
 0001:00000350       ?onAllHandsLowered@CMoreFeaturesUIMgr@@UEAAXXZ 0000000140001350 f i more_features_ui.obj
 0001:00000350       ?onAllHandsLowered@CSDKCustomUIWorkFlow@@UEAAXXZ 0000000140001350 f i custom_ui_mgr_flow.obj
 0001:00000350       ?Cleanup@CSDKVideoSettingsWorkFlow@@QEAAXXZ 0000000140001350 f i settings_ui.obj
 0001:00000350       ?OnSelectedVideoDeviceIsChanged@CSDKCustomUIWorkFlow@@UEAAXXZ 0000000140001350 f i custom_ui_mgr_flow.obj
 0001:00000350       ??$_Destroy_in_place@PEAU?$_List_node@HPEAX@std@@@std@@YAXAEAPEAU?$_List_node@HPEAX@0@@Z 0000000140001350 f i participant_ui.obj
 0001:00000350       ??1_Bxty@?$_String_val@U?$_Simple_types@_W@std@@@std@@QEAA@XZ 0000000140001350 f i AnnotateBarWindow.obj
 0001:00000350       ?OnNoWindowToShowPreview@CSDKCustomUIWorkFlow@@UEAAXXZ 0000000140001350 f i custom_ui_mgr_flow.obj
 0001:00000350       ?Cleanup@CSDKAudioSettingsWorkFlow@@QEAAXXZ 0000000140001350 f i settings_ui.obj
 0001:00000350       ?onZoomIdentityExpired@CSDKWithoutLoginStartJoinMeetingFlow@@UEAAXXZ 0000000140001350 f i LOGIN_join_meeting_only_workflow.obj
 0001:00000350       ?onFreeMeetingRemainTimeStopCountDown@CSDKCustomUIWorkFlow@@UEAAXXZ 0000000140001350 f i custom_ui_mgr_flow.obj
 0001:00000350       ?onInvalidReclaimHostkey@SDKInterfaceWrap@@UEAAXXZ 0000000140001350 f i sdk_util.obj
 0001:00000350       ?OnAcceptRemoteControlDisclaimer@CSDKCustomUIWorkFlow@@UEAAXXZ 0000000140001350 f i custom_ui_mgr_flow.obj
 0001:00000350       ?onLogout@CSDKLoginCBHandler@@UEAAXXZ 0000000140001350 f i LOGIN_sdk_login_UI.obj
 0001:00000350       ??$_Destroy_in_place@PEAU?$_Tree_node@U?$pair@$$CBHW4bkItemType@@@std@@PEAX@std@@@std@@YAXAEAPEAU?$_Tree_node@U?$pair@$$CBHW4bkItemType@@@std@@PEAX@0@@Z 0000000140001350 f i settings_ui.obj
 0001:00000360       ??$_Get_size_of_n@$01@std@@YA_K_K@Z 0000000140001360 f i AnnotateBarWindow.obj
 0001:000003a0       ??$_Reallocate_for@V<lambda_3fa8b2c8193a0f3144fc4b1b8f243931>@@PEB_W@?$basic_string@_WU?$char_traits@_W@std@@V?$allocator@_W@2@@std@@AEAAAEAV01@_KV<lambda_3fa8b2c8193a0f3144fc4b1b8f243931>@@PEB_W@Z 00000001400013a0 f i AnnotateBarWindow.obj
 0001:000004c0       ??$_Traits_equal@U?$char_traits@_W@std@@@std@@YA_NQEB_W_K01@Z 00000001400014c0 f i AnnotateBarWindow.obj
 0001:00000520       ??$max@_K@std@@YAAEB_KAEB_K0@Z 0000000140001520 f i AnnotateBarWindow.obj
 0001:00000570       ??$min@_K@std@@YAAEB_KAEB_K0@Z 0000000140001570 f i AnnotateBarWindow.obj
 0001:000005c0       ??0?$_String_val@U?$_Simple_types@_W@std@@@std@@QEAA@XZ 00000001400015c0 f i AnnotateBarWindow.obj
 0001:00000600       ??0?$basic_string@_WU?$char_traits@_W@std@@V?$allocator@_W@2@@std@@QEAA@QEB_W@Z 0000000140001600 f i AnnotateBarWindow.obj
 0001:00000680       ??0AnnotateBarWindow@@QEAA@PEAVICustomizedShareRender@ZOOMSDK@@@Z 0000000140001680 f   AnnotateBarWindow.obj
 0001:00000840       ??0CComCriticalSection@ATL@@QEAA@XZ 0000000140001840 f i AnnotateBarWindow.obj
 0001:00000860       ??0INotifyUI@DuiLib@@QEAA@XZ 0000000140001860 f i AnnotateBarWindow.obj
 0001:00000880       ??0_Bxty@?$_String_val@U?$_Simple_types@_W@std@@@std@@QEAA@XZ 0000000140001880 f i AnnotateBarWindow.obj
 0001:00000880       ??0tagAuthContext@ZOOMSDK@@QEAA@XZ 0000000140001880 f i sdk_init_auth_ui.obj
 0001:000008a0       ??0_Fake_proxy_ptr_impl@std@@QEAA@AEBU_Fake_allocator@1@AEBU_Container_base0@1@@Z 00000001400018a0 f i AnnotateBarWindow.obj
 0001:000008c0       ??0bad_alloc@std@@AEAA@QEBD@Z 00000001400018c0 f i AnnotateBarWindow.obj
 0001:00000900       ??0bad_alloc@std@@QEAA@AEBV01@@Z 0000000140001900 f i AnnotateBarWindow.obj
 0001:00000940       ??0bad_array_new_length@std@@QEAA@AEBV01@@Z 0000000140001940 f i AnnotateBarWindow.obj
 0001:00000980       ??0bad_array_new_length@std@@QEAA@XZ 0000000140001980 f i AnnotateBarWindow.obj
 0001:000009c0       ??0exception@std@@QEAA@AEBV01@@Z 00000001400019c0 f i AnnotateBarWindow.obj
 0001:00000a20       ??0exception@std@@QEAA@QEBDH@Z 0000000140001a20 f i AnnotateBarWindow.obj
 0001:00000a70       ??1?$_Compressed_pair@V?$allocator@_W@std@@V?$_String_val@U?$_Simple_types@_W@std@@@2@$00@std@@QEAA@XZ 0000000140001a70 f i AnnotateBarWindow.obj
 0001:00000a90       ??1?$_String_val@U?$_Simple_types@_W@std@@@std@@QEAA@XZ 0000000140001a90 f i AnnotateBarWindow.obj
 0001:00000ab0       ??1?$basic_string@_WU?$char_traits@_W@std@@V?$allocator@_W@2@@std@@QEAA@XZ 0000000140001ab0 f i AnnotateBarWindow.obj
 0001:00000ae0       ??1AnnotateBarWindow@@QEAA@XZ 0000000140001ae0 f   AnnotateBarWindow.obj
 0001:00000d90       ??1CDialogBuilder@DuiLib@@QEAA@XZ 0000000140001d90 f i AnnotateBarWindow.obj
 0001:00000db0       ??1bad_alloc@std@@UEAA@XZ  0000000140001db0 f i AnnotateBarWindow.obj
 0001:00000dd0       ??1bad_array_new_length@std@@UEAA@XZ 0000000140001dd0 f i AnnotateBarWindow.obj
 0001:00000df0       ??1exception@std@@UEAA@XZ  0000000140001df0 f i AnnotateBarWindow.obj
 0001:00000e20       ??2@YAPEAX_KPEAX@Z         0000000140001e20 f i AnnotateBarWindow.obj
 0001:00000e30       ??R<lambda_3fa8b2c8193a0f3144fc4b1b8f243931>@@QEBA@QEA_W_KQEB_W@Z 0000000140001e30 f i AnnotateBarWindow.obj
 0001:00000e90       ??_GAnnotateClearWindow@@QEAAPEAXI@Z 0000000140001e90 f i AnnotateBarWindow.obj
 0001:00000ed0       ??_GAnnotateDrawWindow@@QEAAPEAXI@Z 0000000140001ed0 f i AnnotateBarWindow.obj
 0001:00000f10       ??_GAnnotateFormatWindow@@QEAAPEAXI@Z 0000000140001f10 f i AnnotateBarWindow.obj
 0001:00000f50       ??_GAnnotateSpolightWindow@@QEAAPEAXI@Z 0000000140001f50 f i AnnotateBarWindow.obj
 0001:00000f90       ??_GAnnotateStampWindow@@QEAAPEAXI@Z 0000000140001f90 f i AnnotateBarWindow.obj
 0001:00000fd0       ??_Ebad_alloc@std@@UEAAPEAXI@Z 0000000140001fd0 f i AnnotateBarWindow.obj
 0001:00000fd0       ??_Gbad_alloc@std@@UEAAPEAXI@Z 0000000140001fd0 f i AnnotateBarWindow.obj
 0001:00001010       ??_Gbad_array_new_length@std@@UEAAPEAXI@Z 0000000140002010 f i AnnotateBarWindow.obj
 0001:00001010       ??_Ebad_array_new_length@std@@UEAAPEAXI@Z 0000000140002010 f i AnnotateBarWindow.obj
 0001:00001050       ??_Eexception@std@@UEAAPEAXI@Z 0000000140002050 f i AnnotateBarWindow.obj
 0001:00001050       ??_Gexception@std@@UEAAPEAXI@Z 0000000140002050 f i AnnotateBarWindow.obj
 0001:00001090       ?GetClassStyle@CSDKMeetingChatUIMgr@@UEBAIXZ 0000000140002090 f i chat_controller_ui.obj
 0001:00001090       ?GetClassStyle@AnnotateFormatWindow@@UEBAIXZ 0000000140002090 f i AnnotateFormatWindow.obj
 0001:00001090       ?GetClassStyle@AnnotateDrawWindow@@UEBAIXZ 0000000140002090 f i AnnotateDrawWindow.obj
 0001:00001090       ?GetClassStyle@AnnotateClearWindow@@UEBAIXZ 0000000140002090 f i AnnotateClearWindow.obj
 0001:00001090       ?GetClassStyle@CameraControlWindow@@UEBAIXZ 0000000140002090 f i CameraControlWindow.obj
 0001:00001090       ?GetClassStyle@AnnotateSpolightWindow@@UEBAIXZ 0000000140002090 f i AnnotateSpolightWindow.obj
 0001:00001090       ?GetClassStyle@CSDKLoginUIMgr@@UEBAIXZ 0000000140002090 f i LOGIN_sdk_login_UI.obj
 0001:00001090       ?GetClassStyle@CSDKSettingsUIMgr@@UEBAIXZ 0000000140002090 f i settings_ui.obj
 0001:00001090       ?GetClassStyle@CSDKInitAuthUIMgr@@UEBAIXZ 0000000140002090 f i sdk_init_auth_ui.obj
 0001:00001090       ?GetClassStyle@CCloseCaptionUIMgr@@UEBAIXZ 0000000140002090 f i close_caption_ui.obj
 0001:00001090       ?GetClassStyle@ViewOptionsWindow@@UEBAIXZ 0000000140002090 f i ViewOptionsWindow.obj
 0001:00001090       ?GetClassStyle@CSDKLoggedInUIMgr@@UEBAIXZ 0000000140002090 f i LoggedIn_sdk_controller_ui.obj
 0001:00001090       ?GetClassStyle@CInvitationUIMgr@@UEBAIXZ 0000000140002090 f i invitation_ui.obj
 0001:00001090       ?GetClassStyle@AnnotateStampWindow@@UEBAIXZ 0000000140002090 f i AnnotateStampWindow.obj
 0001:00001090       ?GetClassStyle@CSDKJoinMeetingForLoginUserUIMgr@@UEBAIXZ 0000000140002090 f i Join_meeting_for_login_user_ui.obj
 0001:00001090       ?GetClassStyle@ShareToolbarWindow@@UEBAIXZ 0000000140002090 f i ShareToolbarWindow.obj
 0001:00001090       ?GetClassStyle@AnnotateBarWindow@@UEBAIXZ 0000000140002090 f i AnnotateBarWindow.obj
 0001:000010a0       ?GetSkinRes@AnnotateBarWindow@@UEAAIXZ 00000001400020a0 f i AnnotateBarWindow.obj
 0001:000010b0       ?GetWindowClassName@AnnotateStampWindow@@UEBAPEB_WXZ 00000001400020b0 f i AnnotateStampWindow.obj
 0001:000010b0       ?GetWindowClassName@AnnotateSpolightWindow@@UEBAPEB_WXZ 00000001400020b0 f i AnnotateSpolightWindow.obj
 0001:000010b0       ?GetWindowClassName@CUtilWnd@@UEBAPEB_WXZ 00000001400020b0 f i util_window.obj
 0001:000010b0       ?GetWindowClassName@ViewOptionsWindow@@UEBAPEB_WXZ 00000001400020b0 f i ViewOptionsWindow.obj
 0001:000010b0       ?GetWindowClassName@CToolbarBottom@@UEBAPEB_WXZ 00000001400020b0 f i toolbar_bottom_ui.obj
 0001:000010b0       ?GetWindowClassName@CameraControlWindow@@UEBAPEB_WXZ 00000001400020b0 f i CameraControlWindow.obj
 0001:000010b0       ?GetWindowClassName@CSDKSettingsUIMgr@@UEBAPEB_WXZ 00000001400020b0 f i settings_ui.obj
 0001:000010b0       ?GetWindowClassName@ShareToolbarWindow@@UEBAPEB_WXZ 00000001400020b0 f i ShareToolbarWindow.obj
 0001:000010b0       ?GetWindowClassName@AnnotateDrawWindow@@UEBAPEB_WXZ 00000001400020b0 f i AnnotateDrawWindow.obj
 0001:000010b0       ?GetWindowClassName@CMoreFeaturesUIMgr@@UEBAPEB_WXZ 00000001400020b0 f i more_features_ui.obj
 0001:000010b0       ?GetWindowClassName@CCustomizeUIShareSelectUI@@UEBAPEB_WXZ 00000001400020b0 f i custom_ui_share_mgr.obj
 0001:000010b0       ?GetWindowClassName@AnnotateBarWindow@@UEBAPEB_WXZ 00000001400020b0 f i AnnotateBarWindow.obj
 0001:000010b0       ?GetWindowClassName@CSDKJoinMeetingForLoginUserUIMgr@@UEBAPEB_WXZ 00000001400020b0 f i Join_meeting_for_login_user_ui.obj
 0001:000010b0       ?GetWindowClassName@CSDKLoginUIMgr@@UEBAPEB_WXZ 00000001400020b0 f i LOGIN_sdk_login_UI.obj
 0001:000010b0       ?GetWindowClassName@CSDKInitAuthUIMgr@@UEBAPEB_WXZ 00000001400020b0 f i sdk_init_auth_ui.obj
 0001:000010b0       ?GetWindowClassName@CParticipantUIMgr@@UEBAPEB_WXZ 00000001400020b0 f i participant_ui.obj
 0001:000010b0       ?GetWindowClassName@AnnotateClearWindow@@UEBAPEB_WXZ 00000001400020b0 f i AnnotateClearWindow.obj
 0001:000010b0       ?GetWindowClassName@AnnotateFormatWindow@@UEBAPEB_WXZ 00000001400020b0 f i AnnotateFormatWindow.obj
 0001:000010b0       ?GetWindowClassName@CMoreMenuUIMgr@@UEBAPEB_WXZ 00000001400020b0 f i more_menu_ui.obj
 0001:000010b0       ?GetWindowClassName@CSDKMeetingChatUIMgr@@UEBAPEB_WXZ 00000001400020b0 f i chat_controller_ui.obj
 0001:000010b0       ?GetWindowClassName@CCloseCaptionUIMgr@@UEBAPEB_WXZ 00000001400020b0 f i close_caption_ui.obj
 0001:000010b0       ?GetWindowClassName@CSDKLoggedInUIMgr@@UEBAPEB_WXZ 00000001400020b0 f i LoggedIn_sdk_controller_ui.obj
 0001:000010b0       ?GetWindowClassName@CArrowWindow@@UEBAPEB_WXZ 00000001400020b0 f i arrow_window.obj
 0001:000010c0       ?HandleMessage@AnnotateBarWindow@@UEAA_JI_K_J@Z 00000001400020c0 f   AnnotateBarWindow.obj
 0001:00001320       ?HideBrotherWindows@AnnotateBarWindow@@AEAAXPEA_W@Z 0000000140002320 f   AnnotateBarWindow.obj
 0001:000014a0       ?HideOwnedWindows@AnnotateBarWindow@@QEAAXXZ 00000001400024a0 f   AnnotateBarWindow.obj
 0001:00001570       ?Init@CComCriticalSection@ATL@@QEAAJXZ 0000000140002570 f i AnnotateBarWindow.obj
 0001:000015c0       ?InitWindow@AnnotateBarWindow@@UEAAXXZ 00000001400025c0 f   AnnotateBarWindow.obj
 0001:00001840       ?MoveWindowPosTo@AnnotateBarWindow@@QEAAXPEAUHWND__@@@Z 0000000140002840 f   AnnotateBarWindow.obj
 0001:000018f0       ?Notify@AnnotateBarWindow@@UEAAXAEAUtagTNotifyUI@DuiLib@@@Z 00000001400028f0 f   AnnotateBarWindow.obj
 0001:00001de0       ?OnClose@AnnotateBarWindow@@QEAA_JI_K_JAEAH@Z 0000000140002de0 f   AnnotateBarWindow.obj
 0001:00001e20       ?OnDestroy@ShareToolbarWindow@@QEAA_JI_K_JAEAH@Z 0000000140002e20 f   ShareToolbarWindow.obj
 0001:00001e20       ?OnClose@AnnotateDrawWindow@@QEAA_JI_K_JAEAH@Z 0000000140002e20 f   AnnotateDrawWindow.obj
 0001:00001e20       ?OnDestroy@AnnotateClearWindow@@QEAA_JI_K_JAEAH@Z 0000000140002e20 f   AnnotateClearWindow.obj
 0001:00001e20       ?OnClose@AnnotateFormatWindow@@QEAA_JI_K_JAEAH@Z 0000000140002e20 f   AnnotateFormatWindow.obj
 0001:00001e20       ?OnDestroy@AnnotateSpolightWindow@@QEAA_JI_K_JAEAH@Z 0000000140002e20 f   AnnotateSpolightWindow.obj
 0001:00001e20       ?OnClose@CSDKJoinMeetingForLoginUserUIMgr@@QEAA_JI_K_JAEAH@Z 0000000140002e20 f   Join_meeting_for_login_user_ui.obj
 0001:00001e20       ?OnDestroy@AnnotateDrawWindow@@QEAA_JI_K_JAEAH@Z 0000000140002e20 f   AnnotateDrawWindow.obj
 0001:00001e20       ?OnDestroy@ViewOptionsWindow@@QEAA_JI_K_JAEAH@Z 0000000140002e20 f   ViewOptionsWindow.obj
 0001:00001e20       ?OnDestroy@AnnotateFormatWindow@@QEAA_JI_K_JAEAH@Z 0000000140002e20 f   AnnotateFormatWindow.obj
 0001:00001e20       ?OnClose@AnnotateStampWindow@@QEAA_JI_K_JAEAH@Z 0000000140002e20 f   AnnotateStampWindow.obj
 0001:00001e20       ?OnClose@ShareToolbarWindow@@QEAA_JI_K_JAEAH@Z 0000000140002e20 f   ShareToolbarWindow.obj
 0001:00001e20       ?OnDestroy@AnnotateStampWindow@@QEAA_JI_K_JAEAH@Z 0000000140002e20 f   AnnotateStampWindow.obj
 0001:00001e20       ?OnClose@AnnotateSpolightWindow@@QEAA_JI_K_JAEAH@Z 0000000140002e20 f   AnnotateSpolightWindow.obj
 0001:00001e20       ?OnDestroy@AnnotateBarWindow@@QEAA_JI_K_JAEAH@Z 0000000140002e20 f   AnnotateBarWindow.obj
 0001:00001e20       ?OnClose@ViewOptionsWindow@@QEAA_JI_K_JAEAH@Z 0000000140002e20 f   ViewOptionsWindow.obj
 0001:00001e20       ?OnDestroy@CameraControlWindow@@QEAA_JI_K_JAEAH@Z 0000000140002e20 f   CameraControlWindow.obj
 0001:00001e20       ?OnClose@AnnotateClearWindow@@QEAA_JI_K_JAEAH@Z 0000000140002e20 f   AnnotateClearWindow.obj
 0001:00001e20       ?OnClose@CameraControlWindow@@QEAA_JI_K_JAEAH@Z 0000000140002e20 f   CameraControlWindow.obj
 0001:00001e40       ?onCustomizedLocalRecordingSourceNotification@CCustomizeInMeetingUIMgr@@UEAAXPEAVICustomizedLocalRecordingLayoutHelper@ZOOMSDK@@@Z 0000000140002e40 f i custom_ui_mgr.obj
 0001:00001e40       ??$destroy@PEAVIMeetingServiceEvent@ZOOMSDK@@@?$_Default_allocator_traits@V?$allocator@U?$_Tree_node@PEAVIMeetingServiceEvent@ZOOMSDK@@PEAX@std@@@std@@@std@@SAXAEAV?$allocator@U?$_Tree_node@PEAVIMeetingServiceEvent@ZOOMSDK@@PEAX@std@@@1@QEAPEAVIMeetingServiceEvent@ZOOMSDK@@@Z 0000000140002e40 f i sdk_util.obj
 0001:00001e40       ?onHostVideoOrderUpdated@CSDKCustomUIWorkFlow@@UEAAXPEAV?$IList@I@ZOOMSDK@@@Z 0000000140002e40 f i custom_ui_mgr_flow.obj
 0001:00001e40       ??$_Adl_verify_range@V?$_Tree_unchecked_const_iterator@V?$_Tree_val@U?$_Tree_simple_types@PEAVISDKInMeetingServiceMgrEvent@@@std@@@std@@U_Iterator_base0@2@@std@@V12@@std@@YAXAEBV?$_Tree_unchecked_const_iterator@V?$_Tree_val@U?$_Tree_simple_types@PEAVISDKInMeetingServiceMgrEvent@@@std@@@std@@U_Iterator_base0@2@@0@0@Z 0000000140002e40 f i sdk_util.obj
 0001:00001e40       ??$_Adl_verify_range@V?$_Tree_const_iterator@V?$_Tree_val@U?$_Tree_simple_types@PEAVIMeetingChatCtrlEvent@ZOOMSDK@@@std@@@std@@@std@@V12@@std@@YAXAEBV?$_Tree_const_iterator@V?$_Tree_val@U?$_Tree_simple_types@PEAVIMeetingChatCtrlEvent@ZOOMSDK@@@std@@@std@@@0@0@Z 0000000140002e40 f i sdk_util.obj
 0001:00001e40       ??$destroy@PEAVIMeetingParticipantsCtrlEvent@ZOOMSDK@@@?$_Default_allocator_traits@V?$allocator@U?$_Tree_node@PEAVIMeetingParticipantsCtrlEvent@ZOOMSDK@@PEAX@std@@@std@@@std@@SAXAEAV?$allocator@U?$_Tree_node@PEAVIMeetingParticipantsCtrlEvent@ZOOMSDK@@PEAX@std@@@1@QEAPEAVIMeetingParticipantsCtrlEvent@ZOOMSDK@@@Z 0000000140002e40 f i sdk_util.obj
 0001:00001e40       ?OnFinalMessage@AnnotateSpolightWindow@@UEAAXPEAUHWND__@@@Z 0000000140002e40 f i AnnotateSpolightWindow.obj
 0001:00001e40       ??$_Adl_verify_range@V?$_Tree_const_iterator@V?$_Tree_val@U?$_Tree_simple_types@PEAVIMeetingParticipantsCtrlEvent@ZOOMSDK@@@std@@@std@@@std@@V12@@std@@YAXAEBV?$_Tree_const_iterator@V?$_Tree_val@U?$_Tree_simple_types@PEAVIMeetingParticipantsCtrlEvent@ZOOMSDK@@@std@@@std@@@0@0@Z 0000000140002e40 f i sdk_util.obj
 0001:00001e40       ?OnFinalMessage@CCustomizeUIShareSelectUI@@UEAAXPEAUHWND__@@@Z 0000000140002e40 f i custom_ui_share_mgr.obj
 0001:00001e40       ??$_Adl_verify_range@V?$_Tree_unchecked_const_iterator@V?$_Tree_val@U?$_Tree_simple_types@PEAVIMeetingChatCtrlEvent@ZOOMSDK@@@std@@@std@@U_Iterator_base0@2@@std@@V12@@std@@YAXAEBV?$_Tree_unchecked_const_iterator@V?$_Tree_val@U?$_Tree_simple_types@PEAVIMeetingChatCtrlEvent@ZOOMSDK@@@std@@@std@@U_Iterator_base0@2@@0@0@Z 0000000140002e40 f i sdk_util.obj
 0001:00001e40       ?_Adopt@_Iterator_base0@std@@QEAAXPEBX@Z 0000000140002e40 f i participant_ui.obj
 0001:00001e40       ?OnFinalMessage@CSDKJoinMeetingForLoginUserUIMgr@@UEAAXPEAUHWND__@@@Z 0000000140002e40 f i Join_meeting_for_login_user_ui.obj
 0001:00001e40       ??$destroy@PEAVIClosedCaptionControllerEvent@ZOOMSDK@@@?$_Default_allocator_traits@V?$allocator@U?$_Tree_node@PEAVIClosedCaptionControllerEvent@ZOOMSDK@@PEAX@std@@@std@@@std@@SAXAEAV?$allocator@U?$_Tree_node@PEAVIClosedCaptionControllerEvent@ZOOMSDK@@PEAX@std@@@1@QEAPEAVIClosedCaptionControllerEvent@ZOOMSDK@@@Z 0000000140002e40 f i sdk_util.obj
 0001:00001e40       ?TxImmReleaseContext@CTxtWinHost@DuiLib@@UEAAXPEAUHIMC__@@@Z 0000000140002e40 f i DuiLib64:UIRichEdit.obj
 0001:00001e40       ?OnFinalMessage@CSDKInitAuthUIMgr@@UEAAXPEAUHWND__@@@Z 0000000140002e40 f i sdk_init_auth_ui.obj
 0001:00001e40       ?onSpotlightedUserListChangeNotification@CUtilWnd@@UEAAXPEAV?$IList@I@ZOOMSDK@@@Z 0000000140002e40 f i util_window.obj
 0001:00001e40       ?onLocalVideoOrderUpdated@CUtilWnd@@UEAAXPEAV?$IList@I@ZOOMSDK@@@Z 0000000140002e40 f i util_window.obj
 0001:00001e40       ?onMeetingParameterNotification@CSDKJoinMeetingForLoginUserFlow@@UEAAXPEBUtagMeetingParameter@ZOOMSDK@@@Z 0000000140002e40 f i Join_meeting_for_login_user_workflow.obj
 0001:00001e40       ??$_Adl_verify_range@V?$_Tree_const_iterator@V?$_Tree_val@U?$_Tree_simple_types@PEAVIClosedCaptionControllerEvent@ZOOMSDK@@@std@@@std@@@std@@V12@@std@@YAXAEBV?$_Tree_const_iterator@V?$_Tree_val@U?$_Tree_simple_types@PEAVIClosedCaptionControllerEvent@ZOOMSDK@@@std@@@std@@@0@0@Z 0000000140002e40 f i sdk_util.obj
 0001:00001e40       ??$_Adl_verify_range@V?$_Tree_const_iterator@V?$_Tree_val@U?$_Tree_simple_types@PEAVIAuthServiceEvent@ZOOMSDK@@@std@@@std@@@std@@V12@@std@@YAXAEBV?$_Tree_const_iterator@V?$_Tree_val@U?$_Tree_simple_types@PEAVIAuthServiceEvent@ZOOMSDK@@@std@@@std@@@0@0@Z 0000000140002e40 f i sdk_util.obj
 0001:00001e40       ?PaintText@CControlUI@DuiLib@@UEAAXPEAUHDC__@@@Z 0000000140002e40 f i DuiLib64:UIControl.obj
 0001:00001e40       ?onLocalVideoOrderUpdated@SDKInterfaceWrap@@UEAAXPEAV?$IList@I@ZOOMSDK@@@Z 0000000140002e40 f i sdk_util.obj
 0001:00001e40       ??$_Adl_verify_range@PEA_WPEA_W@std@@YAXAEBQEA_W0@Z 0000000140002e40 f i join_webinar_wnd_ui.obj
 0001:00001e40       ?onAudioBtnClicked@CSDKCustomUIWorkFlow@@UEAAXUtagAudioBtnClickedCallbackInfo@ZOOMSDK@@@Z 0000000140002e40 f i custom_ui_mgr_flow.obj
 0001:00001e40       ?OnFinalMessage@CUtilWnd@@UEAAXPEAUHWND__@@@Z 0000000140002e40 f i util_window.obj
 0001:00001e40       ?OnFinalMessage@CCloseCaptionUIMgr@@UEAAXPEAUHWND__@@@Z 0000000140002e40 f i close_caption_ui.obj
 0001:00001e40       ?_Swap_proxy_and_iterators@_Container_base0@std@@QEAAXAEAU12@@Z 0000000140002e40 f i chat_controller_ui.obj
 0001:00001e40       ?onMeetingParameterNotification@CSDKWithoutLoginStartJoinMeetingFlow@@UEAAXPEBUtagMeetingParameter@ZOOMSDK@@@Z 0000000140002e40 f i LOGIN_join_meeting_only_workflow.obj
 0001:00001e40       ?onHostVideoOrderUpdated@CUtilWnd@@UEAAXPEAV?$IList@I@ZOOMSDK@@@Z 0000000140002e40 f i util_window.obj
 0001:00001e40       ??$_Pocca@V?$allocator@_W@std@@@std@@YAXAEAV?$allocator@_W@0@AEBV10@@Z 0000000140002e40 f i custom_ui_share_flow.obj
 0001:00001e40       ?onChatStautsChangedNotification@CSDKCustomUIWorkFlow@@UEAAXPEAUtagChatStatus@ZOOMSDK@@@Z 0000000140002e40 f i custom_ui_mgr_flow.obj
 0001:00001e40       ?OnFinalMessage@CSDKMeetingChatUIMgr@@UEAAXPEAUHWND__@@@Z 0000000140002e40 f i chat_controller_ui.obj
 0001:00001e40       ?_Compat@?$_Vector_const_iterator@V?$_Vector_val@U?$_Simple_types@PEAVIUserInfo@ZOOMSDK@@@std@@@std@@@std@@QEBAXAEBV12@@Z 0000000140002e40 f i user_manager.obj
 0001:00001e40       ?onHostVideoOrderUpdated@SDKInterfaceWrap@@UEAAXPEAV?$IList@I@ZOOMSDK@@@Z 0000000140002e40 f i sdk_util.obj
 0001:00001e40       ?_Orphan_ptr@?$_Tree_val@U?$_Tree_simple_types@PEAVIMeetingParticipantsCtrlEvent@ZOOMSDK@@@std@@@std@@QEAAXQEAU?$_Tree_node@PEAVIMeetingParticipantsCtrlEvent@ZOOMSDK@@PEAX@2@@Z 0000000140002e40 f i sdk_util.obj
 0001:00001e40       ?OnFinalMessage@CameraControlWindow@@UEAAXPEAUHWND__@@@Z 0000000140002e40 f i CameraControlWindow.obj
 0001:00001e40       ?onUserNamesChanged@CSDKCustomUIWorkFlow@@UEAAXPEAV?$IList@I@ZOOMSDK@@@Z 0000000140002e40 f i custom_ui_mgr_flow.obj
 0001:00001e40       ?Notify@ClosedCaptionDisplayUI@@UEAAXAEAUtagTNotifyUI@DuiLib@@@Z 0000000140002e40 f i display_cc_ui.obj
 0001:00001e40       ??$_Adl_verify_range@V?$_Tree_const_iterator@V?$_Tree_val@U?$_Tree_simple_types@PEAVIMeetingServiceEvent@ZOOMSDK@@@std@@@std@@@std@@V12@@std@@YAXAEBV?$_Tree_const_iterator@V?$_Tree_val@U?$_Tree_simple_types@PEAVIMeetingServiceEvent@ZOOMSDK@@@std@@@std@@@0@0@Z 0000000140002e40 f i sdk_util.obj
 0001:00001e40       ?onUserActiveAudioChange@CSDKCustomUIWorkFlow@@UEAAXPEAV?$IList@I@ZOOMSDK@@@Z 0000000140002e40 f i custom_ui_mgr_flow.obj
 0001:00001e40       ?_Alloc_proxy@_Container_base0@std@@QEAAXAEBU_Fake_allocator@2@@Z 0000000140002e40 f i chat_controller_ui.obj
 0001:00001e40       ?OnFinalMessage@ShareToolbarWindow@@UEAAXPEAUHWND__@@@Z 0000000140002e40 f i ShareToolbarWindow.obj
 0001:00001e40       ?onInputMeetingPasswordAndScreenNameNotification@CSDKCustomUIWorkFlow@@UEAAXPEAVIMeetingPasswordAndScreenNameHandler@ZOOMSDK@@@Z 0000000140002e40 f i custom_ui_mgr_flow.obj
 0001:00001e40       ??$destroy@U?$pair@$$CBIPEAVIUserInfo@ZOOMSDK@@@std@@@?$_Default_allocator_traits@V?$allocator@U?$_Tree_node@U?$pair@$$CBIPEAVIUserInfo@ZOOMSDK@@@std@@PEAX@std@@@std@@@std@@SAXAEAV?$allocator@U?$_Tree_node@U?$pair@$$CBIPEAVIUserInfo@ZOOMSDK@@@std@@PEAX@std@@@1@QEAU?$pair@$$CBIPEAVIUserInfo@ZOOMSDK@@@1@@Z 0000000140002e40 f i user_manager.obj
 0001:00001e40       ?onMeetingParameterNotification@CSDKWithoutLoginStartJoinMeetingUIGroup@@UEAAXPEBUtagMeetingParameter@ZOOMSDK@@@Z 0000000140002e40 f i LOGIN_sdk_login_UI.obj
 0001:00001e40       ?_Orphan_ptr@?$_Tree_val@U?$_Tree_simple_types@PEAVIMeetingVideoCtrlEvent@ZOOMSDK@@@std@@@std@@QEAAXQEAU?$_Tree_node@PEAVIMeetingVideoCtrlEvent@ZOOMSDK@@PEAX@2@@Z 0000000140002e40 f i sdk_util.obj
 0001:00001e40       ?OnFinalMessage@CWindowWnd@DuiLib@@MEAAXPEAUHWND__@@@Z 0000000140002e40 f i DuiLib64:UIBase.obj
 0001:00001e40       ?_Orphan_ptr@?$_Tree_val@U?$_Tree_simple_types@PEAVIMeetingServiceEvent@ZOOMSDK@@@std@@@std@@QEAAXQEAU?$_Tree_node@PEAVIMeetingServiceEvent@ZOOMSDK@@PEAX@2@@Z 0000000140002e40 f i sdk_util.obj
 0001:00001e40       ?OnFinalMessage@CSDKLoginUIMgr@@UEAAXPEAUHWND__@@@Z 0000000140002e40 f i LOGIN_sdk_login_UI.obj
 0001:00001e40       ?onInviteBtnClicked@CSDKCustomUIWorkFlow@@UEAAXAEA_N@Z 0000000140002e40 f i custom_ui_mgr_flow.obj
 0001:00001e40       ?_Orphan_ptr@?$_Tree_val@U?$_Tree_simple_types@PEAVISDKInMeetingServiceMgrEvent@@@std@@@std@@QEAAXQEAU?$_Tree_node@PEAVISDKInMeetingServiceMgrEvent@@PEAX@2@@Z 0000000140002e40 f i sdk_util.obj
 0001:00001e40       ??$_Adl_verify_range@V?$_Tree_unchecked_const_iterator@V?$_Tree_val@U?$_Tree_simple_types@PEAVIMeetingParticipantsCtrlEvent@ZOOMSDK@@@std@@@std@@U_Iterator_base0@2@@std@@V12@@std@@YAXAEBV?$_Tree_unchecked_const_iterator@V?$_Tree_val@U?$_Tree_simple_types@PEAVIMeetingParticipantsCtrlEvent@ZOOMSDK@@@std@@@std@@U_Iterator_base0@2@@0@0@Z 0000000140002e40 f i sdk_util.obj
 0001:00001e40       ??$destroy@PEAVIAuthServiceEvent@ZOOMSDK@@@?$_Default_allocator_traits@V?$allocator@U?$_Tree_node@PEAVIAuthServiceEvent@ZOOMSDK@@PEAX@std@@@std@@@std@@SAXAEAV?$allocator@U?$_Tree_node@PEAVIAuthServiceEvent@ZOOMSDK@@PEAX@std@@@1@QEAPEAVIAuthServiceEvent@ZOOMSDK@@@Z 0000000140002e40 f i sdk_util.obj
 0001:00001e40       ?OnFinalMessage@AnnotateFormatWindow@@UEAAXPEAUHWND__@@@Z 0000000140002e40 f i AnnotateFormatWindow.obj
 0001:00001e40       ?OnFinalMessage@AnnotateBarWindow@@UEAAXPEAUHWND__@@@Z 0000000140002e40 f i AnnotateBarWindow.obj
 0001:00001e40       ??$destroy@PEAVIMeetingChatCtrlEvent@ZOOMSDK@@@?$_Default_allocator_traits@V?$allocator@U?$_Tree_node@PEAVIMeetingChatCtrlEvent@ZOOMSDK@@PEAX@std@@@std@@@std@@SAXAEAV?$allocator@U?$_Tree_node@PEAVIMeetingChatCtrlEvent@ZOOMSDK@@PEAX@std@@@1@QEAPEAVIMeetingChatCtrlEvent@ZOOMSDK@@@Z 0000000140002e40 f i sdk_util.obj
 0001:00001e40       ?onSpotlightedUserListChangeNotification@CSDKCustomUIWorkFlow@@UEAAXPEAV?$IList@I@ZOOMSDK@@@Z 0000000140002e40 f i custom_ui_mgr_flow.obj
 0001:00001e40       ?__empty_global_delete@@YAXPEAX_K@Z 0000000140002e40 f i AnnotateBarWindow.obj
 0001:00001e40       ?_Orphan_ptr@?$_Tree_val@U?$_Tree_simple_types@PEAVIAuthServiceEvent@ZOOMSDK@@@std@@@std@@QEAAXQEAU?$_Tree_node@PEAVIAuthServiceEvent@ZOOMSDK@@PEAX@2@@Z 0000000140002e40 f i sdk_util.obj
 0001:00001e40       ??$destroy@H@?$_Default_allocator_traits@V?$allocator@U?$_List_node@HPEAX@std@@@std@@@std@@SAXAEAV?$allocator@U?$_List_node@HPEAX@std@@@1@QEAH@Z 0000000140002e40 f i participant_ui.obj
 0001:00001e40       ?__global_delete@@YAXPEAX_K@Z 0000000140002e40 f i AnnotateBarWindow.obj
 0001:00001e40       ?onMultiShareSwitchToSingleShareNeedConfirm@CSDKCustomUIWorkFlow@@UEAAXPEAVIShareSwitchMultiToSingleConfirmHandler@ZOOMSDK@@@Z 0000000140002e40 f i custom_ui_mgr_flow.obj
 0001:00001e40       ?OnFinalMessage@AnnotateClearWindow@@UEAAXPEAUHWND__@@@Z 0000000140002e40 f i AnnotateClearWindow.obj
 0001:00001e40       ?PaintStatusImage@CControlUI@DuiLib@@UEAAXPEAUHDC__@@@Z 0000000140002e40 f i DuiLib64:UIControl.obj
 0001:00001e40       ?onSSLCertVerifyNotification@CInitSDKWorkFlow@@UEAAXPEAVISSLCertVerificationHandler@ZOOMSDK@@@Z 0000000140002e40 f i init_auth_sdk_workflow.obj
 0001:00001e40       ?OnDirectShareSpecifyContent@CSDKLoggedInUIWorkFlow@@UEAAXPEAVIDirectShareSpecifyContentHandler@ZOOMSDK@@@Z 0000000140002e40 f i LoggedIn_sdk_controller_workflow.obj
 0001:00001e40       ??$destroy@PEAVIMeetingVideoCtrlEvent@ZOOMSDK@@@?$_Default_allocator_traits@V?$allocator@U?$_Tree_node@PEAVIMeetingVideoCtrlEvent@ZOOMSDK@@PEAX@std@@@std@@@std@@SAXAEAV?$allocator@U?$_Tree_node@PEAVIMeetingVideoCtrlEvent@ZOOMSDK@@PEAX@std@@@1@QEAPEAVIMeetingVideoCtrlEvent@ZOOMSDK@@@Z 0000000140002e40 f i sdk_util.obj
 0001:00001e40       ?OnFinalMessage@CSDKLoggedInUIMgr@@UEAAXPEAUHWND__@@@Z 0000000140002e40 f i LoggedIn_sdk_controller_ui.obj
 0001:00001e40       ?onSpotlightedUserListChangeNotification@SDKInterfaceWrap@@UEAAXPEAV?$IList@I@ZOOMSDK@@@Z 0000000140002e40 f i sdk_util.obj
 0001:00001e40       ?OnFinalMessage@AnnotateDrawWindow@@UEAAXPEAUHWND__@@@Z 0000000140002e40 f i AnnotateDrawWindow.obj
 0001:00001e40       ?onProxySettingNotification@CInitSDKWorkFlow@@UEAAXPEAVIProxySettingHandler@ZOOMSDK@@@Z 0000000140002e40 f i init_auth_sdk_workflow.obj
 0001:00001e40       ?onMeetingParameterNotification@CSDKLoggedInUIMgr@@UEAAXPEBUtagMeetingParameter@ZOOMSDK@@@Z 0000000140002e40 f i LoggedIn_sdk_controller_ui.obj
 0001:00001e40       ?_Orphan_ptr@?$_Tree_val@U?$_Tree_simple_types@PEAVIClosedCaptionControllerEvent@ZOOMSDK@@@std@@@std@@QEAAXQEAU?$_Tree_node@PEAVIClosedCaptionControllerEvent@ZOOMSDK@@PEAX@2@@Z 0000000140002e40 f i sdk_util.obj
 0001:00001e40       ?onEndOtherMeetingToJoinMeetingNotification@CSDKCustomUIWorkFlow@@UEAAXPEAVIEndOtherMeetingToJoinMeetingHandler@ZOOMSDK@@@Z 0000000140002e40 f i custom_ui_mgr_flow.obj
 0001:00001e40       ?onMeetingParameterNotification@CSDKJoinMeetingForLoginUserUIGroup@@UEAAXPEBUtagMeetingParameter@ZOOMSDK@@@Z 0000000140002e40 f i Join_meeting_for_login_user_ui.obj
 0001:00001e40       ?OnFinalMessage@ViewOptionsWindow@@UEAAXPEAUHWND__@@@Z 0000000140002e40 f i ViewOptionsWindow.obj
 0001:00001e40       ?OnFinalMessage@CMoreFeaturesUIMgr@@UEAAXPEAUHWND__@@@Z 0000000140002e40 f i more_features_ui.obj
 0001:00001e40       ?Notify@CTreeViewUI@DuiLib@@UEAAXAEAUtagTNotifyUI@2@@Z 0000000140002e40 f i DuiLib64:UITreeView.obj
 0001:00001e40       ?onCustomizedAnnotationObjDestroyed@CCustomizeInMeetingUIMgr@@UEAAXPEAVICustomizedAnnotationObj@ZOOMSDK@@@Z 0000000140002e40 f i custom_ui_mgr.obj
 0001:00001e40       ?onHostRequestStartAudio@CSDKCustomUIWorkFlow@@UEAAXPEAVIRequestStartAudioHandler@ZOOMSDK@@@Z 0000000140002e40 f i custom_ui_mgr_flow.obj
 0001:00001e40       ??$destroy@U?$pair@$$CBHW4bkItemType@@@std@@@?$_Default_allocator_traits@V?$allocator@U?$_Tree_node@U?$pair@$$CBHW4bkItemType@@@std@@PEAX@std@@@std@@@std@@SAXAEAV?$allocator@U?$_Tree_node@U?$pair@$$CBHW4bkItemType@@@std@@PEAX@std@@@1@QEAU?$pair@$$CBHW4bkItemType@@@1@@Z 0000000140002e40 f i settings_ui.obj
 0001:00001e40       ??$_Adl_verify_range@V?$_Tree_unchecked_const_iterator@V?$_Tree_val@U?$_Tree_simple_types@PEAVIMeetingVideoCtrlEvent@ZOOMSDK@@@std@@@std@@U_Iterator_base0@2@@std@@V12@@std@@YAXAEBV?$_Tree_unchecked_const_iterator@V?$_Tree_val@U?$_Tree_simple_types@PEAVIMeetingVideoCtrlEvent@ZOOMSDK@@@std@@@std@@U_Iterator_base0@2@@0@0@Z 0000000140002e40 f i sdk_util.obj
 0001:00001e40       ?OnFinalMessage@CArrowWindow@@UEAAXPEAUHWND__@@@Z 0000000140002e40 f i arrow_window.obj
 0001:00001e40       ?onMeetingParameterNotification@CSDKCustomUIWorkFlow@@UEAAXPEBUtagMeetingParameter@ZOOMSDK@@@Z 0000000140002e40 f i custom_ui_mgr_flow.obj
 0001:00001e40       ?OnFinalMessage@CToolbarBottom@@UEAAXPEAUHWND__@@@Z 0000000140002e40 f i toolbar_bottom_ui.obj
 0001:00001e40       ??$_Adl_verify_range@V?$_Tree_unchecked_const_iterator@V?$_Tree_val@U?$_Tree_simple_types@PEAVIAuthServiceEvent@ZOOMSDK@@@std@@@std@@U_Iterator_base0@2@@std@@V12@@std@@YAXAEBV?$_Tree_unchecked_const_iterator@V?$_Tree_val@U?$_Tree_simple_types@PEAVIAuthServiceEvent@ZOOMSDK@@@std@@@std@@U_Iterator_base0@2@@0@0@Z 0000000140002e40 f i sdk_util.obj
 0001:00001e40       ?onLocalVideoOrderUpdated@CSDKCustomUIWorkFlow@@UEAAXPEAV?$IList@I@ZOOMSDK@@@Z 0000000140002e40 f i custom_ui_mgr_flow.obj
 0001:00001e40       ?OnFinalMessage@CParticipantUIMgr@@UEAAXPEAUHWND__@@@Z 0000000140002e40 f i participant_ui.obj
 0001:00001e40       ?HandleVideoContainerDestroyed@CCustomizeUIVideoMgr@@QEAAXPEAVICustomizedVideoContainer@ZOOMSDK@@@Z 0000000140002e40 f i custom_ui_video_mgr.obj
 0001:00001e40       ?OnFinalMessage@AnnotateStampWindow@@UEAAXPEAUHWND__@@@Z 0000000140002e40 f i AnnotateStampWindow.obj
 0001:00001e40       ?_Orphan_ptr@?$_Tree_val@U?$_Tree_simple_types@U?$pair@$$CBIPEAVIUserInfo@ZOOMSDK@@@std@@@std@@@std@@QEAAXQEAU?$_Tree_node@U?$pair@$$CBIPEAVIUserInfo@ZOOMSDK@@@std@@PEAX@2@@Z 0000000140002e40 f i user_manager.obj
 0001:00001e40       ??$_Adl_verify_range@V?$_Tree_const_iterator@V?$_Tree_val@U?$_Tree_simple_types@PEAVISDKInMeetingServiceMgrEvent@@@std@@@std@@@std@@V12@@std@@YAXAEBV?$_Tree_const_iterator@V?$_Tree_val@U?$_Tree_simple_types@PEAVISDKInMeetingServiceMgrEvent@@@std@@@std@@@0@0@Z 0000000140002e40 f i sdk_util.obj
 0001:00001e40       ??$_Adl_verify_range@V?$_Tree_unchecked_const_iterator@V?$_Tree_val@U?$_Tree_simple_types@PEAVIMeetingServiceEvent@ZOOMSDK@@@std@@@std@@U_Iterator_base0@2@@std@@V12@@std@@YAXAEBV?$_Tree_unchecked_const_iterator@V?$_Tree_val@U?$_Tree_simple_types@PEAVIMeetingServiceEvent@ZOOMSDK@@@std@@@std@@U_Iterator_base0@2@@0@0@Z 0000000140002e40 f i sdk_util.obj
 0001:00001e40       ?onMeetingParameterNotification@CSDKRestAPIUserUIGroup@@UEAAXPEBUtagMeetingParameter@ZOOMSDK@@@Z 0000000140002e40 f i LOGIN_sdk_login_UI.obj
 0001:00001e40       ?OnFinalMessage@CMoreMenuUIMgr@@UEAAXPEAUHWND__@@@Z 0000000140002e40 f i more_menu_ui.obj
 0001:00001e40       ?_Orphan_ptr@?$_Tree_val@U?$_Tree_simple_types@U?$pair@$$CBHW4bkItemType@@@std@@@std@@@std@@QEAAXQEAU?$_Tree_node@U?$pair@$$CBHW4bkItemType@@@std@@PEAX@2@@Z 0000000140002e40 f i settings_ui.obj
 0001:00001e40       ??$_Adl_verify_range@V?$_Tree_unchecked_const_iterator@V?$_Tree_val@U?$_Tree_simple_types@PEAVIClosedCaptionControllerEvent@ZOOMSDK@@@std@@@std@@U_Iterator_base0@2@@std@@V12@@std@@YAXAEBV?$_Tree_unchecked_const_iterator@V?$_Tree_val@U?$_Tree_simple_types@PEAVIClosedCaptionControllerEvent@ZOOMSDK@@@std@@@std@@U_Iterator_base0@2@@0@0@Z 0000000140002e40 f i sdk_util.obj
 0001:00001e40       ?onChatStautsChangedNotification@CSDKMeetingChatUIMgr@@UEAAXPEAUtagChatStatus@ZOOMSDK@@@Z 0000000140002e40 f i chat_controller_ui.obj
 0001:00001e40       ?_Orphan_ptr@?$_Tree_val@U?$_Tree_simple_types@PEAVIMeetingChatCtrlEvent@ZOOMSDK@@@std@@@std@@QEAAXQEAU?$_Tree_node@PEAVIMeetingChatCtrlEvent@ZOOMSDK@@PEAX@2@@Z 0000000140002e40 f i sdk_util.obj
 0001:00001e40       ??$destroy@PEAVISDKInMeetingServiceMgrEvent@@@?$_Default_allocator_traits@V?$allocator@U?$_Tree_node@PEAVISDKInMeetingServiceMgrEvent@@PEAX@std@@@std@@@std@@SAXAEAV?$allocator@U?$_Tree_node@PEAVISDKInMeetingServiceMgrEvent@@PEAX@std@@@1@QEAPEAVISDKInMeetingServiceMgrEvent@@@Z 0000000140002e40 f i sdk_util.obj
 0001:00001e40       ??$_Adl_verify_range@V?$_Tree_const_iterator@V?$_Tree_val@U?$_Tree_simple_types@PEAVIMeetingVideoCtrlEvent@ZOOMSDK@@@std@@@std@@@std@@V12@@std@@YAXAEBV?$_Tree_const_iterator@V?$_Tree_val@U?$_Tree_simple_types@PEAVIMeetingVideoCtrlEvent@ZOOMSDK@@@std@@@std@@@0@0@Z 0000000140002e40 f i sdk_util.obj
 0001:00001e40       ??$destroy@PEAVIUserInfo@ZOOMSDK@@@?$_Default_allocator_traits@V?$allocator@PEAVIUserInfo@ZOOMSDK@@@std@@@std@@SAXAEAV?$allocator@PEAVIUserInfo@ZOOMSDK@@@1@QEAPEAVIUserInfo@ZOOMSDK@@@Z 0000000140002e40 f i user_manager.obj
 0001:00001e40       ?onShareContentNotification@CSDKCustomUIWorkFlow@@UEAAXAEAUtagShareInfo@ZOOMSDK@@@Z 0000000140002e40 f i custom_ui_mgr_flow.obj
 0001:00001e40       ?onHostRequestStartVideo@CSDKCustomUIWorkFlow@@UEAAXPEAVIRequestStartVideoHandler@ZOOMSDK@@@Z 0000000140002e40 f i custom_ui_mgr_flow.obj
 0001:00001e40       ?OnFinalMessage@CSDKSettingsUIMgr@@UEAAXPEAUHWND__@@@Z 0000000140002e40 f i settings_ui.obj
 0001:00001e40       ?OnFinalMessage@CInvitationUIMgr@@UEAAXPEAUHWND__@@@Z 0000000140002e40 f i invitation_ui.obj
 0001:00001e50       ?Term@CComCriticalSection@ATL@@QEAAJXZ 0000000140002e50 f i AnnotateBarWindow.obj
 0001:00001e70       ?_Adjust_manually_vector_aligned@std@@YAXAEAPEAXAEA_K@Z 0000000140002e70 f i AnnotateBarWindow.obj
 0001:00001f10       ?_Allocate@_Default_allocate_traits@std@@SAPEAX_K@Z 0000000140002f10 f i AnnotateBarWindow.obj
 0001:00001f30       ?_AtlInitializeCriticalSectionEx@ATL@@YAHPEAU_RTL_CRITICAL_SECTION@@KK@Z 0000000140002f30 f i AnnotateBarWindow.obj
 0001:00001f60       ?_Calculate_growth@?$basic_string@_WU?$char_traits@_W@std@@V?$allocator@_W@2@@std@@AEBA_K_K@Z 0000000140002f60 f i AnnotateBarWindow.obj
 0001:00001fa0       ?_Calculate_growth@?$basic_string@_WU?$char_traits@_W@std@@V?$allocator@_W@2@@std@@CA_K_K00@Z 0000000140002fa0 f i AnnotateBarWindow.obj
 0001:00002040       ?_Equal@?$basic_string@_WU?$char_traits@_W@std@@V?$allocator@_W@2@@std@@QEBA_NQEB_W@Z 0000000140003040 f i AnnotateBarWindow.obj
 0001:00002090       ?_Getal@?$basic_string@_WU?$char_traits@_W@std@@V?$allocator@_W@2@@std@@AEBAAEBV?$allocator@_W@2@XZ 0000000140003090 f i AnnotateBarWindow.obj
 0001:00002090       ?_Get_scary@?$_Tree@V?$_Tset_traits@PEAVIMeetingVideoCtrlEvent@ZOOMSDK@@U?$less@PEAVIMeetingVideoCtrlEvent@ZOOMSDK@@@std@@V?$allocator@PEAVIMeetingVideoCtrlEvent@ZOOMSDK@@@4@$0A@@std@@@std@@IEAAPEAV?$_Tree_val@U?$_Tree_simple_types@PEAVIMeetingVideoCtrlEvent@ZOOMSDK@@@std@@@2@XZ 0000000140003090 f i sdk_util.obj
 0001:00002090       ?_Getal@?$vector@V?$basic_string@_WU?$char_traits@_W@std@@V?$allocator@_W@2@@std@@V?$allocator@V?$basic_string@_WU?$char_traits@_W@std@@V?$allocator@_W@2@@std@@@2@@std@@AEBAAEBV?$allocator@V?$basic_string@_WU?$char_traits@_W@std@@V?$allocator@_W@2@@std@@@2@XZ 0000000140003090 f i custom_ui_share_flow.obj
 0001:00002090       ?_Get_scary@?$_Tree@V?$_Tset_traits@PEAVIClosedCaptionControllerEvent@ZOOMSDK@@U?$less@PEAVIClosedCaptionControllerEvent@ZOOMSDK@@@std@@V?$allocator@PEAVIClosedCaptionControllerEvent@ZOOMSDK@@@4@$0A@@std@@@std@@IEBAPEBV?$_Tree_val@U?$_Tree_simple_types@PEAVIClosedCaptionControllerEvent@ZOOMSDK@@@std@@@2@XZ 0000000140003090 f i sdk_util.obj
 0001:00002090       ?_Getal@?$_Tree@V?$_Tset_traits@PEAVISDKInMeetingServiceMgrEvent@@U?$less@PEAVISDKInMeetingServiceMgrEvent@@@std@@V?$allocator@PEAVISDKInMeetingServiceMgrEvent@@@3@$0A@@std@@@std@@IEBAAEBV?$allocator@U?$_Tree_node@PEAVISDKInMeetingServiceMgrEvent@@PEAX@std@@@2@XZ 0000000140003090 f i sdk_util.obj
 0001:00002090       ?_Getal@?$_Tree@V?$_Tset_traits@PEAVISDKInMeetingServiceMgrEvent@@U?$less@PEAVISDKInMeetingServiceMgrEvent@@@std@@V?$allocator@PEAVISDKInMeetingServiceMgrEvent@@@3@$0A@@std@@@std@@IEAAAEAV?$allocator@U?$_Tree_node@PEAVISDKInMeetingServiceMgrEvent@@PEAX@std@@@2@XZ 0000000140003090 f i sdk_util.obj
 0001:00002090       ?_Getal@?$vector@PEAVIVirtualBGImageInfo@ZOOMSDK@@V?$allocator@PEAVIVirtualBGImageInfo@ZOOMSDK@@@std@@@std@@AEBAAEBV?$allocator@PEAVIVirtualBGImageInfo@ZOOMSDK@@@2@XZ 0000000140003090 f i settings_ui.obj
 0001:00002090       ?_Get_scary@?$_Tree@V?$_Tset_traits@PEAVIMeetingServiceEvent@ZOOMSDK@@U?$less@PEAVIMeetingServiceEvent@ZOOMSDK@@@std@@V?$allocator@PEAVIMeetingServiceEvent@ZOOMSDK@@@4@$0A@@std@@@std@@IEAAPEAV?$_Tree_val@U?$_Tree_simple_types@PEAVIMeetingServiceEvent@ZOOMSDK@@@std@@@2@XZ 0000000140003090 f i sdk_util.obj
 0001:00002090       ?_Getal@?$vector@PEAVIUserInfo@ZOOMSDK@@V?$allocator@PEAVIUserInfo@ZOOMSDK@@@std@@@std@@AEAAAEAV?$allocator@PEAVIUserInfo@ZOOMSDK@@@2@XZ 0000000140003090 f i user_manager.obj
 0001:00002090       ?_Get_scary@?$_Tree@V?$_Tset_traits@PEAVISDKInMeetingServiceMgrEvent@@U?$less@PEAVISDKInMeetingServiceMgrEvent@@@std@@V?$allocator@PEAVISDKInMeetingServiceMgrEvent@@@3@$0A@@std@@@std@@IEBAPEBV?$_Tree_val@U?$_Tree_simple_types@PEAVISDKInMeetingServiceMgrEvent@@@std@@@2@XZ 0000000140003090 f i sdk_util.obj
 0001:00002090       ?_Getal@?$_Tree@V?$_Tset_traits@PEAVIAuthServiceEvent@ZOOMSDK@@U?$less@PEAVIAuthServiceEvent@ZOOMSDK@@@std@@V?$allocator@PEAVIAuthServiceEvent@ZOOMSDK@@@4@$0A@@std@@@std@@IEBAAEBV?$allocator@U?$_Tree_node@PEAVIAuthServiceEvent@ZOOMSDK@@PEAX@std@@@2@XZ 0000000140003090 f i sdk_util.obj
 0001:00002090       ?_Getal@?$_Tree@V?$_Tmap_traits@IPEAVIUserInfo@ZOOMSDK@@U?$less@I@std@@V?$allocator@U?$pair@$$CBIPEAVIUserInfo@ZOOMSDK@@@std@@@4@$0A@@std@@@std@@IEBAAEBV?$allocator@U?$_Tree_node@U?$pair@$$CBIPEAVIUserInfo@ZOOMSDK@@@std@@PEAX@std@@@2@XZ 0000000140003090 f i user_manager.obj
 0001:00002090       ?_Getal@?$_Tree@V?$_Tmap_traits@IPEAVIUserInfo@ZOOMSDK@@U?$less@I@std@@V?$allocator@U?$pair@$$CBIPEAVIUserInfo@ZOOMSDK@@@std@@@4@$0A@@std@@@std@@IEAAAEAV?$allocator@U?$_Tree_node@U?$pair@$$CBIPEAVIUserInfo@ZOOMSDK@@@std@@PEAX@std@@@2@XZ 0000000140003090 f i user_manager.obj
 0001:00002090       ?_Getcomp@?$_Tree@V?$_Tset_traits@PEAVIMeetingServiceEvent@ZOOMSDK@@U?$less@PEAVIMeetingServiceEvent@ZOOMSDK@@@std@@V?$allocator@PEAVIMeetingServiceEvent@ZOOMSDK@@@4@$0A@@std@@@std@@IEBAAEBU?$less@PEAVIMeetingServiceEvent@ZOOMSDK@@@2@XZ 0000000140003090 f i sdk_util.obj
 0001:00002090       ?_Getcomp@?$_Tree@V?$_Tset_traits@PEAVIAuthServiceEvent@ZOOMSDK@@U?$less@PEAVIAuthServiceEvent@ZOOMSDK@@@std@@V?$allocator@PEAVIAuthServiceEvent@ZOOMSDK@@@4@$0A@@std@@@std@@IEBAAEBU?$less@PEAVIAuthServiceEvent@ZOOMSDK@@@2@XZ 0000000140003090 f i sdk_util.obj
 0001:00002090       ?_Getal@?$_Tree@V?$_Tset_traits@PEAVIMeetingParticipantsCtrlEvent@ZOOMSDK@@U?$less@PEAVIMeetingParticipantsCtrlEvent@ZOOMSDK@@@std@@V?$allocator@PEAVIMeetingParticipantsCtrlEvent@ZOOMSDK@@@4@$0A@@std@@@std@@IEAAAEAV?$allocator@U?$_Tree_node@PEAVIMeetingParticipantsCtrlEvent@ZOOMSDK@@PEAX@std@@@2@XZ 0000000140003090 f i sdk_util.obj
 0001:00002090       ?_Get_scary@?$_Tree@V?$_Tmap_traits@IPEAVIUserInfo@ZOOMSDK@@U?$less@I@std@@V?$allocator@U?$pair@$$CBIPEAVIUserInfo@ZOOMSDK@@@std@@@4@$0A@@std@@@std@@IEAAPEAV?$_Tree_val@U?$_Tree_simple_types@U?$pair@$$CBIPEAVIUserInfo@ZOOMSDK@@@std@@@std@@@2@XZ 0000000140003090 f i user_manager.obj
 0001:00002090       ?_Getcomp@?$_Tree@V?$_Tset_traits@PEAVISDKInMeetingServiceMgrEvent@@U?$less@PEAVISDKInMeetingServiceMgrEvent@@@std@@V?$allocator@PEAVISDKInMeetingServiceMgrEvent@@@3@$0A@@std@@@std@@IEBAAEBU?$less@PEAVISDKInMeetingServiceMgrEvent@@@2@XZ 0000000140003090 f i sdk_util.obj
 0001:00002090       ?_Get_scary@?$_Tree@V?$_Tset_traits@PEAVIAuthServiceEvent@ZOOMSDK@@U?$less@PEAVIAuthServiceEvent@ZOOMSDK@@@std@@V?$allocator@PEAVIAuthServiceEvent@ZOOMSDK@@@4@$0A@@std@@@std@@IEAAPEAV?$_Tree_val@U?$_Tree_simple_types@PEAVIAuthServiceEvent@ZOOMSDK@@@std@@@2@XZ 0000000140003090 f i sdk_util.obj
 0001:00002090       ?_Get_scary@?$_Tree@V?$_Tmap_traits@HW4bkItemType@@U?$less@H@std@@V?$allocator@U?$pair@$$CBHW4bkItemType@@@std@@@3@$0A@@std@@@std@@IEBAPEBV?$_Tree_val@U?$_Tree_simple_types@U?$pair@$$CBHW4bkItemType@@@std@@@std@@@2@XZ 0000000140003090 f i settings_ui.obj
 0001:00002090       ?_Get_scary@?$_Tree@V?$_Tset_traits@PEAVIMeetingChatCtrlEvent@ZOOMSDK@@U?$less@PEAVIMeetingChatCtrlEvent@ZOOMSDK@@@std@@V?$allocator@PEAVIMeetingChatCtrlEvent@ZOOMSDK@@@4@$0A@@std@@@std@@IEBAPEBV?$_Tree_val@U?$_Tree_simple_types@PEAVIMeetingChatCtrlEvent@ZOOMSDK@@@std@@@2@XZ 0000000140003090 f i sdk_util.obj
 0001:00002090       ?_Get_scary@?$_Tree@V?$_Tmap_traits@HW4bkItemType@@U?$less@H@std@@V?$allocator@U?$pair@$$CBHW4bkItemType@@@std@@@3@$0A@@std@@@std@@IEAAPEAV?$_Tree_val@U?$_Tree_simple_types@U?$pair@$$CBHW4bkItemType@@@std@@@std@@@2@XZ 0000000140003090 f i settings_ui.obj
 0001:00002090       ?_Getal@?$_Tree@V?$_Tset_traits@PEAVIClosedCaptionControllerEvent@ZOOMSDK@@U?$less@PEAVIClosedCaptionControllerEvent@ZOOMSDK@@@std@@V?$allocator@PEAVIClosedCaptionControllerEvent@ZOOMSDK@@@4@$0A@@std@@@std@@IEAAAEAV?$allocator@U?$_Tree_node@PEAVIClosedCaptionControllerEvent@ZOOMSDK@@PEAX@std@@@2@XZ 0000000140003090 f i sdk_util.obj
 0001:00002090       ?_Get_scary@?$_Tree@V?$_Tset_traits@PEAVIMeetingVideoCtrlEvent@ZOOMSDK@@U?$less@PEAVIMeetingVideoCtrlEvent@ZOOMSDK@@@std@@V?$allocator@PEAVIMeetingVideoCtrlEvent@ZOOMSDK@@@4@$0A@@std@@@std@@IEBAPEBV?$_Tree_val@U?$_Tree_simple_types@PEAVIMeetingVideoCtrlEvent@ZOOMSDK@@@std@@@2@XZ 0000000140003090 f i sdk_util.obj
 0001:00002090       ?_Getal@?$_Tree@V?$_Tset_traits@PEAVIMeetingChatCtrlEvent@ZOOMSDK@@U?$less@PEAVIMeetingChatCtrlEvent@ZOOMSDK@@@std@@V?$allocator@PEAVIMeetingChatCtrlEvent@ZOOMSDK@@@4@$0A@@std@@@std@@IEAAAEAV?$allocator@U?$_Tree_node@PEAVIMeetingChatCtrlEvent@ZOOMSDK@@PEAX@std@@@2@XZ 0000000140003090 f i sdk_util.obj
 0001:00002090       ?_Getcomp@?$_Tree@V?$_Tmap_traits@HW4bkItemType@@U?$less@H@std@@V?$allocator@U?$pair@$$CBHW4bkItemType@@@std@@@3@$0A@@std@@@std@@IEBAAEBU?$less@H@2@XZ 0000000140003090 f i settings_ui.obj
 0001:00002090       ?_Getal@?$_Tree@V?$_Tset_traits@PEAVIAuthServiceEvent@ZOOMSDK@@U?$less@PEAVIAuthServiceEvent@ZOOMSDK@@@std@@V?$allocator@PEAVIAuthServiceEvent@ZOOMSDK@@@4@$0A@@std@@@std@@IEAAAEAV?$allocator@U?$_Tree_node@PEAVIAuthServiceEvent@ZOOMSDK@@PEAX@std@@@2@XZ 0000000140003090 f i sdk_util.obj
 0001:00002090       ?_Getal@?$_Tree@V?$_Tset_traits@PEAVIMeetingParticipantsCtrlEvent@ZOOMSDK@@U?$less@PEAVIMeetingParticipantsCtrlEvent@ZOOMSDK@@@std@@V?$allocator@PEAVIMeetingParticipantsCtrlEvent@ZOOMSDK@@@4@$0A@@std@@@std@@IEBAAEBV?$allocator@U?$_Tree_node@PEAVIMeetingParticipantsCtrlEvent@ZOOMSDK@@PEAX@std@@@2@XZ 0000000140003090 f i sdk_util.obj
 0001:00002090       ?_Getal@?$basic_string@_WU?$char_traits@_W@std@@V?$allocator@_W@2@@std@@AEAAAEAV?$allocator@_W@2@XZ 0000000140003090 f i AnnotateBarWindow.obj
 0001:00002090       ?_Getal@?$_Tree@V?$_Tset_traits@PEAVIMeetingServiceEvent@ZOOMSDK@@U?$less@PEAVIMeetingServiceEvent@ZOOMSDK@@@std@@V?$allocator@PEAVIMeetingServiceEvent@ZOOMSDK@@@4@$0A@@std@@@std@@IEBAAEBV?$allocator@U?$_Tree_node@PEAVIMeetingServiceEvent@ZOOMSDK@@PEAX@std@@@2@XZ 0000000140003090 f i sdk_util.obj
 0001:00002090       ?_Getcomp@?$_Tree@V?$_Tset_traits@PEAVIMeetingVideoCtrlEvent@ZOOMSDK@@U?$less@PEAVIMeetingVideoCtrlEvent@ZOOMSDK@@@std@@V?$allocator@PEAVIMeetingVideoCtrlEvent@ZOOMSDK@@@4@$0A@@std@@@std@@IEBAAEBU?$less@PEAVIMeetingVideoCtrlEvent@ZOOMSDK@@@2@XZ 0000000140003090 f i sdk_util.obj
 0001:00002090       ?_Get_scary@?$_Tree@V?$_Tset_traits@PEAVIMeetingServiceEvent@ZOOMSDK@@U?$less@PEAVIMeetingServiceEvent@ZOOMSDK@@@std@@V?$allocator@PEAVIMeetingServiceEvent@ZOOMSDK@@@4@$0A@@std@@@std@@IEBAPEBV?$_Tree_val@U?$_Tree_simple_types@PEAVIMeetingServiceEvent@ZOOMSDK@@@std@@@2@XZ 0000000140003090 f i sdk_util.obj
 0001:00002090       ?_Get_scary@?$_Tree@V?$_Tset_traits@PEAVIClosedCaptionControllerEvent@ZOOMSDK@@U?$less@PEAVIClosedCaptionControllerEvent@ZOOMSDK@@@std@@V?$allocator@PEAVIClosedCaptionControllerEvent@ZOOMSDK@@@4@$0A@@std@@@std@@IEAAPEAV?$_Tree_val@U?$_Tree_simple_types@PEAVIClosedCaptionControllerEvent@ZOOMSDK@@@std@@@2@XZ 0000000140003090 f i sdk_util.obj
 0001:00002090       ?_Get_scary@?$_Tree@V?$_Tset_traits@PEAVIAuthServiceEvent@ZOOMSDK@@U?$less@PEAVIAuthServiceEvent@ZOOMSDK@@@std@@V?$allocator@PEAVIAuthServiceEvent@ZOOMSDK@@@4@$0A@@std@@@std@@IEBAPEBV?$_Tree_val@U?$_Tree_simple_types@PEAVIAuthServiceEvent@ZOOMSDK@@@std@@@2@XZ 0000000140003090 f i sdk_util.obj
 0001:00002090       ?_Getal@?$_Tree@V?$_Tset_traits@PEAVIMeetingChatCtrlEvent@ZOOMSDK@@U?$less@PEAVIMeetingChatCtrlEvent@ZOOMSDK@@@std@@V?$allocator@PEAVIMeetingChatCtrlEvent@ZOOMSDK@@@4@$0A@@std@@@std@@IEBAAEBV?$allocator@U?$_Tree_node@PEAVIMeetingChatCtrlEvent@ZOOMSDK@@PEAX@std@@@2@XZ 0000000140003090 f i sdk_util.obj
 0001:00002090       ?_Getal@?$_Tree@V?$_Tmap_traits@HW4bkItemType@@U?$less@H@std@@V?$allocator@U?$pair@$$CBHW4bkItemType@@@std@@@3@$0A@@std@@@std@@IEAAAEAV?$allocator@U?$_Tree_node@U?$pair@$$CBHW4bkItemType@@@std@@PEAX@std@@@2@XZ 0000000140003090 f i settings_ui.obj
 0001:00002090       ?_Getal@?$vector@PEAVIVirtualBGImageInfo@ZOOMSDK@@V?$allocator@PEAVIVirtualBGImageInfo@ZOOMSDK@@@std@@@std@@AEAAAEAV?$allocator@PEAVIVirtualBGImageInfo@ZOOMSDK@@@2@XZ 0000000140003090 f i settings_ui.obj
 0001:00002090       ?_Getal@?$list@HV?$allocator@H@std@@@std@@AEAAAEAV?$allocator@U?$_List_node@HPEAX@std@@@2@XZ 0000000140003090 f i participant_ui.obj
 0001:00002090       ?_Getcomp@?$_Tree@V?$_Tmap_traits@IPEAVIUserInfo@ZOOMSDK@@U?$less@I@std@@V?$allocator@U?$pair@$$CBIPEAVIUserInfo@ZOOMSDK@@@std@@@4@$0A@@std@@@std@@IEBAAEBU?$less@I@2@XZ 0000000140003090 f i user_manager.obj
 0001:00002090       ?_Getal@?$list@HV?$allocator@H@std@@@std@@AEBAAEBV?$allocator@U?$_List_node@HPEAX@std@@@2@XZ 0000000140003090 f i participant_ui.obj
 0001:00002090       ?_Getcomp@?$_Tree@V?$_Tset_traits@PEAVIMeetingParticipantsCtrlEvent@ZOOMSDK@@U?$less@PEAVIMeetingParticipantsCtrlEvent@ZOOMSDK@@@std@@V?$allocator@PEAVIMeetingParticipantsCtrlEvent@ZOOMSDK@@@4@$0A@@std@@@std@@IEBAAEBU?$less@PEAVIMeetingParticipantsCtrlEvent@ZOOMSDK@@@2@XZ 0000000140003090 f i sdk_util.obj
 0001:00002090       ?_Getal@?$_Tree@V?$_Tset_traits@PEAVIClosedCaptionControllerEvent@ZOOMSDK@@U?$less@PEAVIClosedCaptionControllerEvent@ZOOMSDK@@@std@@V?$allocator@PEAVIClosedCaptionControllerEvent@ZOOMSDK@@@4@$0A@@std@@@std@@IEBAAEBV?$allocator@U?$_Tree_node@PEAVIClosedCaptionControllerEvent@ZOOMSDK@@PEAX@std@@@2@XZ 0000000140003090 f i sdk_util.obj
 0001:00002090       ?_Getal@?$_Tree@V?$_Tset_traits@PEAVIMeetingServiceEvent@ZOOMSDK@@U?$less@PEAVIMeetingServiceEvent@ZOOMSDK@@@std@@V?$allocator@PEAVIMeetingServiceEvent@ZOOMSDK@@@4@$0A@@std@@@std@@IEAAAEAV?$allocator@U?$_Tree_node@PEAVIMeetingServiceEvent@ZOOMSDK@@PEAX@std@@@2@XZ 0000000140003090 f i sdk_util.obj
 0001:00002090       ?_Getal@?$_Tree@V?$_Tset_traits@PEAVIMeetingVideoCtrlEvent@ZOOMSDK@@U?$less@PEAVIMeetingVideoCtrlEvent@ZOOMSDK@@@std@@V?$allocator@PEAVIMeetingVideoCtrlEvent@ZOOMSDK@@@4@$0A@@std@@@std@@IEBAAEBV?$allocator@U?$_Tree_node@PEAVIMeetingVideoCtrlEvent@ZOOMSDK@@PEAX@std@@@2@XZ 0000000140003090 f i sdk_util.obj
 0001:00002090       ?_Get_scary@?$_Tree@V?$_Tset_traits@PEAVIMeetingParticipantsCtrlEvent@ZOOMSDK@@U?$less@PEAVIMeetingParticipantsCtrlEvent@ZOOMSDK@@@std@@V?$allocator@PEAVIMeetingParticipantsCtrlEvent@ZOOMSDK@@@4@$0A@@std@@@std@@IEBAPEBV?$_Tree_val@U?$_Tree_simple_types@PEAVIMeetingParticipantsCtrlEvent@ZOOMSDK@@@std@@@2@XZ 0000000140003090 f i sdk_util.obj
 0001:00002090       ?_Get_scary@?$_Tree@V?$_Tset_traits@PEAVISDKInMeetingServiceMgrEvent@@U?$less@PEAVISDKInMeetingServiceMgrEvent@@@std@@V?$allocator@PEAVISDKInMeetingServiceMgrEvent@@@3@$0A@@std@@@std@@IEAAPEAV?$_Tree_val@U?$_Tree_simple_types@PEAVISDKInMeetingServiceMgrEvent@@@std@@@2@XZ 0000000140003090 f i sdk_util.obj
 0001:00002090       ?_Get_scary@?$_Tree@V?$_Tset_traits@PEAVIMeetingChatCtrlEvent@ZOOMSDK@@U?$less@PEAVIMeetingChatCtrlEvent@ZOOMSDK@@@std@@V?$allocator@PEAVIMeetingChatCtrlEvent@ZOOMSDK@@@4@$0A@@std@@@std@@IEAAPEAV?$_Tree_val@U?$_Tree_simple_types@PEAVIMeetingChatCtrlEvent@ZOOMSDK@@@std@@@2@XZ 0000000140003090 f i sdk_util.obj
 0001:00002090       ?_Getal@?$vector@V?$basic_string@_WU?$char_traits@_W@std@@V?$allocator@_W@2@@std@@V?$allocator@V?$basic_string@_WU?$char_traits@_W@std@@V?$allocator@_W@2@@std@@@2@@std@@AEAAAEAV?$allocator@V?$basic_string@_WU?$char_traits@_W@std@@V?$allocator@_W@2@@std@@@2@XZ 0000000140003090 f i custom_ui_share_flow.obj
 0001:00002090       ?_Getal@?$_Tree@V?$_Tmap_traits@HW4bkItemType@@U?$less@H@std@@V?$allocator@U?$pair@$$CBHW4bkItemType@@@std@@@3@$0A@@std@@@std@@IEBAAEBV?$allocator@U?$_Tree_node@U?$pair@$$CBHW4bkItemType@@@std@@PEAX@std@@@2@XZ 0000000140003090 f i settings_ui.obj
 0001:00002090       ?_Get_scary@?$_Tree@V?$_Tmap_traits@IPEAVIUserInfo@ZOOMSDK@@U?$less@I@std@@V?$allocator@U?$pair@$$CBIPEAVIUserInfo@ZOOMSDK@@@std@@@4@$0A@@std@@@std@@IEBAPEBV?$_Tree_val@U?$_Tree_simple_types@U?$pair@$$CBIPEAVIUserInfo@ZOOMSDK@@@std@@@std@@@2@XZ 0000000140003090 f i user_manager.obj
 0001:00002090       ?_Getcomp@?$_Tree@V?$_Tset_traits@PEAVIMeetingChatCtrlEvent@ZOOMSDK@@U?$less@PEAVIMeetingChatCtrlEvent@ZOOMSDK@@@std@@V?$allocator@PEAVIMeetingChatCtrlEvent@ZOOMSDK@@@4@$0A@@std@@@std@@IEBAAEBU?$less@PEAVIMeetingChatCtrlEvent@ZOOMSDK@@@2@XZ 0000000140003090 f i sdk_util.obj
 0001:00002090       ?_Getal@?$_Tree@V?$_Tset_traits@PEAVIMeetingVideoCtrlEvent@ZOOMSDK@@U?$less@PEAVIMeetingVideoCtrlEvent@ZOOMSDK@@@std@@V?$allocator@PEAVIMeetingVideoCtrlEvent@ZOOMSDK@@@4@$0A@@std@@@std@@IEAAAEAV?$allocator@U?$_Tree_node@PEAVIMeetingVideoCtrlEvent@ZOOMSDK@@PEAX@std@@@2@XZ 0000000140003090 f i sdk_util.obj
 0001:00002090       ?_Getcomp@?$_Tree@V?$_Tset_traits@PEAVIClosedCaptionControllerEvent@ZOOMSDK@@U?$less@PEAVIClosedCaptionControllerEvent@ZOOMSDK@@@std@@V?$allocator@PEAVIClosedCaptionControllerEvent@ZOOMSDK@@@4@$0A@@std@@@std@@IEBAAEBU?$less@PEAVIClosedCaptionControllerEvent@ZOOMSDK@@@2@XZ 0000000140003090 f i sdk_util.obj
 0001:00002090       ?_Getal@?$vector@PEAVIUserInfo@ZOOMSDK@@V?$allocator@PEAVIUserInfo@ZOOMSDK@@@std@@@std@@AEBAAEBV?$allocator@PEAVIUserInfo@ZOOMSDK@@@2@XZ 0000000140003090 f i user_manager.obj
 0001:00002090       ?_Get_scary@?$_Tree@V?$_Tset_traits@PEAVIMeetingParticipantsCtrlEvent@ZOOMSDK@@U?$less@PEAVIMeetingParticipantsCtrlEvent@ZOOMSDK@@@std@@V?$allocator@PEAVIMeetingParticipantsCtrlEvent@ZOOMSDK@@@4@$0A@@std@@@std@@IEAAPEAV?$_Tree_val@U?$_Tree_simple_types@PEAVIMeetingParticipantsCtrlEvent@ZOOMSDK@@@std@@@2@XZ 0000000140003090 f i sdk_util.obj
 0001:000020b0       ?_Large_string_engaged@?$_String_val@U?$_Simple_types@_W@std@@@std@@QEBA_NXZ 00000001400030b0 f i AnnotateBarWindow.obj
 0001:000020e0       ?_Myptr@?$_String_val@U?$_Simple_types@_W@std@@@std@@QEAAPEA_WXZ 00000001400030e0 f i AnnotateBarWindow.obj
 0001:000020e0       ?_Myptr@?$_String_val@U?$_Simple_types@_W@std@@@std@@QEBAPEB_WXZ 00000001400030e0 f i AnnotateBarWindow.obj
 0001:00002120       ?_Throw_bad_array_new_length@std@@YAXXZ 0000000140003120 f i AnnotateBarWindow.obj
 0001:00002150       ?_Tidy_deallocate@?$basic_string@_WU?$char_traits@_W@std@@V?$allocator@_W@2@@std@@AEAAXXZ 0000000140003150 f i AnnotateBarWindow.obj
 0001:00002210       ?_Tidy_init@?$basic_string@_WU?$char_traits@_W@std@@V?$allocator@_W@2@@std@@AEAAXXZ 0000000140003210 f i AnnotateBarWindow.obj
 0001:00002270       ?_Xlen_string@std@@YAXXZ   0000000140003270 f i AnnotateBarWindow.obj
 0001:00002290       ?allocate@?$allocator@_W@std@@QEAAPEA_W_K@Z 0000000140003290 f i AnnotateBarWindow.obj
 0001:000022c0       ?assign@?$_WChar_traits@_W@std@@SAXAEA_WAEB_W@Z 00000001400032c0 f i AnnotateBarWindow.obj
 0001:000022e0       ?assign@?$basic_string@_WU?$char_traits@_W@std@@V?$allocator@_W@2@@std@@QEAAAEAV12@QEB_W@Z 00000001400032e0 f i AnnotateBarWindow.obj
 0001:00002320       ?assign@?$basic_string@_WU?$char_traits@_W@std@@V?$allocator@_W@2@@std@@QEAAAEAV12@QEB_W_K@Z 0000000140003320 f i AnnotateBarWindow.obj
 0001:000023e0       ?compare@?$_WChar_traits@_W@std@@SAHQEB_W0_K@Z 00000001400033e0 f i AnnotateBarWindow.obj
 0001:00002410       ?copy@?$_Char_traits@_WG@std@@SAPEA_WQEA_WQEB_W_K@Z 0000000140003410 f i AnnotateBarWindow.obj
 0001:00002440       ?deallocate@?$allocator@_W@std@@QEAAXQEA_W_K@Z 0000000140003440 f i AnnotateBarWindow.obj
 0001:00002470       ?length@?$_WChar_traits@_W@std@@SA_KPEB_W@Z 0000000140003470 f i AnnotateBarWindow.obj
 0001:000024b0       ?max@?$numeric_limits@_J@std@@SA_JXZ 00000001400034b0 f i AnnotateBarWindow.obj
 0001:000024c0       ?max_size@?$_Default_allocator_traits@V?$allocator@_W@std@@@std@@SA_KAEBV?$allocator@_W@2@@Z 00000001400034c0 f i AnnotateBarWindow.obj
 0001:000024d0       ?max_size@?$basic_string@_WU?$char_traits@_W@std@@V?$allocator@_W@2@@std@@QEBA_KXZ 00000001400034d0 f i AnnotateBarWindow.obj
 0001:00002540       ?move@?$_Char_traits@_WG@std@@SAPEA_WQEA_WQEB_W_K@Z 0000000140003540 f i AnnotateBarWindow.obj
 0001:00002580       ?onClickClear@AnnotateBarWindow@@AEAAXPEAVICustomizedAnnotationObj@ZOOMSDK@@@Z 0000000140003580 f   AnnotateBarWindow.obj
 0001:00002730       ?onClickDraw@AnnotateBarWindow@@AEAAXPEAVICustomizedAnnotationObj@ZOOMSDK@@@Z 0000000140003730 f   AnnotateBarWindow.obj
 0001:000028a0       ?onClickFormat@AnnotateBarWindow@@AEAAXPEAVICustomizedAnnotationObj@ZOOMSDK@@@Z 00000001400038a0 f   AnnotateBarWindow.obj
 0001:00002a10       ?onClickSpotlight@AnnotateBarWindow@@AEAAXPEAVICustomizedAnnotationObj@ZOOMSDK@@@Z 0000000140003a10 f   AnnotateBarWindow.obj
 0001:00002b80       ?onClickStamp@AnnotateBarWindow@@AEAAXPEAVICustomizedAnnotationObj@ZOOMSDK@@@Z 0000000140003b80 f   AnnotateBarWindow.obj
 0001:00002cf0       ?what@exception@std@@UEBAPEBDXZ 0000000140003cf0 f i AnnotateBarWindow.obj
 0001:00002d30       HRESULT_FROM_WIN32         0000000140003d30 f i AnnotateBarWindow.obj
 0001:00002d70       wmemcmp                    0000000140003d70 f i AnnotateBarWindow.obj
 0001:00002e00       ??0AnnotateClearWindow@@QEAA@PEAVICustomizedAnnotationObj@ZOOMSDK@@@Z 0000000140003e00 f   AnnotateClearWindow.obj
 0001:00002eb0       ??1AnnotateClearWindow@@QEAA@XZ 0000000140003eb0 f   AnnotateClearWindow.obj
 0001:00002f10       ?GetSkinRes@AnnotateClearWindow@@UEAAIXZ 0000000140003f10 f i AnnotateClearWindow.obj
 0001:00002f20       ?HandleMessage@AnnotateClearWindow@@UEAA_JI_K_J@Z 0000000140003f20 f   AnnotateClearWindow.obj
 0001:000031a0       ?InitWindow@AnnotateClearWindow@@UEAAXXZ 00000001400041a0 f   AnnotateClearWindow.obj
 0001:00003220       ?MoveWindowPosTo@AnnotateClearWindow@@QEAAXPEAUHWND__@@@Z 0000000140004220 f   AnnotateClearWindow.obj
 0001:000032f0       ?Notify@AnnotateClearWindow@@UEAAXAEAUtagTNotifyUI@DuiLib@@@Z 00000001400042f0 f   AnnotateClearWindow.obj
 0001:000033d0       ??0AnnotateDrawWindow@@QEAA@PEAVICustomizedAnnotationObj@ZOOMSDK@@@Z 00000001400043d0 f   AnnotateDrawWindow.obj
 0001:00003510       ??1AnnotateDrawWindow@@QEAA@XZ 0000000140004510 f   AnnotateDrawWindow.obj
 0001:00003570       ?GetSkinRes@AnnotateDrawWindow@@UEAAIXZ 0000000140004570 f i AnnotateDrawWindow.obj
 0001:00003580       ?HandleMessage@AnnotateDrawWindow@@UEAA_JI_K_J@Z 0000000140004580 f   AnnotateDrawWindow.obj
 0001:00003800       ?InitWindow@AnnotateDrawWindow@@UEAAXXZ 0000000140004800 f   AnnotateDrawWindow.obj
 0001:000039c0       ?MoveWindowPosTo@AnnotateDrawWindow@@QEAAXPEAUHWND__@@@Z 00000001400049c0 f   AnnotateDrawWindow.obj
 0001:00003a90       ?Notify@AnnotateDrawWindow@@UEAAXAEAUtagTNotifyUI@DuiLib@@@Z 0000000140004a90 f   AnnotateDrawWindow.obj
 0001:00003dd0       ??0AnnotateFormatWindow@@QEAA@PEAVICustomizedAnnotationObj@ZOOMSDK@@@Z 0000000140004dd0 f   AnnotateFormatWindow.obj
 0001:00003fa0       ??1AnnotateFormatWindow@@QEAA@XZ 0000000140004fa0 f   AnnotateFormatWindow.obj
 0001:00004000       ?GetSkinRes@AnnotateFormatWindow@@UEAAIXZ 0000000140005000 f i AnnotateFormatWindow.obj
 0001:00004010       ?HandleMessage@AnnotateFormatWindow@@UEAA_JI_K_J@Z 0000000140005010 f   AnnotateFormatWindow.obj
 0001:00004290       ?InitWindow@AnnotateFormatWindow@@UEAAXXZ 0000000140005290 f   AnnotateFormatWindow.obj
 0001:00004570       ?MoveWindowPosTo@AnnotateFormatWindow@@QEAAXPEAUHWND__@@@Z 0000000140005570 f   AnnotateFormatWindow.obj
 0001:00004640       ?Notify@AnnotateFormatWindow@@UEAAXAEAUtagTNotifyUI@DuiLib@@@Z 0000000140005640 f   AnnotateFormatWindow.obj
 0001:00004ae0       ?onClickColor@AnnotateFormatWindow@@AEAAXH@Z 0000000140005ae0 f   AnnotateFormatWindow.obj
 0001:00004c30       ??0AnnotateSpolightWindow@@QEAA@PEAVICustomizedAnnotationObj@ZOOMSDK@@@Z 0000000140005c30 f   AnnotateSpolightWindow.obj
 0001:00004cd0       ??1AnnotateSpolightWindow@@QEAA@XZ 0000000140005cd0 f   AnnotateSpolightWindow.obj
 0001:00004d30       ?GetSkinRes@AnnotateSpolightWindow@@UEAAIXZ 0000000140005d30 f i AnnotateSpolightWindow.obj
 0001:00004d40       ?HandleMessage@AnnotateSpolightWindow@@UEAA_JI_K_J@Z 0000000140005d40 f   AnnotateSpolightWindow.obj
 0001:00004fc0       ?InitWindow@AnnotateSpolightWindow@@UEAAXXZ 0000000140005fc0 f   AnnotateSpolightWindow.obj
 0001:00005020       ?MoveWindowPosTo@AnnotateSpolightWindow@@QEAAXPEAUHWND__@@@Z 0000000140006020 f   AnnotateSpolightWindow.obj
 0001:000050f0       ?Notify@AnnotateSpolightWindow@@UEAAXAEAUtagTNotifyUI@DuiLib@@@Z 00000001400060f0 f   AnnotateSpolightWindow.obj
 0001:000051b0       ??0AnnotateStampWindow@@QEAA@PEAVICustomizedAnnotationObj@ZOOMSDK@@@Z 00000001400061b0 f   AnnotateStampWindow.obj
 0001:00005290       ??1AnnotateStampWindow@@QEAA@XZ 0000000140006290 f   AnnotateStampWindow.obj
 0001:000052f0       ?GetSkinRes@AnnotateStampWindow@@UEAAIXZ 00000001400062f0 f i AnnotateStampWindow.obj
 0001:00005300       ?HandleMessage@AnnotateStampWindow@@UEAA_JI_K_J@Z 0000000140006300 f   AnnotateStampWindow.obj
 0001:00005580       ?InitWindow@AnnotateStampWindow@@UEAAXXZ 0000000140006580 f   AnnotateStampWindow.obj
 0001:00005670       ?MoveWindowPosTo@AnnotateStampWindow@@QEAAXPEAUHWND__@@@Z 0000000140006670 f   AnnotateStampWindow.obj
 0001:00005740       ?Notify@AnnotateStampWindow@@UEAAXAEAUtagTNotifyUI@DuiLib@@@Z 0000000140006740 f   AnnotateStampWindow.obj
 0001:00005890       ??0CArrowWindow@@QEAA@PEAVCCustomizeInMeetingUIMgr@@@Z 0000000140006890 f   arrow_window.obj
 0001:00005940       ??1CArrowWindow@@QEAA@XZ   0000000140006940 f   arrow_window.obj
 0001:000059a0       ?DestroyWindow@CParticipantUIMgr@@QEAA_NXZ 00000001400069a0 f   participant_ui.obj
 0001:000059a0       ?DestroyWindow@CToolbarBottom@@QEAA_NXZ 00000001400069a0 f   toolbar_bottom_ui.obj
 0001:000059a0       ?DestroyWindow@CArrowWindow@@QEAA_NXZ 00000001400069a0 f   arrow_window.obj
 0001:000059f0       ?DoButtonClick@CArrowWindow@@AEAAXW4ArrowButtonType@@@Z 00000001400069f0 f   arrow_window.obj
 0001:00005a20       ?EnableUsingButton@CArrowWindow@@QEAAXW4ArrowButtonType@@_N@Z 0000000140006a20 f   arrow_window.obj
 0001:00005b90       ?GetClassStyle@CMoreFeaturesUIMgr@@UEBAIXZ 0000000140006b90 f i more_features_ui.obj
 0001:00005b90       ?GetClassStyle@CCustomizeUIShareSelectUI@@UEBAIXZ 0000000140006b90 f i custom_ui_share_mgr.obj
 0001:00005b90       ?GetClassStyle@CParticipantUIMgr@@UEBAIXZ 0000000140006b90 f i participant_ui.obj
 0001:00005b90       ?GetClassStyle@CUtilWnd@@UEBAIXZ 0000000140006b90 f i util_window.obj
 0001:00005b90       ?GetClassStyle@CArrowWindow@@UEBAIXZ 0000000140006b90 f i arrow_window.obj
 0001:00005b90       ?GetClassStyle@CMoreMenuUIMgr@@UEBAIXZ 0000000140006b90 f i more_menu_ui.obj
 0001:00005b90       ?GetClassStyle@CToolbarBottom@@UEBAIXZ 0000000140006b90 f i toolbar_bottom_ui.obj
 0001:00005ba0       ?GetSkinRes@CArrowWindow@@UEAAIXZ 0000000140006ba0 f i arrow_window.obj
 0001:00005bb0       ?HandleMessage@CArrowWindow@@UEAA_JI_K_J@Z 0000000140006bb0 f   arrow_window.obj
 0001:00005d90       ?HandleSizeChanged@CArrowWindow@@QEAAXUtagRECT@@@Z 0000000140006d90 f   arrow_window.obj
 0001:00005f40       ?InitWindow@CArrowWindow@@UEAAXXZ 0000000140006f40 f   arrow_window.obj
 0001:000060c0       ?IsWindow@CToolbarBottom@@QEAA_NXZ 00000001400070c0 f   toolbar_bottom_ui.obj
 0001:000060c0       ?IsWindow@CArrowWindow@@QEAA_NXZ 00000001400070c0 f   arrow_window.obj
 0001:000060c0       ?IsWindow@CParticipantUIMgr@@QEAA_NXZ 00000001400070c0 f   participant_ui.obj
 0001:00006100       ?Notify@CArrowWindow@@UEAAXAEAUtagTNotifyUI@DuiLib@@@Z 0000000140007100 f   arrow_window.obj
 0001:00006190       ??0CameraControlWindow@@QEAA@PEAVCCustomizeInMeetingUIMgr@@@Z 0000000140007190 f   CameraControlWindow.obj
 0001:00006270       ?GetSkinRes@CameraControlWindow@@UEAAIXZ 0000000140007270 f i CameraControlWindow.obj
 0001:00006280       ?HandleMessage@CameraControlWindow@@UEAA_JI_K_J@Z 0000000140007280 f   CameraControlWindow.obj
 0001:000064e0       ?InitWindow@CameraControlWindow@@UEAAXXZ 00000001400074e0 f   CameraControlWindow.obj
 0001:00006680       ?Notify@CameraControlWindow@@UEAAXAEAUtagTNotifyUI@DuiLib@@@Z 0000000140007680 f   CameraControlWindow.obj
 0001:000069e0       ??$?0V?$allocator@_W@std@@$$V@?$_Compressed_pair@V?$allocator@_W@std@@V?$_String_val@U?$_Simple_types@_W@std@@@2@$00@std@@QEAA@U_One_then_variadic_args_t@1@$$QEAV?$allocator@_W@1@@Z 00000001400079e0 f i chat_controller_ui.obj
 0001:000069e0       ??$?0AEAV?$allocator@_W@std@@$$V@?$_Compressed_pair@V?$allocator@_W@std@@V?$_String_val@U?$_Simple_types@_W@std@@@2@$00@std@@QEAA@U_One_then_variadic_args_t@1@AEAV?$allocator@_W@1@@Z 00000001400079e0 f i chat_controller_ui.obj
 0001:000069e0       ??$?0AEBV?$allocator@_W@std@@$$V@?$_Compressed_pair@V?$allocator@_W@std@@V?$_String_val@U?$_Simple_types@_W@std@@@2@$00@std@@QEAA@U_One_then_variadic_args_t@1@AEBV?$allocator@_W@1@@Z 00000001400079e0 f i join_webinar_wnd_ui.obj
 0001:00006a20       ??$?H_WU?$char_traits@_W@std@@V?$allocator@_W@1@@std@@YA?AV?$basic_string@_WU?$char_traits@_W@std@@V?$allocator@_W@2@@0@$$QEAV10@0@Z 0000000140007a20 f i chat_controller_ui.obj
 0001:00006a70       ??$?H_WU?$char_traits@_W@std@@V?$allocator@_W@1@@std@@YA?AV?$basic_string@_WU?$char_traits@_W@std@@V?$allocator@_W@2@@0@$$QEAV10@AEBV10@@Z 0000000140007a70 f i chat_controller_ui.obj
 0001:00006ad0       ??$?H_WU?$char_traits@_W@std@@V?$allocator@_W@1@@std@@YA?AV?$basic_string@_WU?$char_traits@_W@std@@V?$allocator@_W@2@@0@$$QEAV10@QEB_W@Z 0000000140007ad0 f i chat_controller_ui.obj
 0001:00006b30       ??$_Allocators_equal@V?$allocator@_W@std@@@std@@YA_NAEBV?$allocator@_W@0@0@Z 0000000140007b30 f i chat_controller_ui.obj
 0001:00006b40       ??$_Pocma@V?$allocator@_W@std@@@std@@YAXAEAV?$allocator@_W@0@0@Z 0000000140007b40 f i chat_controller_ui.obj
 0001:00006b60       ??$_Reallocate_grow_by@V<lambda_1dfe18491bcca09701d8ccb01d0b0af4>@@PEB_W_K@?$basic_string@_WU?$char_traits@_W@std@@V?$allocator@_W@2@@std@@AEAAAEAV01@_KV<lambda_1dfe18491bcca09701d8ccb01d0b0af4>@@PEB_W_K@Z 0000000140007b60 f i chat_controller_ui.obj
 0001:00006d30       ??0?$basic_string@_WU?$char_traits@_W@std@@V?$allocator@_W@2@@std@@QEAA@$$QEAV01@@Z 0000000140007d30 f i chat_controller_ui.obj
 0001:00006d90       ??0?$basic_string@_WU?$char_traits@_W@std@@V?$allocator@_W@2@@std@@QEAA@U_String_constructor_concat_tag@1@AEAV01@1@Z 0000000140007d90 f i chat_controller_ui.obj
 0001:000071a0       ??0?$basic_string@_WU?$char_traits@_W@std@@V?$allocator@_W@2@@std@@QEAA@XZ 00000001400081a0 f i chat_controller_ui.obj
 0001:000071f0       ??0CSDKMeetingChatUIMgr@@QEAA@PEAVCCustomizeInMeetingUIMgr@@@Z 00000001400081f0 f   chat_controller_ui.obj
 0001:000072f0       ??0IMeetingChatCtrlEventWrap@@QEAA@XZ 00000001400082f0 f i chat_controller_ui.obj
 0001:00007310       ??1CSDKMeetingChatUIMgr@@UEAA@XZ 0000000140008310 f   chat_controller_ui.obj
 0001:000073e0       ??4?$basic_string@_WU?$char_traits@_W@std@@V?$allocator@_W@2@@std@@QEAAAEAV01@$$QEAV01@@Z 00000001400083e0 f i chat_controller_ui.obj
 0001:00007440       ??R<lambda_1dfe18491bcca09701d8ccb01d0b0af4>@@QEBA@QEA_WQEB_W_K12@Z 0000000140008440 f i chat_controller_ui.obj
 0001:000074c0       ??_ECSDKMeetingChatUIMgr@@UEAAPEAXI@Z 00000001400084c0 f i chat_controller_ui.obj
 0001:000074c0       ??_GCSDKMeetingChatUIMgr@@UEAAPEAXI@Z 00000001400084c0 f i chat_controller_ui.obj
 0001:00007500       ?DestroyWindow@CCustomizeUIShareSelectUI@@QEAA_NXZ 0000000140008500 f   custom_ui_share_mgr.obj
 0001:00007500       ?DestroyWindow@CSDKMeetingChatUIMgr@@QEAA_NXZ 0000000140008500 f   chat_controller_ui.obj
 0001:00007550       ?DoPressEnterKey@CSDKMeetingChatUIMgr@@AEAAXXZ 0000000140008550 f   chat_controller_ui.obj
 0001:00007b10       ?GetSkinRes@CSDKMeetingChatUIMgr@@UEAAIXZ 0000000140008b10 f i chat_controller_ui.obj
 0001:00007b20       ?GetUserList@CSDKMeetingChatUIMgr@@AEAAXXZ 0000000140008b20 f   chat_controller_ui.obj
 0001:00007b70       ?HandleMessage@CSDKMeetingChatUIMgr@@UEAA_JI_K_J@Z 0000000140008b70 f   chat_controller_ui.obj
 0001:00007dd0       ?HandleUserChanged@CSDKMeetingChatUIMgr@@QEAAXXZ 0000000140008dd0 f   chat_controller_ui.obj
 0001:00007e00       ?InitWindow@CSDKMeetingChatUIMgr@@UEAAXXZ 0000000140008e00 f   chat_controller_ui.obj
 0001:000080b0       ?Notify@CSDKMeetingChatUIMgr@@UEAAXAEAUtagTNotifyUI@DuiLib@@@Z 00000001400090b0 f   chat_controller_ui.obj
 0001:000081f0       ?OnClose@CSDKMeetingChatUIMgr@@QEAA_JI_K_JAEAH@Z 00000001400091f0 f   chat_controller_ui.obj
 0001:00008240       ?OnDestroy@CSDKMeetingChatUIMgr@@QEAA_JI_K_JAEAH@Z 0000000140009240 f   chat_controller_ui.obj
 0001:00008280       ?ParseChatMsgType@CSDKMeetingChatUIMgr@@AEAA?AW4SDKChatMessageType@ZOOMSDK@@XZ 0000000140009280 f   chat_controller_ui.obj
 0001:000083d0       ?SendChatMsg@CSDKMeetingChatUIMgr@@AEAA_NIPEA_WW4SDKChatMessageType@ZOOMSDK@@@Z 00000001400093d0 f   chat_controller_ui.obj
 0001:00008430       ?UpdateUserListCombox@CSDKMeetingChatUIMgr@@AEAAXXZ 0000000140009430 f   chat_controller_ui.obj
 0001:000086c0       ?_Memcpy_val_from@?$basic_string@_WU?$char_traits@_W@std@@V?$allocator@_W@2@@std@@AEAAXAEBV12@@Z 00000001400096c0 f i chat_controller_ui.obj
 0001:00008710       ?_Move_assign@?$basic_string@_WU?$char_traits@_W@std@@V?$allocator@_W@2@@std@@AEAAXAEAV12@U_Equal_allocators@2@@Z 0000000140009710 f i chat_controller_ui.obj
 0001:00008770       ?_Swap_proxy_and_iterators@?$basic_string@_WU?$char_traits@_W@std@@V?$allocator@_W@2@@std@@AEAAXAEAV12@@Z 0000000140009770 f i chat_controller_ui.obj
 0001:000087a0       ?_Take_contents@?$basic_string@_WU?$char_traits@_W@std@@V?$allocator@_W@2@@std@@AEAAXAEAV12@@Z 00000001400097a0 f i chat_controller_ui.obj
 0001:00008890       ?append@?$basic_string@_WU?$char_traits@_W@std@@V?$allocator@_W@2@@std@@QEAAAEAV12@AEBV12@@Z 0000000140009890 f i chat_controller_ui.obj
 0001:000088d0       ?append@?$basic_string@_WU?$char_traits@_W@std@@V?$allocator@_W@2@@std@@QEAAAEAV12@QEB_W@Z 00000001400098d0 f i chat_controller_ui.obj
 0001:00008910       ?append@?$basic_string@_WU?$char_traits@_W@std@@V?$allocator@_W@2@@std@@QEAAAEAV12@QEB_W_K@Z 0000000140009910 f i chat_controller_ui.obj
 0001:00008a10       ?c_str@?$basic_string@_WU?$char_traits@_W@std@@V?$allocator@_W@2@@std@@QEBAPEB_WXZ 0000000140009a10 f i chat_controller_ui.obj
 0001:00008a30       ?onChatMsgNotifcation@CSDKMeetingChatUIMgr@@UEAAXPEAVIChatMsgInfo@ZOOMSDK@@PEB_W@Z 0000000140009a30 f   chat_controller_ui.obj
 0001:00009330       ?GetParentWnd@CToolbarMgr@@QEAAPEAUHWND__@@XZ 000000014000a330 f i toolbar_manager.obj
 0001:00009330       ?GetFn@CDelegateBase@DuiLib@@IEAAPEAXXZ 000000014000a330 f i DuiLib64:UIDelegate.obj
 0001:00009330       ?length@?$basic_string@_WU?$char_traits@_W@std@@V?$allocator@_W@2@@std@@QEBA_KXZ 000000014000a330 f i custom_ui_share_mgr.obj
 0001:00009330       ?size@?$basic_string@_WU?$char_traits@_W@std@@V?$allocator@_W@2@@std@@QEBA_KXZ 000000014000a330 f i chat_controller_ui.obj
 0001:00009340       ??0CSDKChatControllerWorkFlow@@QEAA@XZ 000000014000a340 f   chat_controller_workflow.obj
 0001:000093b0       ??0IMeetingChatCtrlEvent@ZOOMSDK@@QEAA@XZ 000000014000a3b0 f i chat_controller_workflow.obj
 0001:000093d0       ??1CSDKChatControllerWorkFlow@@UEAA@XZ 000000014000a3d0 f   chat_controller_workflow.obj
 0001:00009440       ??1IMeetingChatCtrlEvent@ZOOMSDK@@UEAA@XZ 000000014000a440 f i chat_controller_workflow.obj
 0001:00009460       ??_ECSDKChatControllerWorkFlow@@UEAAPEAXI@Z 000000014000a460 f i chat_controller_workflow.obj
 0001:00009460       ??_GCSDKChatControllerWorkFlow@@UEAAPEAXI@Z 000000014000a460 f i chat_controller_workflow.obj
 0001:000094a0       ??_EIMeetingChatCtrlEvent@ZOOMSDK@@UEAAPEAXI@Z 000000014000a4a0 f i chat_controller_workflow.obj
 0001:000094a0       ??_GIMeetingChatCtrlEvent@ZOOMSDK@@UEAAPEAXI@Z 000000014000a4a0 f i chat_controller_workflow.obj
 0001:000094e0       ?InitController@CSDKChatControllerWorkFlow@@QEAA_NXZ 000000014000a4e0 f   chat_controller_workflow.obj
 0001:00009580       ?SendChatMsg@CSDKChatControllerWorkFlow@@QEAA?AW4SDKError@ZOOMSDK@@IPEA_WW4SDKChatMessageType@3@@Z 000000014000a580 f   chat_controller_workflow.obj
 0001:000095e0       ?SetEvent@CSDKChatControllerWorkFlow@@QEAAXPEAVIMeetingChatCtrlEventWrap@@@Z 000000014000a5e0 f   chat_controller_workflow.obj
 0001:00009610       ?UnInit@CSDKChatControllerWorkFlow@@QEAAXXZ 000000014000a610 f   chat_controller_workflow.obj
 0001:00009670       ?onRenderDataTypeChanged@CCustomizeInMeetingUIMgr@@UEAAXPEAVIVideoRenderElement@ZOOMSDK@@W4VideoRenderDataType@3@@Z 000000014000a670 f i custom_ui_mgr.obj
 0001:00009670       ?onChatMsgDeleteNotification@CSDKChatControllerWorkFlow@@UEAAXPEB_WW4SDKChatMessageDeleteType@ZOOMSDK@@@Z 000000014000a670 f i chat_controller_workflow.obj
 0001:00009670       ?onChatMsgDeleteNotification@CSDKCustomUIWorkFlow@@UEAAXPEB_WW4SDKChatMessageDeleteType@ZOOMSDK@@@Z 000000014000a670 f i custom_ui_mgr_flow.obj
 0001:00009670       ?onRenderUserChanged@CCustomizeInMeetingUIMgr@@UEAAXPEAVIVideoRenderElement@ZOOMSDK@@I@Z 000000014000a670 f i custom_ui_mgr.obj
 0001:00009680       ?onChatMsgNotifcation@CSDKChatControllerWorkFlow@@UEAAXPEAVIChatMsgInfo@ZOOMSDK@@PEB_W@Z 000000014000a680 f   chat_controller_workflow.obj
 0001:000096d0       ?onChatStautsChangedNotification@CSDKChatControllerWorkFlow@@UEAAXPEAUtagChatStatus@ZOOMSDK@@@Z 000000014000a6d0 f   chat_controller_workflow.obj
 0001:00009710       ?onRequestLiveTranscriptionStatusChange@CSDKCustomUIWorkFlow@@UEAAX_N@Z 000000014000a710 f i custom_ui_mgr_flow.obj
 0001:00009710       ?OnNoAudioDeviceIsUseful@CSDKCustomUIWorkFlow@@UEAAX_N@Z 000000014000a710 f i custom_ui_mgr_flow.obj
 0001:00009710       ?onRecordPriviligeChanged@CSDKCustomUIWorkFlow@@UEAAX_N@Z 000000014000a710 f i custom_ui_mgr_flow.obj
 0001:00009710       ?onShareMeetingChatStatusChanged@CSDKCustomUIWorkFlow@@UEAAX_N@Z 000000014000a710 f i custom_ui_mgr_flow.obj
 0001:00009710       ?onFollowHostVideoOrderChanged@CUtilWnd@@UEAAX_N@Z 000000014000a710 f i util_window.obj
 0001:00009710       ?onFollowHostVideoOrderChanged@SDKInterfaceWrap@@UEAAX_N@Z 000000014000a710 f i sdk_util.obj
 0001:00009710       ?onLockShareStatus@CSDKCustomUIWorkFlow@@UEAAX_N@Z 000000014000a710 f i custom_ui_mgr_flow.obj
 0001:00009710       ?onFollowHostVideoOrderChanged@CSDKCustomUIWorkFlow@@UEAAX_N@Z 000000014000a710 f i custom_ui_mgr_flow.obj
 0001:00009710       ?onAssignedToSendCC@CSDKCustomUIWorkFlow@@UEAAX_N@Z 000000014000a710 f i custom_ui_mgr_flow.obj
 0001:00009710       ?onShareMeetingChatStatusChanged@CSDKChatControllerWorkFlow@@UEAAX_N@Z 000000014000a710 f i chat_controller_workflow.obj
 0001:00009710       ?onRequestLiveTranscriptionStatusChange@CCloseCaptionWorkflow@@UEAAX_N@Z 000000014000a710 f i close_caption_workflow.obj
 0001:00009710       ?onRequestLiveTranscriptionStatusChange@SDKInterfaceWrap@@UEAAX_N@Z 000000014000a710 f i sdk_util.obj
 0001:00009720       ??$?8_WU?$char_traits@_W@std@@V?$allocator@_W@1@@std@@YA_NQEB_WAEBV?$basic_string@_WU?$char_traits@_W@std@@V?$allocator@_W@2@@0@@Z 000000014000a720 f i close_caption_ui.obj
 0001:00009750       ??0CCloseCaptionUIMgr@@QEAA@PEAVCCustomizeInMeetingUIMgr@@@Z 000000014000a750 f   close_caption_ui.obj
 0001:00009830       ??0IClosedCaptionWorkflowEvent@@QEAA@XZ 000000014000a830 f i close_caption_ui.obj
 0001:00009850       ??1CCloseCaptionUIMgr@@UEAA@XZ 000000014000a850 f   close_caption_ui.obj
 0001:00009930       ??_GCCloseCaptionUIMgr@@UEAAPEAXI@Z 000000014000a930 f i close_caption_ui.obj
 0001:00009930       ??_ECCloseCaptionUIMgr@@UEAAPEAXI@Z 000000014000a930 f i close_caption_ui.obj
 0001:00009970       ?DoClickAssignedBtn@CCloseCaptionUIMgr@@AEAAXXZ 000000014000a970 f   close_caption_ui.obj
 0001:00009e40       ?DoClickCopyBtn@CCloseCaptionUIMgr@@AEAAXXZ 000000014000ae40 f   close_caption_ui.obj
 0001:00009eb0       ?DoClickEnterBtn@CCloseCaptionUIMgr@@AEAAXXZ 000000014000aeb0 f   close_caption_ui.obj
 0001:0000a0b0       ?DoClickSaveBtn@CCloseCaptionUIMgr@@AEAAXXZ 000000014000b0b0 f   close_caption_ui.obj
 0001:0000a140       ?GetAssignedStatus@CCloseCaptionUIMgr@@QEAA_NXZ 000000014000b140 f   close_caption_ui.obj
 0001:0000a160       ?GetSkinRes@CCloseCaptionUIMgr@@UEAAIXZ 000000014000b160 f i close_caption_ui.obj
 0001:0000a170       ?HandleMessage@CCloseCaptionUIMgr@@UEAA_JI_K_J@Z 000000014000b170 f   close_caption_ui.obj
 0001:0000a3c0       ?HideAssignLayout@CCloseCaptionUIMgr@@QEAAXXZ 000000014000b3c0 f   close_caption_ui.obj
 0001:0000a400       ?Init@CCloseCaptionUIMgr@@AEAAXXZ 000000014000b400 f   close_caption_ui.obj
 0001:0000a500       ?InitWindow@CCloseCaptionUIMgr@@UEAAXXZ 000000014000b500 f   close_caption_ui.obj
 0001:0000a980       ?IsHost@CCloseCaptionUIMgr@@QEAA_NXZ 000000014000b980 f   close_caption_ui.obj
 0001:0000a9b0       ?Notify@CCloseCaptionUIMgr@@UEAAXAEAUtagTNotifyUI@DuiLib@@@Z 000000014000b9b0 f   close_caption_ui.obj
 0001:0000aab0       ?ShowErrorsMsg@CCloseCaptionUIMgr@@AEAAXPEB_W@Z 000000014000bab0 f   close_caption_ui.obj
 0001:0000aae0       ?UpdateListCombox@CCloseCaptionUIMgr@@QEAAXXZ 000000014000bae0 f   close_caption_ui.obj
 0001:0000ad70       ?onAssignedToSendCC@CCloseCaptionUIMgr@@UEAAX_N@Z 000000014000bd70 f   close_caption_ui.obj
 0001:0000adf0       ?onClosedCaptionMsgReceived@CCloseCaptionUIMgr@@UEAAXPEB_WI_J@Z 000000014000bdf0 f   close_caption_ui.obj
 0001:0000b060       ??0CCloseCaptionWorkflow@@QEAA@XZ 000000014000c060 f   close_caption_workflow.obj
 0001:0000b0c0       ??0IClosedCaptionControllerEvent@ZOOMSDK@@QEAA@XZ 000000014000c0c0 f i close_caption_workflow.obj
 0001:0000b0e0       ??1CCloseCaptionWorkflow@@UEAA@XZ 000000014000c0e0 f   close_caption_workflow.obj
 0001:0000b140       ??1IClosedCaptionControllerEvent@ZOOMSDK@@UEAA@XZ 000000014000c140 f i close_caption_workflow.obj
 0001:0000b160       ??_ECCloseCaptionWorkflow@@UEAAPEAXI@Z 000000014000c160 f i close_caption_workflow.obj
 0001:0000b160       ??_GCCloseCaptionWorkflow@@UEAAPEAXI@Z 000000014000c160 f i close_caption_workflow.obj
 0001:0000b1a0       ??_GIClosedCaptionControllerEvent@ZOOMSDK@@UEAAPEAXI@Z 000000014000c1a0 f i close_caption_workflow.obj
 0001:0000b1a0       ??_EIClosedCaptionControllerEvent@ZOOMSDK@@UEAAPEAXI@Z 000000014000c1a0 f i close_caption_workflow.obj
 0001:0000b1e0       ?AssignCCPriviledge@CCloseCaptionWorkflow@@QEAA?AW4SDKError@ZOOMSDK@@I_N@Z 000000014000c1e0 f   close_caption_workflow.obj
 0001:0000b240       ?CanBeAssignedToSendCC@CCloseCaptionWorkflow@@QEAA_NI@Z 000000014000c240 f   close_caption_workflow.obj
 0001:0000b290       ?CanIAssignOthersToSendCC@CCloseCaptionWorkflow@@QEAA_NXZ 000000014000c290 f   close_caption_workflow.obj
 0001:0000b2e0       ?CanSendClosedCaption@CCloseCaptionWorkflow@@QEAA_NXZ 000000014000c2e0 f   close_caption_workflow.obj
 0001:0000b330       ?GetClosedCaptionSavePath@CCloseCaptionWorkflow@@QEAAPEB_WXZ 000000014000c330 f   close_caption_workflow.obj
 0001:0000b380       ?GetClosedCaptionUrlFor3rdParty@CCloseCaptionWorkflow@@QEAAPEB_WXZ 000000014000c380 f   close_caption_workflow.obj
 0001:0000b3d0       ?Init@CCloseCaptionWorkflow@@QEAAXXZ 000000014000c3d0 f   close_caption_workflow.obj
 0001:0000b440       ?SaveCCHistory@CCloseCaptionWorkflow@@QEAA?AW4SDKError@ZOOMSDK@@XZ 000000014000c440 f   close_caption_workflow.obj
 0001:0000b4b0       ?SendClosedCaption@CCloseCaptionWorkflow@@QEAA?AW4SDKError@ZOOMSDK@@PEB_W@Z 000000014000c4b0 f   close_caption_workflow.obj
 0001:0000b500       ?SetEvent@CCloseCaptionWorkflow@@QEAAXPEAVIClosedCaptionWorkflowEvent@@@Z 000000014000c500 f   close_caption_workflow.obj
 0001:0000b500       ?SetUIEvent@CSDKVideoSettingsWorkFlow@@QEAAXPEAVCSDKVideoSettingsUIEvent@@@Z 000000014000c500 f   SETTINGS_video_workflow.obj
 0001:0000b500       ?SetUIEvent@CSDKLoggedInUIWorkFlow@@QEAAXPEAVCSDKLoggedInFlowUIEvent@@@Z 000000014000c500 f   LoggedIn_sdk_controller_workflow.obj
 0001:0000b500       ?SetUIEvent@CSDKAudioSettingsWorkFlow@@QEAAXPEAVCSDKAudioSettingsUIEvent@@@Z 000000014000c500 f   SETTINGS_audio_workflow.obj
 0001:0000b500       ?SetUIEvent@CSDKWithoutLoginStartJoinMeetingFlow@@QEAAXPEAVCSDKJoinMeetingOnlyFlowUIEvent@@@Z 000000014000c500 f   LOGIN_join_meeting_only_workflow.obj
 0001:0000b520       ?onAssignedToSendCC@CCloseCaptionWorkflow@@UEAAX_N@Z 000000014000c520 f   close_caption_workflow.obj
 0001:0000b560       ?onClosedCaptionMsgReceived@CCloseCaptionWorkflow@@UEAAXPEB_WI_J@Z 000000014000c560 f   close_caption_workflow.obj
 0001:0000b5b0       ?onDefaultMicDeviceChanged@CSDKAudioSettingsUIGroup@@UEAAXPEB_W0@Z 000000014000c5b0 f i settings_ui.obj
 0001:0000b5b0       ?onUserJoin@CMoreFeaturesUIMgr@@UEAAXPEAV?$IList@I@ZOOMSDK@@PEB_W@Z 000000014000c5b0 f i more_features_ui.obj
 0001:0000b5b0       ?_Orphan_range@?$vector@V?$basic_string@_WU?$char_traits@_W@std@@V?$allocator@_W@2@@std@@V?$allocator@V?$basic_string@_WU?$char_traits@_W@std@@V?$allocator@_W@2@@std@@@2@@std@@AEBAXPEAV?$basic_string@_WU?$char_traits@_W@std@@V?$allocator@_W@2@@2@0@Z 000000014000c5b0 f i custom_ui_share_flow.obj
 0001:0000b5b0       ?DrawItemText@CListContainerElementUI@DuiLib@@UEAAXPEAUHDC__@@AEBUtagRECT@@@Z 000000014000c5b0 f i DuiLib64:UIList.obj
 0001:0000b5b0       ?onUserLeft@CMoreFeaturesUIMgr@@UEAAXPEAV?$IList@I@ZOOMSDK@@PEB_W@Z 000000014000c5b0 f i more_features_ui.obj
 0001:0000b5b0       ?onLiveTranscriptionMsgError@CSDKCustomUIWorkFlow@@UEAAXPEAVILiveTranscriptionLanguage@ZOOMSDK@@0@Z 000000014000c5b0 f i custom_ui_mgr_flow.obj
 0001:0000b5b0       ?onDefaultMicDeviceChanged@CSDKAudioSettingsWorkFlow@@UEAAXPEB_W0@Z 000000014000c5b0 f i SETTINGS_audio_workflow.obj
 0001:0000b5b0       ?_Orphan_range@?$vector@PEAVIVirtualBGImageInfo@ZOOMSDK@@V?$allocator@PEAVIVirtualBGImageInfo@ZOOMSDK@@@std@@@std@@AEBAXPEAPEAVIVirtualBGImageInfo@ZOOMSDK@@0@Z 000000014000c5b0 f i settings_ui.obj
 0001:0000b5b0       ?onLiveTranscriptionMsgError@SDKInterfaceWrap@@UEAAXPEAVILiveTranscriptionLanguage@ZOOMSDK@@0@Z 000000014000c5b0 f i sdk_util.obj
 0001:0000b5b0       ?onChatMsgNotifcation@CSDKCustomUIWorkFlow@@UEAAXPEAVIChatMsgInfo@ZOOMSDK@@PEB_W@Z 000000014000c5b0 f i custom_ui_mgr_flow.obj
 0001:0000b5b0       ?onDefaultSpeakerDeviceChanged@CSDKAudioSettingsWorkFlow@@UEAAXPEB_W0@Z 000000014000c5b0 f i SETTINGS_audio_workflow.obj
 0001:0000b5b0       ?onDefaultCamDeviceChanged@CSDKVideoSettingsWorkFlow@@UEAAXPEB_W0@Z 000000014000c5b0 f i SETTINGS_video_workflow.obj
 0001:0000b5b0       ?onDefaultSpeakerDeviceChanged@CSDKAudioSettingsUIGroup@@UEAAXPEB_W0@Z 000000014000c5b0 f i settings_ui.obj
 0001:0000b5b0       ??$_Destroy_range@V?$allocator@PEAVIVirtualBGImageInfo@ZOOMSDK@@@std@@@std@@YAXPEAPEAVIVirtualBGImageInfo@ZOOMSDK@@QEAPEAV12@AEAV?$allocator@PEAVIVirtualBGImageInfo@ZOOMSDK@@@0@@Z 000000014000c5b0 f i settings_ui.obj
 0001:0000b5b0       ??$_Destroy_range@V?$allocator@PEAVIUserInfo@ZOOMSDK@@@std@@@std@@YAXPEAPEAVIUserInfo@ZOOMSDK@@QEAPEAV12@AEAV?$allocator@PEAVIUserInfo@ZOOMSDK@@@0@@Z 000000014000c5b0 f i user_manager.obj
 0001:0000b5b0       ?onLiveTranscriptionMsgError@CCloseCaptionWorkflow@@UEAAXPEAVILiveTranscriptionLanguage@ZOOMSDK@@0@Z 000000014000c5b0 f i close_caption_workflow.obj
 0001:0000b5b0       ?_Orphan_range@?$vector@PEAVIUserInfo@ZOOMSDK@@V?$allocator@PEAVIUserInfo@ZOOMSDK@@@std@@@std@@AEBAXPEAPEAVIUserInfo@ZOOMSDK@@0@Z 000000014000c5b0 f i user_manager.obj
 0001:0000b5b0       ?onDefaultCamDeviceChanged@CSDKVideoSettingsUIGroup@@UEAAXPEB_W0@Z 000000014000c5b0 f i settings_ui.obj
 0001:0000b5c0       ?onLiveTranscriptionMsgReceived@SDKInterfaceWrap@@UEAAXPEB_WIW4SDKLiveTranscriptionOperationType@ZOOMSDK@@@Z 000000014000c5c0 f i sdk_util.obj
 0001:0000b5c0       ?onLiveTranscriptionMsgReceived@CSDKCustomUIWorkFlow@@UEAAXPEB_WIW4SDKLiveTranscriptionOperationType@ZOOMSDK@@@Z 000000014000c5c0 f i custom_ui_mgr_flow.obj
 0001:0000b5c0       ?onLiveTranscriptionMsgReceived@CCloseCaptionWorkflow@@UEAAXPEB_WIW4SDKLiveTranscriptionOperationType@ZOOMSDK@@@Z 000000014000c5c0 f i close_caption_workflow.obj
 0001:0000b5e0       ?onMeetingStatisticsWarningNotification@CSDKJoinMeetingForLoginUserFlow@@UEAAXW4StatisticsWarningType@ZOOMSDK@@@Z 000000014000c5e0 f i Join_meeting_for_login_user_workflow.obj
 0001:0000b5e0       ?onMeetingStatisticsWarningNotification@CSDKWithoutLoginStartJoinMeetingFlow@@UEAAXW4StatisticsWarningType@ZOOMSDK@@@Z 000000014000c5e0 f i LOGIN_join_meeting_only_workflow.obj
 0001:0000b5e0       ?onShareSettingTypeChangedNotification@CSDKCustomUIWorkFlow@@UEAAXW4ShareSettingType@ZOOMSDK@@@Z 000000014000c5e0 f i custom_ui_mgr_flow.obj
 0001:0000b5e0       ?onMeetingStatisticsWarningNotification@CSDKJoinMeetingForLoginUserUIGroup@@UEAAXW4StatisticsWarningType@ZOOMSDK@@@Z 000000014000c5e0 f i Join_meeting_for_login_user_ui.obj
 0001:0000b5e0       ?onActiveVideoUserChanged@CSDKCustomUIWorkFlow@@UEAAXI@Z 000000014000c5e0 f i custom_ui_mgr_flow.obj
 0001:0000b5e0       ?onActiveSpeakerVideoUserChanged@CSDKCustomUIWorkFlow@@UEAAXI@Z 000000014000c5e0 f i custom_ui_mgr_flow.obj
 0001:0000b5e0       ?onRecordingStatus@CSDKCustomUIWorkFlow@@UEAAXW4RecordingStatus@ZOOMSDK@@@Z 000000014000c5e0 f i custom_ui_mgr_flow.obj
 0001:0000b5e0       ?onMeetingStatisticsWarningNotification@CSDKCustomUIWorkFlow@@UEAAXW4StatisticsWarningType@ZOOMSDK@@@Z 000000014000c5e0 f i custom_ui_mgr_flow.obj
 0001:0000b5e0       ?onMeetingStatisticsWarningNotification@CSDKRestAPIUserUIGroup@@UEAAXW4StatisticsWarningType@ZOOMSDK@@@Z 000000014000c5e0 f i LOGIN_sdk_login_UI.obj
 0001:0000b5e0       ?onActiveVideoUserChanged@CUtilWnd@@UEAAXI@Z 000000014000c5e0 f i util_window.obj
 0001:0000b5e0       ?onLiveTranscriptionStatus@CSDKCustomUIWorkFlow@@UEAAXW4SDKLiveTranscriptionStatus@ZOOMSDK@@@Z 000000014000c5e0 f i custom_ui_mgr_flow.obj
 0001:0000b5e0       ?onHostChangeNotification@CSDKCustomUIWorkFlow@@UEAAXI@Z 000000014000c5e0 f i custom_ui_mgr_flow.obj
 0001:0000b5e0       ?onActiveSpeakerVideoUserChanged@CUtilWnd@@UEAAXI@Z 000000014000c5e0 f i util_window.obj
 0001:0000b5e0       ?onCloudRecordingStatus@CSDKCustomUIWorkFlow@@UEAAXW4RecordingStatus@ZOOMSDK@@@Z 000000014000c5e0 f i custom_ui_mgr_flow.obj
 0001:0000b5e0       ?onRecording2MP4Processing@CSDKCustomUIWorkFlow@@UEAAXH@Z 000000014000c5e0 f i custom_ui_mgr_flow.obj
 0001:0000b5e0       ?onMeetingStatisticsWarningNotification@CSDKWithoutLoginStartJoinMeetingUIGroup@@UEAAXW4StatisticsWarningType@ZOOMSDK@@@Z 000000014000c5e0 f i LOGIN_sdk_login_UI.obj
 0001:0000b5e0       ?onLiveTranscriptionStatus@SDKInterfaceWrap@@UEAAXW4SDKLiveTranscriptionStatus@ZOOMSDK@@@Z 000000014000c5e0 f i sdk_util.obj
 0001:0000b5e0       ?onFreeMeetingRemainTime@CSDKCustomUIWorkFlow@@UEAAXI@Z 000000014000c5e0 f i custom_ui_mgr_flow.obj
 0001:0000b5e0       ?onSharingSourceUserIDNotification@CCustomizeInMeetingUIMgr@@UEAAXI@Z 000000014000c5e0 f i custom_ui_mgr.obj
 0001:0000b5e0       ?onMeetingStatisticsWarningNotification@CSDKLoggedInUIMgr@@UEAAXW4StatisticsWarningType@ZOOMSDK@@@Z 000000014000c5e0 f i LoggedIn_sdk_controller_ui.obj
 0001:0000b5e0       ?onLiveTranscriptionStatus@CCloseCaptionWorkflow@@UEAAXW4SDKLiveTranscriptionStatus@ZOOMSDK@@@Z 000000014000c5e0 f i close_caption_workflow.obj
 0001:0000b5f0       ?onCoHostChangeNotification@CSDKCustomUIWorkFlow@@UEAAXI_N@Z 000000014000c5f0 f i custom_ui_mgr_flow.obj
 0001:0000b5f0       ?onRequestForLiveTranscriptReceived@CCloseCaptionWorkflow@@UEAAXI_N@Z 000000014000c5f0 f i close_caption_workflow.obj
 0001:0000b5f0       ?onRequestForLiveTranscriptReceived@CSDKCustomUIWorkFlow@@UEAAXI_N@Z 000000014000c5f0 f i custom_ui_mgr_flow.obj
 0001:0000b5f0       ?onRequestForLiveTranscriptReceived@SDKInterfaceWrap@@UEAAXI_N@Z 000000014000c5f0 f i sdk_util.obj
 0001:0000b600       ??0CustomizedUIRecordMgr@@AEAA@XZ 000000014000c600 f   CustomizedUIRecordMgr.obj
 0001:0000b640       ??0IMeetingRecordingCtrlEvent@ZOOMSDK@@QEAA@XZ 000000014000c640 f i CustomizedUIRecordMgr.obj
 0001:0000b660       ??1CustomizedUIRecordMgr@@EEAA@XZ 000000014000c660 f   CustomizedUIRecordMgr.obj
 0001:0000b690       ??1IMeetingRecordingCtrlEvent@ZOOMSDK@@UEAA@XZ 000000014000c690 f i CustomizedUIRecordMgr.obj
 0001:0000b6b0       ??4?$basic_string@_WU?$char_traits@_W@std@@V?$allocator@_W@2@@std@@QEAAAEAV01@QEB_W@Z 000000014000c6b0 f i CustomizedUIRecordMgr.obj
 0001:0000b6e0       ??_ECustomizedUIRecordMgr@@EEAAPEAXI@Z 000000014000c6e0 f i CustomizedUIRecordMgr.obj
 0001:0000b6e0       ??_GCustomizedUIRecordMgr@@EEAAPEAXI@Z 000000014000c6e0 f i CustomizedUIRecordMgr.obj
 0001:0000b720       ??_EIMeetingRecordingCtrlEvent@ZOOMSDK@@UEAAPEAXI@Z 000000014000c720 f i CustomizedUIRecordMgr.obj
 0001:0000b720       ??_GIMeetingRecordingCtrlEvent@ZOOMSDK@@UEAAPEAXI@Z 000000014000c720 f i CustomizedUIRecordMgr.obj
 0001:0000b760       ?AllowLocalRecording@CustomizedUIRecordMgr@@QEAA_NI@Z 000000014000c760 f   CustomizedUIRecordMgr.obj
 0001:0000b7c0       ?CanIChangeOthersRecordingPermission@CustomizedUIRecordMgr@@QEAA_NXZ 000000014000c7c0 f   CustomizedUIRecordMgr.obj
 0001:0000b820       ?CanIStartCloudRecording@CustomizedUIRecordMgr@@QEAA_NXZ 000000014000c820 f   CustomizedUIRecordMgr.obj
 0001:0000b840       ?CanIStartLocalRecording@CustomizedUIRecordMgr@@QEAA_NXZ 000000014000c840 f   CustomizedUIRecordMgr.obj
 0001:0000b860       ?CanTheUserStartCloudRecording@CustomizedUIRecordMgr@@QEAA_NI@Z 000000014000c860 f   CustomizedUIRecordMgr.obj
 0001:0000b8c0       ?CanTheUserStartLocalRecording@CustomizedUIRecordMgr@@QEAA_NI@Z 000000014000c8c0 f   CustomizedUIRecordMgr.obj
 0001:0000b920       ?DisAllowLocalRecording@CustomizedUIRecordMgr@@QEAA_NI@Z 000000014000c920 f   CustomizedUIRecordMgr.obj
 0001:0000b980       ?GetInstance@CustomizedUIRecordMgr@@SAPEAV1@XZ 000000014000c980 f   CustomizedUIRecordMgr.obj
 0001:0000b9f0       ?GetRecordController@CustomizedUIRecordMgr@@QEAAXXZ 000000014000c9f0 f   CustomizedUIRecordMgr.obj
 0001:0000ba80       ?StartCloudRecording@CustomizedUIRecordMgr@@QEAA_NXZ 000000014000ca80 f   CustomizedUIRecordMgr.obj
 0001:0000bae0       ?StartRecording@CustomizedUIRecordMgr@@QEAA_NAEA_J@Z 000000014000cae0 f   CustomizedUIRecordMgr.obj
 0001:0000bb80       ?StopCloudRecording@CustomizedUIRecordMgr@@QEAA_NXZ 000000014000cb80 f   CustomizedUIRecordMgr.obj
 0001:0000bbe0       ?StopRecording@CustomizedUIRecordMgr@@QEAA_NAEA_J@Z 000000014000cbe0 f   CustomizedUIRecordMgr.obj
 0001:0000bc40       ?onCloudRecordingStatus@CustomizedUIRecordMgr@@UEAAXW4RecordingStatus@ZOOMSDK@@@Z 000000014000cc40 f   CustomizedUIRecordMgr.obj
 0001:0000bd30       ?onCustomizedLocalRecordingSourceNotification@CustomizedUIRecordMgr@@UEAAXPEAVICustomizedLocalRecordingLayoutHelper@ZOOMSDK@@@Z 000000014000cd30 f   CustomizedUIRecordMgr.obj
 0001:0000c1e0       ?onRecordPriviligeChanged@CustomizedUIRecordMgr@@UEAAX_N@Z 000000014000d1e0 f   CustomizedUIRecordMgr.obj
 0001:0000c230       ?onRecording2MP4Done@CustomizedUIRecordMgr@@UEAAX_NHPEB_W@Z 000000014000d230 f   CustomizedUIRecordMgr.obj
 0001:0000c300       ?onRecording2MP4Processing@CustomizedUIRecordMgr@@UEAAXH@Z 000000014000d300 f   CustomizedUIRecordMgr.obj
 0001:0000c370       ?onRecordingStatus@CustomizedUIRecordMgr@@UEAAXW4RecordingStatus@ZOOMSDK@@@Z 000000014000d370 f   CustomizedUIRecordMgr.obj
 0001:0000c4e0       __local_stdio_printf_options 000000014000d4e0 f i CustomizedUIRecordMgr.obj
 0001:0000c4f0       _vswprintf_s_l             000000014000d4f0 f i CustomizedUIRecordMgr.obj
 0001:0000c560       swprintf_s                 000000014000d560 f i CustomizedUIRecordMgr.obj
 0001:0000c5c0       ??0CCustomizeInMeetingUIMgr@@QEAA@XZ 000000014000d5c0 f   custom_ui_mgr.obj
 0001:0000c6d0       ??0ICustomizedShareRenderEvent@ZOOMSDK@@QEAA@XZ 000000014000d6d0 f i custom_ui_mgr.obj
 0001:0000c6f0       ??0ICustomizedUIMgrEvent@ZOOMSDK@@QEAA@XZ 000000014000d6f0 f i custom_ui_mgr.obj
 0001:0000c710       ??0ICustomizedVideoContainerEvent@ZOOMSDK@@QEAA@XZ 000000014000d710 f i custom_ui_mgr.obj
 0001:0000c730       ??0ICutomizedUIOwnWndInterface@@IEAA@XZ 000000014000d730 f i custom_ui_mgr.obj
 0001:0000c760       ??0ISDKInMeetingServiceCustomUIEvent@@QEAA@XZ 000000014000d760 f i custom_ui_mgr.obj
 0001:0000c780       ??1CCustomizeInMeetingUIMgr@@UEAA@XZ 000000014000d780 f i custom_ui_mgr.obj
 0001:0000c7d0       ??1ICustomizedUIMgrEvent@ZOOMSDK@@UEAA@XZ 000000014000d7d0 f i custom_ui_mgr.obj
 0001:0000c7f0       ??1ICustomizedVideoContainerEvent@ZOOMSDK@@UEAA@XZ 000000014000d7f0 f i custom_ui_mgr.obj
 0001:0000c808       ??_ECCustomizeInMeetingUIMgr@@WBA@EAAPEAXI@Z 000000014000d808 f i custom_ui_mgr.obj
 0001:0000c814       ??_ECCustomizeInMeetingUIMgr@@WBI@EAAPEAXI@Z 000000014000d814 f i custom_ui_mgr.obj
 0001:0000c820       ??_GCArrowWindow@@QEAAPEAXI@Z 000000014000d820 f i custom_ui_mgr.obj
 0001:0000c860       ??_GCCustomizeInMeetingUIMgr@@UEAAPEAXI@Z 000000014000d860 f i custom_ui_mgr.obj
 0001:0000c860       ??_ECCustomizeInMeetingUIMgr@@UEAAPEAXI@Z 000000014000d860 f i custom_ui_mgr.obj
 0001:0000c8a0       ??_GCMoreMenuUIMgr@@QEAAPEAXI@Z 000000014000d8a0 f i custom_ui_mgr.obj
 0001:0000c8e0       ??_GCParticipantUIMgr@@QEAAPEAXI@Z 000000014000d8e0 f i custom_ui_mgr.obj
 0001:0000c920       ??_GICustomizedUIMgrEvent@ZOOMSDK@@UEAAPEAXI@Z 000000014000d920 f i custom_ui_mgr.obj
 0001:0000c920       ??_EICustomizedUIMgrEvent@ZOOMSDK@@UEAAPEAXI@Z 000000014000d920 f i custom_ui_mgr.obj
 0001:0000c960       ??_GICustomizedVideoContainerEvent@ZOOMSDK@@UEAAPEAXI@Z 000000014000d960 f i custom_ui_mgr.obj
 0001:0000c960       ??_EICustomizedVideoContainerEvent@ZOOMSDK@@UEAAPEAXI@Z 000000014000d960 f i custom_ui_mgr.obj
 0001:0000c9a0       ?ActivateUI@CCustomizeInMeetingUIMgr@@QEAAXXZ 000000014000d9a0 f   custom_ui_mgr.obj
 0001:0000ca30       ?CreateArrowWindow@CCustomizeInMeetingUIMgr@@AEAAXXZ 000000014000da30 f   custom_ui_mgr.obj
 0001:0000cc70       ?CreateCameraControlWindow@CCustomizeInMeetingUIMgr@@AEAAXXZ 000000014000dc70 f   custom_ui_mgr.obj
 0001:0000cd80       ?CreateChatWindow@CCustomizeInMeetingUIMgr@@AEAAXXZ 000000014000dd80 f   custom_ui_mgr.obj
 0001:0000ceb0       ?CreateDisplayCCWnd@CCustomizeInMeetingUIMgr@@QEAAPEAVClosedCaptionDisplayUI@@XZ 000000014000deb0 f   custom_ui_mgr.obj
 0001:0000d020       ?CreateParticipantWindow@CCustomizeInMeetingUIMgr@@AEAAXXZ 000000014000e020 f   custom_ui_mgr.obj
 0001:0000d150       ?CreateToolBar@CCustomizeInMeetingUIMgr@@AEAAXXZ 000000014000e150 f   custom_ui_mgr.obj
 0001:0000d230       ?CreateWebinarWindow@CCustomizeInMeetingUIMgr@@AEAAXPEAVIWebinarNeedRegisterHandler@ZOOMSDK@@@Z 000000014000e230 f   custom_ui_mgr.obj
 0001:0000d3a0       ?DestroyAllSubWindow@CCustomizeInMeetingUIMgr@@AEAAXXZ 000000014000e3a0 f   custom_ui_mgr.obj
 0001:0000d410       ?DestroyArrowWindow@CCustomizeInMeetingUIMgr@@AEAAXXZ 000000014000e410 f   custom_ui_mgr.obj
 0001:0000d530       ?DestroyChatWindow@CCustomizeInMeetingUIMgr@@AEAAXXZ 000000014000e530 f   custom_ui_mgr.obj
 0001:0000d5d0       ?DestroyDisplayCCWnd@CCustomizeInMeetingUIMgr@@QEAAXXZ 000000014000e5d0 f   custom_ui_mgr.obj
 0001:0000d680       ?DestroyMoreMenuWindow@CCustomizeInMeetingUIMgr@@AEAAXXZ 000000014000e680 f   custom_ui_mgr.obj
 0001:0000d700       ?DestroyParticipantWindow@CCustomizeInMeetingUIMgr@@AEAAXXZ 000000014000e700 f   custom_ui_mgr.obj
 0001:0000d7a0       ?DestroyWebinarWindow@CCustomizeInMeetingUIMgr@@AEAAXXZ 000000014000e7a0 f   custom_ui_mgr.obj
 0001:0000d850       ?DoLayout@CCustomizeInMeetingUIMgr@@AEAAXXZ 000000014000e850 f   custom_ui_mgr.obj
 0001:0000d8a0       ?DoLayoutActiveVideo@CCustomizeInMeetingUIMgr@@AEAAXXZ 000000014000e8a0 f   custom_ui_mgr.obj
 0001:0000d8d0       ?DoLayoutArrowWindow@CCustomizeInMeetingUIMgr@@AEAAXXZ 000000014000e8d0 f   custom_ui_mgr.obj
 0001:0000dbf0       ?DoLayoutNormalVideo@CCustomizeInMeetingUIMgr@@AEAAXXZ 000000014000ebf0 f   custom_ui_mgr.obj
 0001:0000dc50       ?DoLayoutParticipantsWindow@CCustomizeInMeetingUIMgr@@AEAAXXZ 000000014000ec50 f   custom_ui_mgr.obj
 0001:0000ddc0       ?GetCustomizedMgr@CCustomizeInMeetingUIMgr@@QEAAPEAVICustomizedUIMgr@ZOOMSDK@@XZ 000000014000edc0 f   custom_ui_mgr.obj
 0001:0000dde0       ?GetHWND@CCustomizeInMeetingUIMgr@@QEAAPEAUHWND__@@XZ 000000014000ede0 f   custom_ui_mgr.obj
 0001:0000dde0       ?GetWindowHandle@CCustomizeUIShareRenderUI@@QEAAPEAUHWND__@@XZ 000000014000ede0 f   custom_ui_share_mgr.obj
 0001:0000dde0       ??BCWindowWnd@DuiLib@@QEBAPEAUHWND__@@XZ 000000014000ede0 f   DuiLib64:UIBase.obj
 0001:0000dde0       ?GetHWND@CWindowWnd@DuiLib@@QEBAPEAUHWND__@@XZ 000000014000ede0 f   DuiLib64:UIBase.obj
 0001:0000dde0       ?GetObjectW@CDelegateBase@DuiLib@@IEAAPEAXXZ 000000014000ede0 f   DuiLib64:UIDelegate.obj
 0001:0000ddf0       ?GetUserList@CCustomizeInMeetingUIMgr@@QEAAPEAVCSDKUserList@@XZ 000000014000edf0 f   custom_ui_mgr.obj
 0001:0000de10       ?HandleChatWindowBeClosed@CCustomizeInMeetingUIMgr@@QEAAXXZ 000000014000ee10 f   custom_ui_mgr.obj
 0001:0000de40       ?HandleInMeeting@CCustomizeInMeetingUIMgr@@AEAAXXZ 000000014000ee40 f   custom_ui_mgr.obj
 0001:0000df00       ?HandleMoveToWaitingRoom@CCustomizeInMeetingUIMgr@@AEAAXXZ 000000014000ef00 f   custom_ui_mgr.obj
 0001:0000df80       ?HideMenuWhenMenuVisible@CCustomizeInMeetingUIMgr@@QEAA_NXZ 000000014000ef80 f   custom_ui_mgr.obj
 0001:0000dfe0       ?Init@CCustomizeInMeetingUIMgr@@QEAAXXZ 000000014000efe0 f   custom_ui_mgr.obj
 0001:0000e050       ?InitCustomShareRender@CCustomizeInMeetingUIMgr@@AEAA_NXZ 000000014000f050 f   custom_ui_mgr.obj
 0001:0000e150       ?InitCustomizeUIVideoMgr@CCustomizeInMeetingUIMgr@@AEAA_NXZ 000000014000f150 f   custom_ui_mgr.obj
 0001:0000e2c0       ?InitUserList@CCustomizeInMeetingUIMgr@@AEAAXXZ 000000014000f2c0 f   custom_ui_mgr.obj
 0001:0000e340       ?PageButtonClick@CCustomizeInMeetingUIMgr@@QEAAXW4ArrowButtonType@@@Z 000000014000f340 f   custom_ui_mgr.obj
 0001:0000e380       ?Reset@CCustomizeInMeetingUIMgr@@AEAAXXZ 000000014000f380 f   custom_ui_mgr.obj
 0001:0000e4b0       ?SetEvent@CCustomizeInMeetingUIMgr@@QEAAXPEAVCSDKDemoAppEvent@@@Z 000000014000f4b0 f   custom_ui_mgr.obj
 0001:0000e4e0       ?SetUIEvent@CToolbarBottomWorkFlow@@QEAAXPEAVCToolbarBottomWorkFlowUIEvent@@@Z 000000014000f4e0 f   toolbar_bottom_workflow.obj
 0001:0000e4e0       ?SetUIEvent@CSDKJoinMeetingForLoginUserFlow@@QEAAXPEAVCSDKJoinMeetingForLoginUserFlowUIEvent@@@Z 000000014000f4e0 f   Join_meeting_for_login_user_workflow.obj
 0001:0000e4e0       ?SetUIEvent@CInitSDKWorkFlow@@QEAAXPEAVCInitSDKWorkFlowUIEvent@@@Z 000000014000f4e0 f   init_auth_sdk_workflow.obj
 0001:0000e4e0       ?SetUICustomCurrentPage@CSDKUICustomSettingsUIGroup@@QEAAXPEAVCVerticalLayoutUI@DuiLib@@@Z 000000014000f4e0 f   settings_ui.obj
 0001:0000e4e0       ?SetFeatureCustomCurrentPage@CSDKFeatureCustomSettingsUIGroup@@QEAAXPEAVCVerticalLayoutUI@DuiLib@@@Z 000000014000f4e0 f   settings_ui.obj
 0001:0000e4e0       ?SetUIEvent@CSDKRestAPIUserWorkFlow@@QEAAXPEAVCSDKRestAPIUserUIEvent@@@Z 000000014000f4e0 f   LOGIN_restapi_without_login_workflow.obj
 0001:0000e4e0       ?SetUIEvent@CAuthSDKWorkFlow@@QEAAXPEAVCAuthSDKWorkFlowUIEvent@@@Z 000000014000f4e0 f   init_auth_sdk_workflow.obj
 0001:0000e4e0       ?SetEvent@CToolbarMgr@@QEAAXPEAVCSDKDemoAppEvent@@@Z 000000014000f4e0 f   toolbar_manager.obj
 0001:0000e4e0       ?SetSDKMeetingService@CCustomizeInMeetingUIMgr@@UEAAXPEAVIMeetingService@ZOOMSDK@@@Z 000000014000f4e0 f   custom_ui_mgr.obj
 0001:0000e500       ?ShowHideCameraControlWindow@CCustomizeInMeetingUIMgr@@QEAAXXZ 000000014000f500 f   custom_ui_mgr.obj
 0001:0000e5d0       ?ShowHideChatWindow@CCustomizeInMeetingUIMgr@@QEAAXXZ 000000014000f5d0 f   custom_ui_mgr.obj
 0001:0000e6c0       ?ShowHideGalleryViewWindow@CCustomizeInMeetingUIMgr@@QEAAXXZ 000000014000f6c0 f   custom_ui_mgr.obj
 0001:0000e850       ?ShowHideMoreMenuWindow@CCustomizeInMeetingUIMgr@@QEAAXHH@Z 000000014000f850 f   custom_ui_mgr.obj
 0001:0000e9b0       ?ShowHideParticipantWindow@CCustomizeInMeetingUIMgr@@QEAAXXZ 000000014000f9b0 f   custom_ui_mgr.obj
 0001:0000ea70       ?ShowPreview@CCustomizeInMeetingUIMgr@@AEAAXXZ 000000014000fa70 f   custom_ui_mgr.obj
 0001:0000eaf0       ?ShowShareWindow@CCustomizeInMeetingUIMgr@@QEAAXXZ 000000014000faf0 f   custom_ui_mgr.obj
 0001:0000eb30       ?ShowToolbar@CCustomizeInMeetingUIMgr@@AEAAXXZ 000000014000fb30 f   custom_ui_mgr.obj
 0001:0000ebe0       ?Start@CCustomizeInMeetingUIMgr@@AEAAXXZ 000000014000fbe0 f   custom_ui_mgr.obj
 0001:0000ed80       ?Stop@CCustomizeInMeetingUIMgr@@AEAAXXZ 000000014000fd80 f   custom_ui_mgr.obj
 0001:0000ee90       ?UninitUserList@CCustomizeInMeetingUIMgr@@AEAAXXZ 000000014000fe90 f   custom_ui_mgr.obj
 0001:0000ef10       ?UpdateMeetingTitle@CCustomizeInMeetingUIMgr@@AEAAX_N@Z 000000014000ff10 f   custom_ui_mgr.obj
 0001:0000f040       ?UpdateParticipantsWindow@CCustomizeInMeetingUIMgr@@QEAAXXZ 0000000140010040 f   custom_ui_mgr.obj
 0001:0000f070       ?UpdateShareButtonStatus@CCustomizeInMeetingUIMgr@@QEAAXXZ 0000000140010070 f   custom_ui_mgr.obj
 0001:0000f0d0       ?UpdateToolbarButtons@CCustomizeInMeetingUIMgr@@QEAAXXZ 00000001400100d0 f   custom_ui_mgr.obj
 0001:0000f1d0       ?UpdateUserList@CCustomizeInMeetingUIMgr@@AEAAXXZ 00000001400101d0 f   custom_ui_mgr.obj
 0001:0000f2e0       ?adjust_wnd_pos@ICutomizedUIOwnWndInterface@@IEAAXHHPEAUHWND__@@@Z 00000001400102e0 f i custom_ui_mgr.obj
 0001:0000f420       ?create_owner_hwnd@ICutomizedUIOwnWndInterface@@IEAAPEAUHWND__@@PEAV1@HH@Z 0000000140010420 f i custom_ui_mgr.obj
 0001:0000f5b0       ?destroy_owner_wnd@ICutomizedUIOwnWndInterface@@IEAAXXZ 00000001400105b0 f i custom_ui_mgr.obj
 0001:0000f5f0       ?my_wnd_proc@ICutomizedUIOwnWndInterface@@KA_JPEAUHWND__@@I_K_J@Z 00000001400105f0 f i custom_ui_mgr.obj
 0001:0000f770       ?onDestroyed@CCustomizeInMeetingUIMgr@@UEAAXXZ 0000000140010770 f   custom_ui_mgr.obj
 0001:0000f800       ?onLayoutNotification@CCustomizeInMeetingUIMgr@@UEAAXUtagRECT@@@Z 0000000140010800 f   custom_ui_mgr.obj
 0001:0000f830       ?onMeetingStatusChanged@CCustomizeInMeetingUIMgr@@UEAAXW4MeetingStatus@ZOOMSDK@@H@Z 0000000140010830 f   custom_ui_mgr.obj
 0001:0000f970       ?onMove@CCustomizeInMeetingUIMgr@@UEAAXXZ 0000000140010970 f   custom_ui_mgr.obj
 0001:0000f9e0       ?onRemoteControlStatus@CCustomizeInMeetingUIMgr@@UEAAXW4RemoteControlStatus@ZOOMSDK@@I@Z 00000001400109e0 f   custom_ui_mgr.obj
 0001:0000fa20       ?onShareRenderDestroyed@CCustomizeInMeetingUIMgr@@UEAAXPEAVICustomizedShareRender@ZOOMSDK@@@Z 0000000140010a20 f   custom_ui_mgr.obj
 0001:0000fa60       ?onVideoContainerWindowMsgNotification@CCustomizeInMeetingUIMgr@@UEAAXI_K_J@Z 0000000140010a60 f   custom_ui_mgr.obj
 0001:0000fa60       ?onShareRenderWindowMsgNotification@CCustomizeInMeetingUIMgr@@UEAAXI_K_J@Z 0000000140010a60 f   custom_ui_mgr.obj
 0001:0000fab0       ?onSharingShareAnnotationStatusChanged@CCustomizeInMeetingUIMgr@@UEAAXPEAVICustomizedShareRender@ZOOMSDK@@W4CustomizedShareAnnotationStatus@3@@Z 0000000140010ab0 f   custom_ui_mgr.obj
 0001:0000fb00       ?onSharingStatus@CCustomizeInMeetingUIMgr@@UEAAXW4SharingStatus@ZOOMSDK@@I@Z 0000000140010b00 f   custom_ui_mgr.obj
 0001:0000fb40       ?onSize@CCustomizeInMeetingUIMgr@@UEAAXAEAUtagRECT@@@Z 0000000140010b40 f   custom_ui_mgr.obj
 0001:0000fd80       ?onSubscribeUserFail@CCustomizeInMeetingUIMgr@@UEAAXW4ZoomSDKVideoSubscribeFailReason@ZOOMSDK@@PEAVIVideoRenderElement@3@@Z 0000000140010d80 f i custom_ui_mgr.obj
 0001:0000fd80       ?OnDirectShareStatusUpdate@CSDKLoggedInUIMgr@@UEAAXW4DirectShareStatusStatus_Enum@ZOOMSDK@@PEAVIDirectShareViaMeetingIDOrPairingCodeHandler@3@@Z 0000000140010d80 f i LoggedIn_sdk_controller_ui.obj
 0001:0000fd80       ?OnTestMicStatusChanged@CSDKCustomUIWorkFlow@@UEAAXW4SDK_TESTMIC_STATUS@ZOOMSDK@@AEA_N@Z 0000000140010d80 f i custom_ui_mgr_flow.obj
 0001:0000fd80       ?onFreeMeetingNeedToUpgrade@CSDKCustomUIWorkFlow@@UEAAXW4FreeMeetingNeedUpgradeType@IMeetingConfigurationFreeMeetingEvent@ZOOMSDK@@PEB_W@Z 0000000140010d80 f i custom_ui_mgr_flow.obj
 0001:0000fd90       ?onUserAudioStatusChange@CCustomizeInMeetingUIMgr@@UEAAXPEAV?$IList@PEAVIUserAudioStatus@ZOOMSDK@@@ZOOMSDK@@PEB_W@Z 0000000140010d90 f   custom_ui_mgr.obj
 0001:0000fe50       ?onUserJoin@CCustomizeInMeetingUIMgr@@UEAAXPEAV?$IList@I@ZOOMSDK@@PEB_W@Z 0000000140010e50 f   custom_ui_mgr.obj
 0001:0000fff0       ?onUserLeft@CCustomizeInMeetingUIMgr@@UEAAXPEAV?$IList@I@ZOOMSDK@@PEB_W@Z 0000000140010ff0 f   custom_ui_mgr.obj
 0001:00010130       ?onUserNameChanged@CCustomizeInMeetingUIMgr@@UEAAXIPEB_W@Z 0000000140011130 f   custom_ui_mgr.obj
 0001:00010160       ?onUserVideoStatusChange@CCustomizeInMeetingUIMgr@@UEAAXIW4VideoStatus@ZOOMSDK@@@Z 0000000140011160 f   custom_ui_mgr.obj
 0001:00010220       ?onVideoContainerDestroyed@CCustomizeInMeetingUIMgr@@UEAAXPEAVICustomizedVideoContainer@ZOOMSDK@@@Z 0000000140011220 f   custom_ui_mgr.obj
 0001:00010260       ?onVideoRenderElementDestroyed@CCustomizeInMeetingUIMgr@@UEAAXPEAVIVideoRenderElement@ZOOMSDK@@@Z 0000000140011260 f   custom_ui_mgr.obj
 0001:000102a0       ?onWebinarNeedRegisterNotification@CCustomizeInMeetingUIMgr@@UEAAXPEAVIWebinarNeedRegisterHandler@ZOOMSDK@@@Z 00000001400112a0 f   custom_ui_mgr.obj
 0001:000102e0       ?onWindowMsgNotification@CCustomizeInMeetingUIMgr@@UEAAXI_K_J@Z 00000001400112e0 f i custom_ui_mgr.obj
 0001:0001032c       ?onWindowMsgNotification@CCustomizeInMeetingUIMgr@@W7EAAXI_K_J@Z 000000014001132c f i custom_ui_mgr.obj
 0001:00010340       ?register_window_class@ICutomizedUIOwnWndInterface@@IEAAHPEAUHINSTANCE__@@@Z 0000000140011340 f i custom_ui_mgr.obj
 0001:00010430       ??0CSDKCustomUIWorkFlow@@QEAA@XZ 0000000140011430 f   custom_ui_mgr_flow.obj
 0001:000105e0       ??0ICustomizedAnnotationControllerEvent@ZOOMSDK@@QEAA@XZ 00000001400115e0 f i custom_ui_mgr_flow.obj
 0001:00010600       ??0IMeetingAudioCtrlEvent@ZOOMSDK@@QEAA@XZ 0000000140011600 f i custom_ui_mgr_flow.obj
 0001:00010620       ??0IMeetingConfigurationEvent@ZOOMSDK@@QEAA@XZ 0000000140011620 f i custom_ui_mgr_flow.obj
 0001:00010650       ??0IMeetingConfigurationFreeMeetingEvent@ZOOMSDK@@QEAA@XZ 0000000140011650 f i custom_ui_mgr_flow.obj
 0001:00010670       ??0IMeetingParticipantsCtrlEvent@ZOOMSDK@@QEAA@XZ 0000000140011670 f i custom_ui_mgr_flow.obj
 0001:00010690       ??0IMeetingRemoteCtrlEvent@ZOOMSDK@@QEAA@XZ 0000000140011690 f i custom_ui_mgr_flow.obj
 0001:000106b0       ??0IMeetingServiceEvent@ZOOMSDK@@QEAA@XZ 00000001400116b0 f i custom_ui_mgr_flow.obj
 0001:000106d0       ??0IMeetingShareCtrlEvent@ZOOMSDK@@QEAA@XZ 00000001400116d0 f i custom_ui_mgr_flow.obj
 0001:000106f0       ??0IMeetingUIControllerEvent@ZOOMSDK@@QEAA@XZ 00000001400116f0 f i custom_ui_mgr_flow.obj
 0001:00010710       ??0IMeetingVideoCtrlEvent@ZOOMSDK@@QEAA@XZ 0000000140011710 f i custom_ui_mgr_flow.obj
 0001:00010730       ??0ISDKInMeetingServiceMgrEvent@@QEAA@XZ 0000000140011730 f i custom_ui_mgr_flow.obj
 0001:00010910       ??0ITestAudioDeviceHelperEvent@ZOOMSDK@@QEAA@XZ 0000000140011910 f i custom_ui_mgr_flow.obj
 0001:00010930       ??0ITestVideoDeviceHelperEvent@ZOOMSDK@@QEAA@XZ 0000000140011930 f i custom_ui_mgr_flow.obj
 0001:00010950       ??1CSDKCustomUIWorkFlow@@UEAA@XZ 0000000140011950 f   custom_ui_mgr_flow.obj
 0001:00010a70       ??1IMeetingAudioCtrlEvent@ZOOMSDK@@UEAA@XZ 0000000140011a70 f i custom_ui_mgr_flow.obj
 0001:00010a90       ??1IMeetingConfigurationEvent@ZOOMSDK@@UEAA@XZ 0000000140011a90 f i custom_ui_mgr_flow.obj
 0001:00010ac0       ??1IMeetingConfigurationFreeMeetingEvent@ZOOMSDK@@UEAA@XZ 0000000140011ac0 f i custom_ui_mgr_flow.obj
 0001:00010ae0       ??1IMeetingParticipantsCtrlEvent@ZOOMSDK@@UEAA@XZ 0000000140011ae0 f i custom_ui_mgr_flow.obj
 0001:00010b00       ??1IMeetingServiceEvent@ZOOMSDK@@UEAA@XZ 0000000140011b00 f i custom_ui_mgr_flow.obj
 0001:00010b20       ??1IMeetingShareCtrlEvent@ZOOMSDK@@UEAA@XZ 0000000140011b20 f i custom_ui_mgr_flow.obj
 0001:00010b40       ??1IMeetingUIControllerEvent@ZOOMSDK@@UEAA@XZ 0000000140011b40 f i custom_ui_mgr_flow.obj
 0001:00010b60       ??1IMeetingVideoCtrlEvent@ZOOMSDK@@UEAA@XZ 0000000140011b60 f i custom_ui_mgr_flow.obj
 0001:00010b80       ??1ISDKInMeetingServiceMgrEvent@@UEAA@XZ 0000000140011b80 f i custom_ui_mgr_flow.obj
 0001:00010d40       ??1ITestAudioDeviceHelperEvent@ZOOMSDK@@UEAA@XZ 0000000140011d40 f i custom_ui_mgr_flow.obj
 0001:00010d60       ??1ITestVideoDeviceHelperEvent@ZOOMSDK@@UEAA@XZ 0000000140011d60 f i custom_ui_mgr_flow.obj
 0001:00010d78       ??_ECSDKCustomUIWorkFlow@@W7EAAPEAXI@Z 0000000140011d78 f i custom_ui_mgr_flow.obj
 0001:00010d84       ??_ECSDKCustomUIWorkFlow@@WBA@EAAPEAXI@Z 0000000140011d84 f i custom_ui_mgr_flow.obj
 0001:00010d90       ??_ECSDKCustomUIWorkFlow@@WBI@EAAPEAXI@Z 0000000140011d90 f i custom_ui_mgr_flow.obj
 0001:00010d9c       ??_ECSDKCustomUIWorkFlow@@WCA@EAAPEAXI@Z 0000000140011d9c f i custom_ui_mgr_flow.obj
 0001:00010da8       ??_ECSDKCustomUIWorkFlow@@WDA@EAAPEAXI@Z 0000000140011da8 f i custom_ui_mgr_flow.obj
 0001:00010db4       ??_ECSDKCustomUIWorkFlow@@WDI@EAAPEAXI@Z 0000000140011db4 f i custom_ui_mgr_flow.obj
 0001:00010dc0       ??_ECSDKCustomUIWorkFlow@@WEA@EAAPEAXI@Z 0000000140011dc0 f i custom_ui_mgr_flow.obj
 0001:00010dcc       ??_ECSDKCustomUIWorkFlow@@WEI@EAAPEAXI@Z 0000000140011dcc f i custom_ui_mgr_flow.obj
 0001:00010dd8       ??_ECSDKCustomUIWorkFlow@@WFA@EAAPEAXI@Z 0000000140011dd8 f i custom_ui_mgr_flow.obj
 0001:00010de4       ??_ECSDKCustomUIWorkFlow@@WFI@EAAPEAXI@Z 0000000140011de4 f i custom_ui_mgr_flow.obj
 0001:00010df0       ??_ECSDKCustomUIWorkFlow@@WGI@EAAPEAXI@Z 0000000140011df0 f i custom_ui_mgr_flow.obj
 0001:00010dfc       ??_EISDKInMeetingServiceMgrEvent@@W7EAAPEAXI@Z 0000000140011dfc f i custom_ui_mgr_flow.obj
 0001:00010e08       ??_EISDKInMeetingServiceMgrEvent@@WBA@EAAPEAXI@Z 0000000140011e08 f i custom_ui_mgr_flow.obj
 0001:00010e14       ??_EISDKInMeetingServiceMgrEvent@@WBI@EAAPEAXI@Z 0000000140011e14 f i custom_ui_mgr_flow.obj
 0001:00010e20       ??_EISDKInMeetingServiceMgrEvent@@WCA@EAAPEAXI@Z 0000000140011e20 f i custom_ui_mgr_flow.obj
 0001:00010e2c       ??_EISDKInMeetingServiceMgrEvent@@WDA@EAAPEAXI@Z 0000000140011e2c f i custom_ui_mgr_flow.obj
 0001:00010e38       ??_EISDKInMeetingServiceMgrEvent@@WDI@EAAPEAXI@Z 0000000140011e38 f i custom_ui_mgr_flow.obj
 0001:00010e44       ??_EISDKInMeetingServiceMgrEvent@@WEA@EAAPEAXI@Z 0000000140011e44 f i custom_ui_mgr_flow.obj
 0001:00010e50       ??_EISDKInMeetingServiceMgrEvent@@WEI@EAAPEAXI@Z 0000000140011e50 f i custom_ui_mgr_flow.obj
 0001:00010e5c       ??_EISDKInMeetingServiceMgrEvent@@WFA@EAAPEAXI@Z 0000000140011e5c f i custom_ui_mgr_flow.obj
 0001:00010e68       ??_EISDKInMeetingServiceMgrEvent@@WFI@EAAPEAXI@Z 0000000140011e68 f i custom_ui_mgr_flow.obj
 0001:00010e74       ??_EISDKInMeetingServiceMgrEvent@@WGI@EAAPEAXI@Z 0000000140011e74 f i custom_ui_mgr_flow.obj
 0001:00010e80       ??_ECSDKCustomUIWorkFlow@@UEAAPEAXI@Z 0000000140011e80 f i custom_ui_mgr_flow.obj
 0001:00010e80       ??_GCSDKCustomUIWorkFlow@@UEAAPEAXI@Z 0000000140011e80 f i custom_ui_mgr_flow.obj
 0001:00010ec0       ??_EIMeetingAudioCtrlEvent@ZOOMSDK@@UEAAPEAXI@Z 0000000140011ec0 f i custom_ui_mgr_flow.obj
 0001:00010ec0       ??_GIMeetingAudioCtrlEvent@ZOOMSDK@@UEAAPEAXI@Z 0000000140011ec0 f i custom_ui_mgr_flow.obj
 0001:00010f00       ??_GIMeetingConfigurationEvent@ZOOMSDK@@UEAAPEAXI@Z 0000000140011f00 f i custom_ui_mgr_flow.obj
 0001:00010f00       ??_EIMeetingConfigurationEvent@ZOOMSDK@@UEAAPEAXI@Z 0000000140011f00 f i custom_ui_mgr_flow.obj
 0001:00010f40       ??_GIMeetingConfigurationFreeMeetingEvent@ZOOMSDK@@UEAAPEAXI@Z 0000000140011f40 f i custom_ui_mgr_flow.obj
 0001:00010f40       ??_EIMeetingConfigurationFreeMeetingEvent@ZOOMSDK@@UEAAPEAXI@Z 0000000140011f40 f i custom_ui_mgr_flow.obj
 0001:00010f80       ??_EIMeetingParticipantsCtrlEvent@ZOOMSDK@@UEAAPEAXI@Z 0000000140011f80 f i custom_ui_mgr_flow.obj
 0001:00010f80       ??_GIMeetingParticipantsCtrlEvent@ZOOMSDK@@UEAAPEAXI@Z 0000000140011f80 f i custom_ui_mgr_flow.obj
 0001:00010fc0       ??_EIMeetingServiceEvent@ZOOMSDK@@UEAAPEAXI@Z 0000000140011fc0 f i custom_ui_mgr_flow.obj
 0001:00010fc0       ??_GIMeetingServiceEvent@ZOOMSDK@@UEAAPEAXI@Z 0000000140011fc0 f i custom_ui_mgr_flow.obj
 0001:00011000       ??_GIMeetingShareCtrlEvent@ZOOMSDK@@UEAAPEAXI@Z 0000000140012000 f i custom_ui_mgr_flow.obj
 0001:00011000       ??_EIMeetingShareCtrlEvent@ZOOMSDK@@UEAAPEAXI@Z 0000000140012000 f i custom_ui_mgr_flow.obj
 0001:00011040       ??_GIMeetingUIControllerEvent@ZOOMSDK@@UEAAPEAXI@Z 0000000140012040 f i custom_ui_mgr_flow.obj
 0001:00011040       ??_EIMeetingUIControllerEvent@ZOOMSDK@@UEAAPEAXI@Z 0000000140012040 f i custom_ui_mgr_flow.obj
 0001:00011080       ??_EIMeetingVideoCtrlEvent@ZOOMSDK@@UEAAPEAXI@Z 0000000140012080 f i custom_ui_mgr_flow.obj
 0001:00011080       ??_GIMeetingVideoCtrlEvent@ZOOMSDK@@UEAAPEAXI@Z 0000000140012080 f i custom_ui_mgr_flow.obj
 0001:000110c0       ??_EISDKInMeetingServiceMgrEvent@@UEAAPEAXI@Z 00000001400120c0 f i custom_ui_mgr_flow.obj
 0001:000110c0       ??_GISDKInMeetingServiceMgrEvent@@UEAAPEAXI@Z 00000001400120c0 f i custom_ui_mgr_flow.obj
 0001:00011100       ??_GITestAudioDeviceHelperEvent@ZOOMSDK@@UEAAPEAXI@Z 0000000140012100 f i custom_ui_mgr_flow.obj
 0001:00011100       ??_EITestAudioDeviceHelperEvent@ZOOMSDK@@UEAAPEAXI@Z 0000000140012100 f i custom_ui_mgr_flow.obj
 0001:00011140       ??_GITestVideoDeviceHelperEvent@ZOOMSDK@@UEAAPEAXI@Z 0000000140012140 f i custom_ui_mgr_flow.obj
 0001:00011140       ??_EITestVideoDeviceHelperEvent@ZOOMSDK@@UEAAPEAXI@Z 0000000140012140 f i custom_ui_mgr_flow.obj
 0001:00011180       ?GetMeetingID@CSDKCustomUIWorkFlow@@QEAA_KXZ 0000000140012180 f   custom_ui_mgr_flow.obj
 0001:000111e0       ?GetServiceControls@CSDKCustomUIWorkFlow@@QEAAXXZ 00000001400121e0 f   custom_ui_mgr_flow.obj
 0001:000113b0       ?Init@CSDKCustomUIWorkFlow@@QEAAXPEAVISDKInMeetingServiceCustomUIEvent@@@Z 00000001400123b0 f   custom_ui_mgr_flow.obj
 0001:000113f0       ?InitMeetingService@CSDKCustomUIWorkFlow@@QEAAXXZ 00000001400123f0 f   custom_ui_mgr_flow.obj
 0001:00011650       ?IsAudioOn@CSDKCustomUIWorkFlow@@QEAA_NXZ 0000000140012650 f   custom_ui_mgr_flow.obj
 0001:000116e0       ?IsInMeeting@@YA_NW4MeetingStatus@ZOOMSDK@@@Z 00000001400126e0 f i custom_ui_mgr_flow.obj
 0001:00011710       ?IsMeetingServiceReady@CSDKCustomUIWorkFlow@@QEAA_NXZ 0000000140012710 f   custom_ui_mgr_flow.obj
 0001:00011760       ?IsVideoOn@CSDKCustomUIWorkFlow@@QEAA_NXZ 0000000140012760 f   custom_ui_mgr_flow.obj
 0001:000117d0       ?onUserVideoQualityChanged@CUtilWnd@@UEAAXW4VideoConnectionQuality@ZOOMSDK@@I@Z 00000001400127d0 f i util_window.obj
 0001:000117d0       ?onUserVideoQualityChanged@CSDKCustomUIWorkFlow@@UEAAXW4VideoConnectionQuality@ZOOMSDK@@I@Z 00000001400127d0 f i custom_ui_mgr_flow.obj
 0001:000117d0       ?onLocalRecordingStatusChanged@SDKInterfaceWrap@@UEAAXIW4RecordingStatus@ZOOMSDK@@@Z 00000001400127d0 f i sdk_util.obj
 0001:000117d0       ?onLocalRecordingStatusChanged@CMoreFeaturesUIMgr@@UEAAXIW4RecordingStatus@ZOOMSDK@@@Z 00000001400127d0 f i more_features_ui.obj
 0001:000117d0       ?onUserVideoQualityChanged@SDKInterfaceWrap@@UEAAXW4VideoConnectionQuality@ZOOMSDK@@I@Z 00000001400127d0 f i sdk_util.obj
 0001:000117d0       ?onLocalRecordingStatusChanged@CSDKCustomUIWorkFlow@@UEAAXIW4RecordingStatus@ZOOMSDK@@@Z 00000001400127d0 f i custom_ui_mgr_flow.obj
 0001:000117d0       ?OnMicSpkVolumnChanged@CSDKCustomUIWorkFlow@@UEAAXII@Z 00000001400127d0 f i custom_ui_mgr_flow.obj
 0001:000117e0       ?Uninit@CSDKCustomUIWorkFlow@@QEAAXXZ 00000001400127e0 f   custom_ui_mgr_flow.obj
 0001:000118e0       ?onClosedCaptionMsgReceived@CSDKCustomUIWorkFlow@@UEAAXPEB_WI_J@Z 00000001400128e0 f i custom_ui_mgr_flow.obj
 0001:00011900       ?onCustomizedAnnotationObjDestroyed@CSDKCustomUIWorkFlow@@UEAAXPEAVICustomizedAnnotationObj@ZOOMSDK@@@Z 0000000140012900 f   custom_ui_mgr_flow.obj
 0001:00011940       ?onCustomizedLocalRecordingSourceNotification@CSDKCustomUIWorkFlow@@UEAAXPEAVICustomizedLocalRecordingLayoutHelper@ZOOMSDK@@@Z 0000000140012940 f   custom_ui_mgr_flow.obj
 0001:00011980       ?onLowOrRaiseHandStatusChanged@CSDKCustomUIWorkFlow@@UEAAX_NI@Z 0000000140012980 f i custom_ui_mgr_flow.obj
 0001:00011990       ?onMeetingStatusChanged@CSDKCustomUIWorkFlow@@UEAAXW4MeetingStatus@ZOOMSDK@@H@Z 0000000140012990 f   custom_ui_mgr_flow.obj
 0001:000119e0       ?onRecording2MP4Done@CSDKCustomUIWorkFlow@@UEAAX_NHPEB_W@Z 00000001400129e0 f i custom_ui_mgr_flow.obj
 0001:00011a00       ?onRemoteControlStatus@CSDKCustomUIWorkFlow@@UEAAXW4RemoteControlStatus@ZOOMSDK@@I@Z 0000000140012a00 f   custom_ui_mgr_flow.obj
 0001:00011a50       ?onSharingShareAnnotationStatusChanged@CSDKCustomUIWorkFlow@@UEAAXPEAVICustomizedShareRender@ZOOMSDK@@W4CustomizedShareAnnotationStatus@3@@Z 0000000140012a50 f   custom_ui_mgr_flow.obj
 0001:00011aa0       ?onSharingStatus@CSDKCustomUIWorkFlow@@UEAAXW4SharingStatus@ZOOMSDK@@I@Z 0000000140012aa0 f   custom_ui_mgr_flow.obj
 0001:00011af0       ?onUserAudioStatusChange@CSDKCustomUIWorkFlow@@UEAAXPEAV?$IList@PEAVIUserAudioStatus@ZOOMSDK@@@ZOOMSDK@@PEB_W@Z 0000000140012af0 f   custom_ui_mgr_flow.obj
 0001:00011b40       ?onUserJoin@CSDKCustomUIWorkFlow@@UEAAXPEAV?$IList@I@ZOOMSDK@@PEB_W@Z 0000000140012b40 f   custom_ui_mgr_flow.obj
 0001:00011b90       ?onUserLeft@CSDKCustomUIWorkFlow@@UEAAXPEAV?$IList@I@ZOOMSDK@@PEB_W@Z 0000000140012b90 f   custom_ui_mgr_flow.obj
 0001:00011be0       ?onUserNameChanged@CSDKCustomUIWorkFlow@@UEAAXIPEB_W@Z 0000000140012be0 f   custom_ui_mgr_flow.obj
 0001:00011c30       ?onUserVideoStatusChange@CSDKCustomUIWorkFlow@@UEAAXIW4VideoStatus@ZOOMSDK@@@Z 0000000140012c30 f   custom_ui_mgr_flow.obj
 0001:00011c80       ?onWebinarNeedRegisterNotification@CSDKCustomUIWorkFlow@@UEAAXPEAVIWebinarNeedRegisterHandler@ZOOMSDK@@@Z 0000000140012c80 f   custom_ui_mgr_flow.obj
 0001:00011cc0       ??$?0$$V@?$_Compressed_pair@V?$allocator@PEAVIVirtualBGImageInfo@ZOOMSDK@@@std@@V?$_Vector_val@U?$_Simple_types@PEAVIVirtualBGImageInfo@ZOOMSDK@@@std@@@2@$00@std@@QEAA@U_Zero_then_variadic_args_t@1@@Z 0000000140012cc0 f i settings_ui.obj
 0001:00011cc0       ??$?0$$V@?$_Compressed_pair@V?$allocator@V?$basic_string@_WU?$char_traits@_W@std@@V?$allocator@_W@2@@std@@@std@@V?$_Vector_val@U?$_Simple_types@V?$basic_string@_WU?$char_traits@_W@std@@V?$allocator@_W@2@@std@@@std@@@2@$00@std@@QEAA@U_Zero_then_variadic_args_t@1@@Z 0000000140012cc0 f i custom_ui_share_flow.obj
 0001:00011cc0       ??$?0$$V@?$_Compressed_pair@V?$allocator@PEAVIUserInfo@ZOOMSDK@@@std@@V?$_Vector_val@U?$_Simple_types@PEAVIUserInfo@ZOOMSDK@@@std@@@2@$00@std@@QEAA@U_Zero_then_variadic_args_t@1@@Z 0000000140012cc0 f i user_manager.obj
 0001:00011cf0       ??$_Destroy_range@V?$allocator@V?$basic_string@_WU?$char_traits@_W@std@@V?$allocator@_W@2@@std@@@std@@@std@@YAXPEAV?$basic_string@_WU?$char_traits@_W@std@@V?$allocator@_W@2@@0@QEAV10@AEAV?$allocator@V?$basic_string@_WU?$char_traits@_W@std@@V?$allocator@_W@2@@std@@@0@@Z 0000000140012cf0 f i custom_ui_share_flow.obj
 0001:00011d40       ??$_Emplace_back@V?$basic_string@_WU?$char_traits@_W@std@@V?$allocator@_W@2@@std@@@?$_Uninitialized_backout_al@V?$allocator@V?$basic_string@_WU?$char_traits@_W@std@@V?$allocator@_W@2@@std@@@std@@@std@@QEAAX$$QEAV?$basic_string@_WU?$char_traits@_W@std@@V?$allocator@_W@2@@1@@Z 0000000140012d40 f i custom_ui_share_flow.obj
 0001:00011da0       ??$_Emplace_back_with_unused_capacity@V?$basic_string@_WU?$char_traits@_W@std@@V?$allocator@_W@2@@std@@@?$vector@V?$basic_string@_WU?$char_traits@_W@std@@V?$allocator@_W@2@@std@@V?$allocator@V?$basic_string@_WU?$char_traits@_W@std@@V?$allocator@_W@2@@std@@@2@@std@@AEAA?A_T$$QEAV?$basic_string@_WU?$char_traits@_W@std@@V?$allocator@_W@2@@1@@Z 0000000140012da0 f i custom_ui_share_flow.obj
 0001:00011e50       ??$_Emplace_reallocate@V?$basic_string@_WU?$char_traits@_W@std@@V?$allocator@_W@2@@std@@@?$vector@V?$basic_string@_WU?$char_traits@_W@std@@V?$allocator@_W@2@@std@@V?$allocator@V?$basic_string@_WU?$char_traits@_W@std@@V?$allocator@_W@2@@std@@@2@@std@@QEAAPEAV?$basic_string@_WU?$char_traits@_W@std@@V?$allocator@_W@2@@1@QEAV21@$$QEAV21@@Z 0000000140012e50 f i custom_ui_share_flow.obj
 0001:00012070       ??$_Get_size_of_n@$0CA@@std@@YA_K_K@Z 0000000140013070 f i custom_ui_share_flow.obj
 0001:000120b0       ?GetData@CDuiString@DuiLib@@QEBAPEB_WXZ 00000001400130b0 f i DuiLib64:Utils.obj
 0001:000120b0       ??$_Get_unwrapped@AEBQEAPEAVIUserInfo@ZOOMSDK@@@std@@YA?A_TAEBQEAPEAVIUserInfo@ZOOMSDK@@@Z 00000001400130b0 f i user_manager.obj
 0001:000120b0       ??$_Get_unwrapped@AEAPEA_W@std@@YA?A_TAEAPEA_W@Z 00000001400130b0 f i join_webinar_wnd_ui.obj
 0001:000120b0       ??$_Get_unwrapped@AEBQEAV?$basic_string@_WU?$char_traits@_W@std@@V?$allocator@_W@2@@std@@@std@@YA?A_TAEBQEAV?$basic_string@_WU?$char_traits@_W@std@@V?$allocator@_W@2@@0@@Z 00000001400130b0 f i custom_ui_share_flow.obj
 0001:000120b0       ??$_To_address@PEAPEAVIUserInfo@ZOOMSDK@@@std@@YA?A_PAEBQEAPEAVIUserInfo@ZOOMSDK@@@Z 00000001400130b0 f i user_manager.obj
 0001:000120b0       ??BCDuiString@DuiLib@@QEBAPEB_WXZ 00000001400130b0 f i DuiLib64:Utils.obj
 0001:000120b0       ?GetData@CDuiPtrArray@DuiLib@@QEAAPEAPEAXXZ 00000001400130b0 f i DuiLib64:Utils.obj
 0001:000120b0       ??D?$_Vector_const_iterator@V?$_Vector_val@U?$_Simple_types@PEAVIUserInfo@ZOOMSDK@@@std@@@std@@@std@@QEBAAEBQEAVIUserInfo@ZOOMSDK@@XZ 00000001400130b0 f i user_manager.obj
 0001:000120b0       ??$_Get_unwrapped@AEBQEAPEAVIVirtualBGImageInfo@ZOOMSDK@@@std@@YA?A_TAEBQEAPEAVIVirtualBGImageInfo@ZOOMSDK@@@Z 00000001400130b0 f i settings_ui.obj
 0001:000120b0       ??$_To_address@PEAPEAVIVirtualBGImageInfo@ZOOMSDK@@@std@@YA?A_PAEBQEAPEAVIVirtualBGImageInfo@ZOOMSDK@@@Z 00000001400130b0 f i settings_ui.obj
 0001:000120b0       ??$_Tuple_get@$0A@AEBI@std@@YA$$QEA_P$$QEAV?$tuple@AEBI@0@@Z 00000001400130b0 f i user_manager.obj
 0001:000120c0       ??$_Uninitialized_move@PEAV?$basic_string@_WU?$char_traits@_W@std@@V?$allocator@_W@2@@std@@V?$allocator@V?$basic_string@_WU?$char_traits@_W@std@@V?$allocator@_W@2@@std@@@2@@std@@YAPEAV?$basic_string@_WU?$char_traits@_W@std@@V?$allocator@_W@2@@0@QEAV10@0PEAV10@AEAV?$allocator@V?$basic_string@_WU?$char_traits@_W@std@@V?$allocator@_W@2@@std@@@0@@Z 00000001400130c0 f i custom_ui_share_flow.obj
 0001:00012170       ??$construct@V?$basic_string@_WU?$char_traits@_W@std@@V?$allocator@_W@2@@std@@V12@@?$_Default_allocator_traits@V?$allocator@V?$basic_string@_WU?$char_traits@_W@std@@V?$allocator@_W@2@@std@@@std@@@std@@SAXAEAV?$allocator@V?$basic_string@_WU?$char_traits@_W@std@@V?$allocator@_W@2@@std@@@1@QEAV?$basic_string@_WU?$char_traits@_W@std@@V?$allocator@_W@2@@1@$$QEAV31@@Z 0000000140013170 f i custom_ui_share_flow.obj
 0001:000121c0       ??$destroy@V?$basic_string@_WU?$char_traits@_W@std@@V?$allocator@_W@2@@std@@@?$_Default_allocator_traits@V?$allocator@V?$basic_string@_WU?$char_traits@_W@std@@V?$allocator@_W@2@@std@@@std@@@std@@SAXAEAV?$allocator@V?$basic_string@_WU?$char_traits@_W@std@@V?$allocator@_W@2@@std@@@1@QEAV?$basic_string@_WU?$char_traits@_W@std@@V?$allocator@_W@2@@1@@Z 00000001400131c0 f i custom_ui_share_flow.obj
 0001:000121e0       ??$emplace_back@V?$basic_string@_WU?$char_traits@_W@std@@V?$allocator@_W@2@@std@@@?$vector@V?$basic_string@_WU?$char_traits@_W@std@@V?$allocator@_W@2@@std@@V?$allocator@V?$basic_string@_WU?$char_traits@_W@std@@V?$allocator@_W@2@@std@@@2@@std@@QEAA?A_T$$QEAV?$basic_string@_WU?$char_traits@_W@std@@V?$allocator@_W@2@@1@@Z 00000001400131e0 f i custom_ui_share_flow.obj
 0001:00012260       ??0?$_Uninitialized_backout_al@V?$allocator@PEAVIVirtualBGImageInfo@ZOOMSDK@@@std@@@std@@QEAA@PEAPEAVIVirtualBGImageInfo@ZOOMSDK@@AEAV?$allocator@PEAVIVirtualBGImageInfo@ZOOMSDK@@@1@@Z 0000000140013260 f i settings_ui.obj
 0001:00012260       ??0?$_Uninitialized_backout_al@V?$allocator@V?$basic_string@_WU?$char_traits@_W@std@@V?$allocator@_W@2@@std@@@std@@@std@@QEAA@PEAV?$basic_string@_WU?$char_traits@_W@std@@V?$allocator@_W@2@@1@AEAV?$allocator@V?$basic_string@_WU?$char_traits@_W@std@@V?$allocator@_W@2@@std@@@1@@Z 0000000140013260 f i custom_ui_share_flow.obj
 0001:00012260       ??0?$_Uninitialized_backout_al@V?$allocator@PEAVIUserInfo@ZOOMSDK@@@std@@@std@@QEAA@PEAPEAVIUserInfo@ZOOMSDK@@AEAV?$allocator@PEAVIUserInfo@ZOOMSDK@@@1@@Z 0000000140013260 f i user_manager.obj
 0001:000122a0       ??0?$_Vector_val@U?$_Simple_types@PEAVIVirtualBGImageInfo@ZOOMSDK@@@std@@@std@@QEAA@XZ 00000001400132a0 f i settings_ui.obj
 0001:000122a0       ??0?$_Vector_val@U?$_Simple_types@PEAVIUserInfo@ZOOMSDK@@@std@@@std@@QEAA@XZ 00000001400132a0 f i user_manager.obj
 0001:000122a0       ??0?$_Vector_val@U?$_Simple_types@V?$basic_string@_WU?$char_traits@_W@std@@V?$allocator@_W@2@@std@@@std@@@std@@QEAA@XZ 00000001400132a0 f i custom_ui_share_flow.obj
 0001:000122e0       ??0?$vector@V?$basic_string@_WU?$char_traits@_W@std@@V?$allocator@_W@2@@std@@V?$allocator@V?$basic_string@_WU?$char_traits@_W@std@@V?$allocator@_W@2@@std@@@2@@std@@QEAA@XZ 00000001400132e0 f i custom_ui_share_flow.obj
 0001:00012320       ??0?$_Tree_val@U?$_Tree_simple_types@PEAVIMeetingServiceEvent@ZOOMSDK@@@std@@@std@@QEAA@XZ 0000000140013320 f   sdk_util.obj
 0001:00012320       ??0?$_Tree_val@U?$_Tree_simple_types@U?$pair@$$CBHW4bkItemType@@@std@@@std@@@std@@QEAA@XZ 0000000140013320 f   settings_ui.obj
 0001:00012320       ??0?$_Tree_val@U?$_Tree_simple_types@U?$pair@$$CBIPEAVIUserInfo@ZOOMSDK@@@std@@@std@@@std@@QEAA@XZ 0000000140013320 f   user_manager.obj
 0001:00012320       ??0?$_Tree_val@U?$_Tree_simple_types@PEAVIClosedCaptionControllerEvent@ZOOMSDK@@@std@@@std@@QEAA@XZ 0000000140013320 f   sdk_util.obj
 0001:00012320       ??0?$_Tree_val@U?$_Tree_simple_types@PEAVIMeetingParticipantsCtrlEvent@ZOOMSDK@@@std@@@std@@QEAA@XZ 0000000140013320 f   sdk_util.obj
 0001:00012320       ??0?$_Tree_val@U?$_Tree_simple_types@PEAVIMeetingChatCtrlEvent@ZOOMSDK@@@std@@@std@@QEAA@XZ 0000000140013320 f   sdk_util.obj
 0001:00012320       ??0?$_Tree_val@U?$_Tree_simple_types@PEAVIAuthServiceEvent@ZOOMSDK@@@std@@@std@@QEAA@XZ 0000000140013320 f   sdk_util.obj
 0001:00012320       ??0CCustomizeUIShareFlow@@QEAA@XZ 0000000140013320 f   custom_ui_share_flow.obj
 0001:00012320       ??0?$_Tree_val@U?$_Tree_simple_types@PEAVIMeetingVideoCtrlEvent@ZOOMSDK@@@std@@@std@@QEAA@XZ 0000000140013320 f   sdk_util.obj
 0001:00012320       ??0?$_List_val@U?$_List_simple_types@H@std@@@std@@QEAA@XZ 0000000140013320 f   participant_ui.obj
 0001:00012320       ??0?$_Tree_val@U?$_Tree_simple_types@PEAVISDKInMeetingServiceMgrEvent@@@std@@@std@@QEAA@XZ 0000000140013320 f   sdk_util.obj
 0001:00012350       ??1?$_Uninitialized_backout_al@V?$allocator@V?$basic_string@_WU?$char_traits@_W@std@@V?$allocator@_W@2@@std@@@std@@@std@@QEAA@XZ 0000000140013350 f i custom_ui_share_flow.obj
 0001:00012380       ??1?$vector@V?$basic_string@_WU?$char_traits@_W@std@@V?$allocator@_W@2@@std@@V?$allocator@V?$basic_string@_WU?$char_traits@_W@std@@V?$allocator@_W@2@@std@@@2@@std@@QEAA@XZ 0000000140013380 f i custom_ui_share_flow.obj
 0001:000123a0       ??4?$basic_string@_WU?$char_traits@_W@std@@V?$allocator@_W@2@@std@@QEAAAEAV01@AEBV01@@Z 00000001400133a0 f i custom_ui_share_flow.obj
 0001:00012400       ??A?$vector@V?$basic_string@_WU?$char_traits@_W@std@@V?$allocator@_W@2@@std@@V?$allocator@V?$basic_string@_WU?$char_traits@_W@std@@V?$allocator@_W@2@@std@@@2@@std@@QEAAAEAV?$basic_string@_WU?$char_traits@_W@std@@V?$allocator@_W@2@@1@_K@Z 0000000140013400 f i custom_ui_share_flow.obj
 0001:00012430       ??_G?$basic_string@_WU?$char_traits@_W@std@@V?$allocator@_W@2@@std@@QEAAPEAXI@Z 0000000140013430 f i custom_ui_share_flow.obj
 0001:00012470       ?GetMeetingShareController@CCustomizeUIShareFlow@@QEAAPEAVIMeetingShareController@ZOOMSDK@@XZ 0000000140013470 f   custom_ui_share_flow.obj
 0001:000124b0       ?HandleWindowsMoveMsg@CCustomizeUIShareFlow@@QEAA?AW4SDKError@ZOOMSDK@@XZ 00000001400134b0 f   custom_ui_share_flow.obj
 0001:000124f0       ?Hide@CCustomizeUIShareFlow@@QEAA?AW4SDKError@ZOOMSDK@@XZ 00000001400134f0 f   custom_ui_share_flow.obj
 0001:00012530       ?IsMeetingServiceReady@CCustomizeUIShareFlow@@AEAA_NXZ 0000000140013530 f   custom_ui_share_flow.obj
 0001:00012580       ?MyInfoEnumProc@@YAHPEAUHMONITOR__@@PEAUHDC__@@PEAUtagRECT@@_J@Z 0000000140013580 f   custom_ui_share_flow.obj
 0001:00012630       ?Resize@CCustomizeUIShareFlow@@QEAA?AW4SDKError@ZOOMSDK@@UtagRECT@@@Z 0000000140013630 f   custom_ui_share_flow.obj
 0001:00012690       ?SetEvent@CCustomizeUIShareFlow@@QEAA?AW4SDKError@ZOOMSDK@@PEAVICustomizedShareRenderEvent@3@@Z 0000000140013690 f   custom_ui_share_flow.obj
 0001:000126d0       ?SetShareRender@CCustomizeUIShareFlow@@QEAAXPEAVICustomizedShareRender@ZOOMSDK@@@Z 00000001400136d0 f   custom_ui_share_flow.obj
 0001:000126d0       ?SetVideoContainer@CCustomizeUIVideoFlow@@QEAAXPEAVICustomizedVideoContainer@ZOOMSDK@@@Z 00000001400136d0 f   custom_ui_video_flow.obj
 0001:000126f0       ?SetUserID@CCustomizeUIShareFlow@@QEAA?AW4SDKError@ZOOMSDK@@I@Z 00000001400136f0 f   custom_ui_share_flow.obj
 0001:00012730       ?Show@CCustomizeUIShareFlow@@QEAA?AW4SDKError@ZOOMSDK@@XZ 0000000140013730 f   custom_ui_share_flow.obj
 0001:00012770       ?StartShare@CCustomizeUIShareFlow@@QEAA?AW4SDKError@ZOOMSDK@@W4SDKShareType@@PEAUHWND__@@@Z 0000000140013770 f   custom_ui_share_flow.obj
 0001:00012a30       ?StopShare@CCustomizeUIShareFlow@@QEAA?AW4SDKError@ZOOMSDK@@XZ 0000000140013a30 f   custom_ui_share_flow.obj
 0001:00012b00       ?_Calculate_growth@?$vector@V?$basic_string@_WU?$char_traits@_W@std@@V?$allocator@_W@2@@std@@V?$allocator@V?$basic_string@_WU?$char_traits@_W@std@@V?$allocator@_W@2@@std@@@2@@std@@AEBA_K_K@Z 0000000140013b00 f i custom_ui_share_flow.obj
 0001:00012b90       ?_Change_array@?$vector@V?$basic_string@_WU?$char_traits@_W@std@@V?$allocator@_W@2@@std@@V?$allocator@V?$basic_string@_WU?$char_traits@_W@std@@V?$allocator@_W@2@@std@@@2@@std@@AEAAXQEAV?$basic_string@_WU?$char_traits@_W@std@@V?$allocator@_W@2@@2@_K1@Z 0000000140013b90 f i custom_ui_share_flow.obj
 0001:00012c90       ?_Copy_assign@?$basic_string@_WU?$char_traits@_W@std@@V?$allocator@_W@2@@std@@AEAAXAEBV12@U?$integral_constant@_N$0A@@2@@Z 0000000140013c90 f i custom_ui_share_flow.obj
 0001:00012d00       ?_Destroy@?$vector@V?$basic_string@_WU?$char_traits@_W@std@@V?$allocator@_W@2@@std@@V?$allocator@V?$basic_string@_WU?$char_traits@_W@std@@V?$allocator@_W@2@@std@@@2@@std@@AEAAXPEAV?$basic_string@_WU?$char_traits@_W@std@@V?$allocator@_W@2@@2@0@Z 0000000140013d00 f i custom_ui_share_flow.obj
 0001:00012d40       ?_Release@?$_Uninitialized_backout_al@V?$allocator@PEAVIUserInfo@ZOOMSDK@@@std@@@std@@QEAAPEAPEAVIUserInfo@ZOOMSDK@@XZ 0000000140013d40 f i user_manager.obj
 0001:00012d40       ?_Release@?$_Uninitialized_backout_al@V?$allocator@PEAVIVirtualBGImageInfo@ZOOMSDK@@@std@@@std@@QEAAPEAPEAVIVirtualBGImageInfo@ZOOMSDK@@XZ 0000000140013d40 f i settings_ui.obj
 0001:00012d40       ?_Release@?$_Uninitialized_backout_al@V?$allocator@V?$basic_string@_WU?$char_traits@_W@std@@V?$allocator@_W@2@@std@@@std@@@std@@QEAAPEAV?$basic_string@_WU?$char_traits@_W@std@@V?$allocator@_W@2@@2@XZ 0000000140013d40 f i custom_ui_share_flow.obj
 0001:00012d60       ?_Tidy@?$vector@V?$basic_string@_WU?$char_traits@_W@std@@V?$allocator@_W@2@@std@@V?$allocator@V?$basic_string@_WU?$char_traits@_W@std@@V?$allocator@_W@2@@std@@@2@@std@@AEAAXXZ 0000000140013d60 f i custom_ui_share_flow.obj
 0001:00012e30       ?_Umove_if_noexcept1@?$vector@V?$basic_string@_WU?$char_traits@_W@std@@V?$allocator@_W@2@@std@@V?$allocator@V?$basic_string@_WU?$char_traits@_W@std@@V?$allocator@_W@2@@std@@@2@@std@@AEAAXPEAV?$basic_string@_WU?$char_traits@_W@std@@V?$allocator@_W@2@@2@00U?$integral_constant@_N$00@2@@Z 0000000140013e30 f i custom_ui_share_flow.obj
 0001:00012e30       ?_Umove@?$vector@V?$basic_string@_WU?$char_traits@_W@std@@V?$allocator@_W@2@@std@@V?$allocator@V?$basic_string@_WU?$char_traits@_W@std@@V?$allocator@_W@2@@std@@@2@@std@@AEAAPEAV?$basic_string@_WU?$char_traits@_W@std@@V?$allocator@_W@2@@2@PEAV32@00@Z 0000000140013e30 f i custom_ui_share_flow.obj
 0001:00012e70       ?_Umove_if_noexcept@?$vector@V?$basic_string@_WU?$char_traits@_W@std@@V?$allocator@_W@2@@std@@V?$allocator@V?$basic_string@_WU?$char_traits@_W@std@@V?$allocator@_W@2@@std@@@2@@std@@AEAAXPEAV?$basic_string@_WU?$char_traits@_W@std@@V?$allocator@_W@2@@2@00@Z 0000000140013e70 f i custom_ui_share_flow.obj
 0001:00012ed0       ?_Xlength@?$vector@PEAVIVirtualBGImageInfo@ZOOMSDK@@V?$allocator@PEAVIVirtualBGImageInfo@ZOOMSDK@@@std@@@std@@CAXXZ 0000000140013ed0 f i settings_ui.obj
 0001:00012ed0       ?_Xlength@?$vector@V?$basic_string@_WU?$char_traits@_W@std@@V?$allocator@_W@2@@std@@V?$allocator@V?$basic_string@_WU?$char_traits@_W@std@@V?$allocator@_W@2@@std@@@2@@std@@CAXXZ 0000000140013ed0 f i custom_ui_share_flow.obj
 0001:00012ed0       ?_Xlength@?$vector@PEAVIUserInfo@ZOOMSDK@@V?$allocator@PEAVIUserInfo@ZOOMSDK@@@std@@@std@@CAXXZ 0000000140013ed0 f i user_manager.obj
 0001:00012ef0       ?allocate@?$allocator@V?$basic_string@_WU?$char_traits@_W@std@@V?$allocator@_W@2@@std@@@std@@QEAAPEAV?$basic_string@_WU?$char_traits@_W@std@@V?$allocator@_W@2@@2@_K@Z 0000000140013ef0 f i custom_ui_share_flow.obj
 0001:00012f20       ?capacity@?$vector@V?$basic_string@_WU?$char_traits@_W@std@@V?$allocator@_W@2@@std@@V?$allocator@V?$basic_string@_WU?$char_traits@_W@std@@V?$allocator@_W@2@@std@@@2@@std@@QEBA_KXZ 0000000140013f20 f i custom_ui_share_flow.obj
 0001:00012f50       ?deallocate@?$allocator@V?$basic_string@_WU?$char_traits@_W@std@@V?$allocator@_W@2@@std@@@std@@QEAAXQEAV?$basic_string@_WU?$char_traits@_W@std@@V?$allocator@_W@2@@2@_K@Z 0000000140013f50 f i custom_ui_share_flow.obj
 0001:00012f80       ?max_size@?$_Default_allocator_traits@V?$allocator@V?$basic_string@_WU?$char_traits@_W@std@@V?$allocator@_W@2@@std@@@std@@@std@@SA_KAEBV?$allocator@V?$basic_string@_WU?$char_traits@_W@std@@V?$allocator@_W@2@@std@@@2@@Z 0000000140013f80 f i custom_ui_share_flow.obj
 0001:00012f90       ?max_size@?$vector@V?$basic_string@_WU?$char_traits@_W@std@@V?$allocator@_W@2@@std@@V?$allocator@V?$basic_string@_WU?$char_traits@_W@std@@V?$allocator@_W@2@@std@@@2@@std@@QEBA_KXZ 0000000140013f90 f i custom_ui_share_flow.obj
 0001:00012fe0       ?push_back@?$vector@V?$basic_string@_WU?$char_traits@_W@std@@V?$allocator@_W@2@@std@@V?$allocator@V?$basic_string@_WU?$char_traits@_W@std@@V?$allocator@_W@2@@std@@@2@@std@@QEAAX$$QEAV?$basic_string@_WU?$char_traits@_W@std@@V?$allocator@_W@2@@2@@Z 0000000140013fe0 f i custom_ui_share_flow.obj
 0001:00013010       ?size@?$vector@V?$basic_string@_WU?$char_traits@_W@std@@V?$allocator@_W@2@@std@@V?$allocator@V?$basic_string@_WU?$char_traits@_W@std@@V?$allocator@_W@2@@std@@@2@@std@@QEBA_KXZ 0000000140014010 f i custom_ui_share_flow.obj
 0001:00013040       ??0CCustomizeUIShareMgr@@QEAA@PEAVCCustomizeInMeetingUIMgr@@@Z 0000000140014040 f   custom_ui_share_mgr.obj
 0001:000130b0       ??0CCustomizeUIShareRenderUI@@QEAA@PEAVCCustomizeUIShareMgr@@@Z 00000001400140b0 f   custom_ui_share_mgr.obj
 0001:000130f0       ??0CCustomizeUIShareSelectUI@@QEAA@PEAVCCustomizeUIShareMgr@@@Z 00000001400140f0 f   custom_ui_share_mgr.obj
 0001:000131c0       ??0CRect@@QEAA@HHHH@Z      00000001400141c0 f i custom_ui_share_mgr.obj
 0001:000131c0       ??0CDuiRect@DuiLib@@QEAA@JJJJ@Z 00000001400141c0 f i DuiLib64:Utils.obj
 0001:00013210       ??1CCustomizeUIShareRenderUI@@QEAA@XZ 0000000140014210 f   custom_ui_share_mgr.obj
 0001:00013240       ??1CCustomizeUIShareSelectUI@@QEAA@XZ 0000000140014240 f   custom_ui_share_mgr.obj
 0001:00013290       ??_GCCustomizeUIShareRenderUI@@QEAAPEAXI@Z 0000000140014290 f i custom_ui_share_mgr.obj
 0001:000132d0       ??_GCCustomizeUIShareSelectUI@@QEAAPEAXI@Z 00000001400142d0 f i custom_ui_share_mgr.obj
 0001:00013310       ??_GShareToolbarWindow@@QEAAPEAXI@Z 0000000140014310 f i custom_ui_share_mgr.obj
 0001:00013350       ??_GViewOptionsWindow@@QEAAPEAXI@Z 0000000140014350 f i custom_ui_share_mgr.obj
 0001:00013390       ?AddToAppList@CCustomizeUIShareSelectUI@@QEAAXPEAUHWND__@@@Z 0000000140014390 f   custom_ui_share_mgr.obj
 0001:000135b0       ?AdjustListUIPos@CCustomizeUIShareSelectUI@@AEAAXXZ 00000001400145b0 f   custom_ui_share_mgr.obj
 0001:00013760       ?CreateCustomShareRender@CCustomizeUIShareMgr@@QEAAXPEAVICustomizedUIMgr@ZOOMSDK@@@Z 0000000140014760 f   custom_ui_share_mgr.obj
 0001:00013900       ?CreateSelectShareUI@CCustomizeUIShareMgr@@AEAAXXZ 0000000140014900 f   custom_ui_share_mgr.obj
 0001:00013a30       ?CreateShareRenderUI@CCustomizeUIShareMgr@@AEAAXXZ 0000000140014a30 f   custom_ui_share_mgr.obj
 0001:00013ad0       ?DestroyAllShareWindows@CCustomizeUIShareMgr@@QEAAXXZ 0000000140014ad0 f   custom_ui_share_mgr.obj
 0001:00013b10       ?DestroyCustomShareRender@CCustomizeUIShareMgr@@QEAAXXZ 0000000140014b10 f   custom_ui_share_mgr.obj
 0001:00013b90       ?DestroySelectShareUI@CCustomizeUIShareMgr@@AEAAXXZ 0000000140014b90 f   custom_ui_share_mgr.obj
 0001:00013c20       ?DestroyShareRenderUI@CCustomizeUIShareMgr@@AEAAXXZ 0000000140014c20 f   custom_ui_share_mgr.obj
 0001:00013cb0       ?DestroyShareToolbarWindow@CCustomizeUIShareMgr@@QEAAXXZ 0000000140014cb0 f   custom_ui_share_mgr.obj
 0001:00013d10       ?DestroyViewOptionsWindow@CCustomizeUIShareMgr@@QEAAXXZ 0000000140014d10 f   custom_ui_share_mgr.obj
 0001:00013d70       ?DoShareButtonClick@CCustomizeUIShareSelectUI@@AEAAXW4SDKShareType@@@Z 0000000140014d70 f   custom_ui_share_mgr.obj
 0001:00013db0       ?EnumAllWindows@CCustomizeUIShareSelectUI@@QEAAXXZ 0000000140014db0 f   custom_ui_share_mgr.obj
 0001:00013dd0       ?EnumWindowsProc@@YAHPEAUHWND__@@_J@Z 0000000140014dd0 f   custom_ui_share_mgr.obj
 0001:00013e40       ?GetShareContentSender@CCustomizeUIShareMgr@@AEAAIXZ 0000000140014e40 f   custom_ui_share_mgr.obj
 0001:00013ed0       ?GetSkinRes@CCustomizeUIShareSelectUI@@UEAAIXZ 0000000140014ed0 f i custom_ui_share_mgr.obj
 0001:00013ee0       ?HandleDestroyWindow@CCustomizeUIShareRenderUI@@QEAAXXZ 0000000140014ee0 f   custom_ui_share_mgr.obj
 0001:00013f00       ?HandleMessage@CCustomizeUIShareSelectUI@@UEAA_JI_K_J@Z 0000000140014f00 f   custom_ui_share_mgr.obj
 0001:00014110       ?HandleRenderUIDestroyed@CCustomizeUIShareMgr@@QEAAXXZ 0000000140015110 f   custom_ui_share_mgr.obj
 0001:00014140       ?HandleShareRenderDestroyed@CCustomizeUIShareMgr@@QEAAXPEAVICustomizedShareRender@ZOOMSDK@@@Z 0000000140015140 f   custom_ui_share_mgr.obj
 0001:00014180       ?HandleShareRenderWindowMsgNotification@CCustomizeUIShareMgr@@QEAAXI_K_J@Z 0000000140015180 f   custom_ui_share_mgr.obj
 0001:00014220       ?HandleSharingShareAnnotationStatusChanged@CCustomizeUIShareMgr@@QEAAXPEAVICustomizedShareRender@ZOOMSDK@@W4CustomizedShareAnnotationStatus@3@@Z 0000000140015220 f   custom_ui_share_mgr.obj
 0001:00014240       ?HandleSharingStatus@CCustomizeUIShareMgr@@QEAAXW4SharingStatus@ZOOMSDK@@I@Z 0000000140015240 f   custom_ui_share_mgr.obj
 0001:00014460       ?HandleSizeChanged@CCustomizeUIShareMgr@@QEAAXAEAUtagRECT@@@Z 0000000140015460 f   custom_ui_share_mgr.obj
 0001:000144a0       ?HandleUserChanged@CCustomizeUIShareMgr@@QEAAXXZ 00000001400154a0 f   custom_ui_share_mgr.obj
 0001:000144d0       ?HandleWindowMoveMsg@CCustomizeUIShareMgr@@QEAAXXZ 00000001400154d0 f   custom_ui_share_mgr.obj
 0001:000144f0       ?GetHeight@CDuiRect@DuiLib@@QEBAHXZ 00000001400154f0 f i DuiLib64:Utils.obj
 0001:000144f0       ?Height@CRect@@QEBAHXZ     00000001400154f0 f i custom_ui_share_mgr.obj
 0001:00014510       ?HideMe@CCustomizeUIShareRenderUI@@QEAAXXZ 0000000140015510 f   custom_ui_share_mgr.obj
 0001:00014550       ?Init@CCustomizeUIShareMgr@@QEAAXXZ 0000000140015550 f   custom_ui_share_mgr.obj
 0001:000145d0       ?InitAppList@CCustomizeUIShareSelectUI@@QEAAXXZ 00000001400155d0 f   custom_ui_share_mgr.obj
 0001:00014640       ?InitWindow@CCustomizeUIShareRenderUI@@QEAAXXZ 0000000140015640 f   custom_ui_share_mgr.obj
 0001:000146a0       ?InitWindow@CCustomizeUIShareSelectUI@@UEAAXXZ 00000001400156a0 f   custom_ui_share_mgr.obj
 0001:00014910       ?IsInSendShareMode@CCustomizeUIShareMgr@@QEAA_NXZ 0000000140015910 f   custom_ui_share_mgr.obj
 0001:00014920       ?Notify@CCustomizeUIShareSelectUI@@UEAAXAEAUtagTNotifyUI@DuiLib@@@Z 0000000140015920 f   custom_ui_share_mgr.obj
 0001:00014b30       ?SetDefaultRenderPos@CCustomizeUIShareRenderUI@@QEAAXXZ 0000000140015b30 f   custom_ui_share_mgr.obj
 0001:00014bc0       ?SetEvent@CCustomizeUIShareMgr@@QEAAXPEAVICustomizedShareRenderEvent@ZOOMSDK@@@Z 0000000140015bc0 f   custom_ui_share_mgr.obj
 0001:00014bf0       ?ShouldWindowBeDisplayed@@YAHPEAUHWND__@@_J@Z 0000000140015bf0 f   custom_ui_share_mgr.obj
 0001:00014db0       ?ShowMe@CCustomizeUIShareRenderUI@@QEAAXXZ 0000000140015db0 f   custom_ui_share_mgr.obj
 0001:00014e00       ?ShowNextShareContent@CCustomizeUIShareMgr@@AEAAXI@Z 0000000140015e00 f   custom_ui_share_mgr.obj
 0001:00014f40       ?ShowSelectShareUI@CCustomizeUIShareMgr@@QEAAXXZ 0000000140015f40 f   custom_ui_share_mgr.obj
 0001:00014fd0       ?ShowShareToolbarWindow@CCustomizeUIShareMgr@@QEAAX_N@Z 0000000140015fd0 f   custom_ui_share_mgr.obj
 0001:000150e0       ?ShowSharedContent@CCustomizeUIShareMgr@@QEAAXXZ 00000001400160e0 f   custom_ui_share_mgr.obj
 0001:00015120       ?ShowViewOptionsWindow@CCustomizeUIShareMgr@@QEAAX_N@Z 0000000140016120 f   custom_ui_share_mgr.obj
 0001:00015220       ?StartShare@CCustomizeUIShareMgr@@QEAAXW4SDKShareType@@PEAUHWND__@@@Z 0000000140016220 f   custom_ui_share_mgr.obj
 0001:00015270       ?StopShare@CCustomizeUIShareMgr@@QEAAXXZ 0000000140016270 f   custom_ui_share_mgr.obj
 0001:000152b0       ?Width@CRect@@QEBAHXZ      00000001400162b0 f i custom_ui_share_mgr.obj
 0001:000152d0       ?onDestroyed@CCustomizeUIShareRenderUI@@UEAAXXZ 00000001400162d0 f   custom_ui_share_mgr.obj
 0001:00015300       ?onMove@CCustomizeUIShareRenderUI@@UEAAXXZ 0000000140016300 f   custom_ui_share_mgr.obj
 0001:00015330       ?onRemoteControlStatus@CCustomizeUIShareMgr@@QEAAXW4RemoteControlStatus@ZOOMSDK@@I@Z 0000000140016330 f   custom_ui_share_mgr.obj
 0001:000155d0       ?onSelectShareUIClosed@CCustomizeUIShareMgr@@QEAAXXZ 00000001400165d0 f   custom_ui_share_mgr.obj
 0001:000155e0       ?onSize@CCustomizeUIShareRenderUI@@UEAAXAEAUtagRECT@@@Z 00000001400165e0 f   custom_ui_share_mgr.obj
 0001:00015620       ?uninit@CCustomizeUIShareMgr@@QEAAXXZ 0000000140016620 f   custom_ui_share_mgr.obj
 0001:00015650       __local_stdio_scanf_options 0000000140016650 f i custom_ui_share_mgr.obj
 0001:00015660       _vswscanf_s_l              0000000140016660 f i custom_ui_share_mgr.obj
 0001:000156c0       swscanf_s                  00000001400166c0 f i custom_ui_share_mgr.obj
 0001:00015710       ??0CCustomizeUIVideoFlow@@QEAA@XZ 0000000140016710 f   custom_ui_video_flow.obj
 0001:00015730       ?CreateVideoElementFlow@CCustomizeUIVideoFlow@@QEAA?AW4SDKError@ZOOMSDK@@PEAPEAVIVideoRenderElement@3@W4VideoRenderElementType@3@@Z 0000000140016730 f   custom_ui_video_flow.obj
 0001:00015790       ?DestroryVideoElementFlow@CCustomizeUIVideoFlow@@QEAA?AW4SDKError@ZOOMSDK@@PEAVIVideoRenderElement@3@@Z 0000000140016790 f   custom_ui_video_flow.obj
 0001:000157f0       ?HandleSizeChanged@CCustomizeUIVideoFlow@@QEAA?AW4SDKError@ZOOMSDK@@UtagRECT@@@Z 00000001400167f0 f   custom_ui_video_flow.obj
 0001:00015850       ?HidePreviewVideo@CCustomizeUIVideoFlow@@QEAA?AW4SDKError@ZOOMSDK@@PEAVIPreviewVideoRenderElement@3@@Z 0000000140016850 f   custom_ui_video_flow.obj
 0001:00015850       ?HideActiveViewVideo@CCustomizeUIVideoFlow@@QEAA?AW4SDKError@ZOOMSDK@@PEAVIActiveVideoRenderElement@3@@Z 0000000140016850 f   custom_ui_video_flow.obj
 0001:000158a0       ?HideGalleryViewVideo@CCustomizeUIVideoFlow@@QEAA?AW4SDKError@ZOOMSDK@@PEAVINormalVideoRenderElement@3@@Z 00000001400168a0 f   custom_ui_video_flow.obj
 0001:000158f0       ?Reset@CCustomizeUIVideoFlow@@QEAAXXZ 00000001400168f0 f   custom_ui_video_flow.obj
 0001:00015910       ?Show@CCustomizeUIVideoFlow@@QEAAXXZ 0000000140016910 f   custom_ui_video_flow.obj
 0001:00015940       ?ShowActiveViewVideo@CCustomizeUIVideoFlow@@QEAA?AW4SDKError@ZOOMSDK@@PEAVIActiveVideoRenderElement@3@UtagRECT@@@Z 0000000140016940 f   custom_ui_video_flow.obj
 0001:00015940       ?ShowPreviewVideo@CCustomizeUIVideoFlow@@QEAA?AW4SDKError@ZOOMSDK@@PEAVIPreviewVideoRenderElement@3@UtagRECT@@@Z 0000000140016940 f   custom_ui_video_flow.obj
 0001:000159c0       ?ShowGalleryViewVideo@CCustomizeUIVideoFlow@@QEAA?AW4SDKError@ZOOMSDK@@PEAVINormalVideoRenderElement@3@UtagRECT@@@Z 00000001400169c0 f   custom_ui_video_flow.obj
 0001:00015a70       ??0CCustomizeUIVideoMgr@@QEAA@PEAVCCustomizeInMeetingUIMgr@@@Z 0000000140016a70 f   custom_ui_video_mgr.obj
 0001:00015ac0       ?CalculateCountInOnePages@CCustomizeUIVideoMgr@@AEAAXXZ 0000000140016ac0 f   custom_ui_video_mgr.obj
 0001:00015b40       ?CalculateCurrentActiveViewRect@CCustomizeUIVideoMgr@@AEAAXXZ 0000000140016b40 f   custom_ui_video_mgr.obj
 0001:00015c50       ?CalculateCurrentGalleryViewRect@CCustomizeUIVideoMgr@@AEAAXXZ 0000000140016c50 f   custom_ui_video_mgr.obj
 0001:00015d50       ?CalculateTotalPages@CCustomizeUIVideoMgr@@AEAAXXZ 0000000140016d50 f   custom_ui_video_mgr.obj
 0001:00015e20       ?CalulateViewRect@CCustomizeUIVideoMgr@@QEAAXXZ 0000000140016e20 f   custom_ui_video_mgr.obj
 0001:00015e40       ?CreateCustomVideoContainer@CCustomizeUIVideoMgr@@QEAAXPEAVICustomizedUIMgr@ZOOMSDK@@PEAUHWND__@@UtagRECT@@@Z 0000000140016e40 f   custom_ui_video_mgr.obj
 0001:00015fa0       ?CreateGalleryViewVideo@CCustomizeUIVideoMgr@@QEAAXXZ 0000000140016fa0 f   custom_ui_video_mgr.obj
 0001:00016050       ?DestroyActiveViewVideo@CCustomizeUIVideoMgr@@QEAAXXZ 0000000140017050 f   custom_ui_video_mgr.obj
 0001:000160b0       ?DestroyCustomVideoContainer@CCustomizeUIVideoMgr@@AEAAXXZ 00000001400170b0 f   custom_ui_video_mgr.obj
 0001:00016120       ?DestroyGalleryViewVideo@CCustomizeUIVideoMgr@@QEAAXXZ 0000000140017120 f   custom_ui_video_mgr.obj
 0001:000161c0       ?DestroyPreviewVideo@CCustomizeUIVideoMgr@@QEAAXXZ 00000001400171c0 f   custom_ui_video_mgr.obj
 0001:00016220       ?GetCurrentAcviteViewRect@CCustomizeUIVideoMgr@@QEAA?AUtagRECT@@XZ 0000000140017220 f   custom_ui_video_mgr.obj
 0001:00016250       ?GetCurrentGalleryViewRect@CCustomizeUIVideoMgr@@QEAA?AUtagRECT@@XZ 0000000140017250 f   custom_ui_video_mgr.obj
 0001:00016280       ?HandleSizeChanged@CCustomizeUIVideoMgr@@QEAAXUtagRECT@@@Z 0000000140017280 f   custom_ui_video_mgr.obj
 0001:000162d0       ?HandleSwitchGalleryPage@CCustomizeUIVideoMgr@@QEAAXW4ArrowButtonType@@@Z 00000001400172d0 f   custom_ui_video_mgr.obj
 0001:00016330       ?HandleUserChanged@CCustomizeUIVideoMgr@@QEAAXXZ 0000000140017330 f   custom_ui_video_mgr.obj
 0001:00016370       ?HandleVideoRenderElementDestroyed@CCustomizeUIVideoMgr@@QEAAXPEAVIVideoRenderElement@ZOOMSDK@@@Z 0000000140017370 f   custom_ui_video_mgr.obj
 0001:00016460       ?HideGalleryViewVideo@CCustomizeUIVideoMgr@@QEAAXXZ 0000000140017460 f   custom_ui_video_mgr.obj
 0001:000164e0       ?HidePreviewVideo@CCustomizeUIVideoMgr@@QEAAXXZ 00000001400174e0 f   custom_ui_video_mgr.obj
 0001:00016520       ?ReSubscribeNormalUser@CCustomizeUIVideoMgr@@AEAAXW4GalleryViewSubscribeType@@@Z 0000000140017520 f   custom_ui_video_mgr.obj
 0001:00016840       ?SetGalleryViewStatus@CCustomizeUIVideoMgr@@QEAAX_N@Z 0000000140017840 f   custom_ui_video_mgr.obj
 0001:00016860       ?SetParentHWND@CCustomizeUIVideoMgr@@AEAAXPEAUHWND__@@@Z 0000000140017860 f i custom_ui_video_mgr.obj
 0001:00016880       ?Show@CCustomizeUIVideoMgr@@QEAAXXZ 0000000140017880 f   custom_ui_video_mgr.obj
 0001:000168b0       ?ShowActiveViewVideo@CCustomizeUIVideoMgr@@QEAAXXZ 00000001400178b0 f   custom_ui_video_mgr.obj
 0001:00016970       ?ShowGalleryViewVideo@CCustomizeUIVideoMgr@@QEAAXW4GalleryViewSubscribeType@@@Z 0000000140017970 f   custom_ui_video_mgr.obj
 0001:00016b40       ?ShowPreviewVideo@CCustomizeUIVideoMgr@@QEAAXUtagRECT@@@Z 0000000140017b40 f   custom_ui_video_mgr.obj
 0001:00016c10       ?getVideoGalleryCurrPage@CCustomizeUIVideoMgr@@QEAAHXZ 0000000140017c10 f   custom_ui_video_mgr.obj
 0001:00016c30       ?getVideoGalleryPage@CCustomizeUIVideoMgr@@QEAAHXZ 0000000140017c30 f   custom_ui_video_mgr.obj
 0001:00016c40       ?init@CCustomizeUIVideoMgr@@QEAAXXZ 0000000140017c40 f   custom_ui_video_mgr.obj
 0001:00016cd0       ?uninit@CCustomizeUIVideoMgr@@QEAAXXZ 0000000140017cd0 f   custom_ui_video_mgr.obj
 0001:00016d10       ??0ClosedCaptionDisplayUI@@QEAA@HH@Z 0000000140017d10 f   display_cc_ui.obj
 0001:00016db0       ??1ClosedCaptionDisplayUI@@UEAA@XZ 0000000140017db0 f   display_cc_ui.obj
 0001:00016e00       ??_GClosedCaptionDisplayUI@@UEAAPEAXI@Z 0000000140017e00 f i display_cc_ui.obj
 0001:00016e00       ??_EClosedCaptionDisplayUI@@UEAAPEAXI@Z 0000000140017e00 f i display_cc_ui.obj
 0001:00016e40       ?GetWindowClassName@ClosedCaptionDisplayUI@@UEBAPEB_WXZ 0000000140017e40 f i display_cc_ui.obj
 0001:00016e40       ?GetWindowClassName@CInvitationUIMgr@@UEBAPEB_WXZ 0000000140017e40 f i invitation_ui.obj
 0001:00016e50       ?HandleMessage@ClosedCaptionDisplayUI@@UEAA_JI_K_J@Z 0000000140017e50 f   display_cc_ui.obj
 0001:00016fc0       ?HandleSizeChanged@ClosedCaptionDisplayUI@@QEAAXPEAUHWND__@@@Z 0000000140017fc0 f   display_cc_ui.obj
 0001:00017080       ?HideWnd@@YAXPEAUHWND__@@IIK@Z 0000000140018080 f   display_cc_ui.obj
 0001:000170c0       ?Init@ClosedCaptionDisplayUI@@AEAAXXZ 00000001400180c0 f   display_cc_ui.obj
 0001:00017270       ?SetDisplayContent@ClosedCaptionDisplayUI@@QEAAXPEB_W@Z 0000000140018270 f   display_cc_ui.obj
 0001:00017320       ??0CAuthSDKWorkFlow@@QEAA@XZ 0000000140018320 f   init_auth_sdk_workflow.obj
 0001:00017370       ??0CInitSDKWorkFlow@@QEAA@XZ 0000000140018370 f   init_auth_sdk_workflow.obj
 0001:000173b0       ??0IAuthServiceEvent@ZOOMSDK@@QEAA@XZ 00000001400183b0 f i init_auth_sdk_workflow.obj
 0001:000173d0       ??0INetworkConnectionHandler@ZOOMSDK@@QEAA@XZ 00000001400183d0 f i init_auth_sdk_workflow.obj
 0001:000173f0       ??1CAuthSDKWorkFlow@@UEAA@XZ 00000001400183f0 f   init_auth_sdk_workflow.obj
 0001:00017450       ??1CInitSDKWorkFlow@@UEAA@XZ 0000000140018450 f   init_auth_sdk_workflow.obj
 0001:00017470       ??1IAuthServiceEvent@ZOOMSDK@@UEAA@XZ 0000000140018470 f i init_auth_sdk_workflow.obj
 0001:00017490       ??_ECAuthSDKWorkFlow@@UEAAPEAXI@Z 0000000140018490 f i init_auth_sdk_workflow.obj
 0001:00017490       ??_GCAuthSDKWorkFlow@@UEAAPEAXI@Z 0000000140018490 f i init_auth_sdk_workflow.obj
 0001:000174d0       ??_GCInitSDKWorkFlow@@UEAAPEAXI@Z 00000001400184d0 f i init_auth_sdk_workflow.obj
 0001:000174d0       ??_ECInitSDKWorkFlow@@UEAAPEAXI@Z 00000001400184d0 f i init_auth_sdk_workflow.obj
 0001:00017510       ??_GIAuthServiceEvent@ZOOMSDK@@UEAAPEAXI@Z 0000000140018510 f i init_auth_sdk_workflow.obj
 0001:00017510       ??_EIAuthServiceEvent@ZOOMSDK@@UEAAPEAXI@Z 0000000140018510 f i init_auth_sdk_workflow.obj
 0001:00017550       ?Auth@CAuthSDKWorkFlow@@QEAA?AW4SDKError@ZOOMSDK@@AEAUtagAuthContext@3@@Z 0000000140018550 f   init_auth_sdk_workflow.obj
 0001:000175d0       ?CleanupSDK@CInitSDKWorkFlow@@QEAA?AW4SDKError@ZOOMSDK@@XZ 00000001400185d0 f   init_auth_sdk_workflow.obj
 0001:00017620       ?InitSDK@CInitSDKWorkFlow@@QEAA?AW4SDKError@ZOOMSDK@@AEAUtagInitParam@3@_N@Z 0000000140018620 f   init_auth_sdk_workflow.obj
 0001:00017700       ?onAuthenticationReturn@CAuthSDKWorkFlow@@UEAAXW4AuthResult@ZOOMSDK@@@Z 0000000140018700 f   init_auth_sdk_workflow.obj
 0001:00017740       ?onLoginReturnWithReason@CSDKWithoutLoginStartJoinMeetingFlow@@UEAAXW4LOGINSTATUS@ZOOMSDK@@PEAVIAccountInfo@3@W4LoginFailReason@3@@Z 0000000140018740 f i LOGIN_join_meeting_only_workflow.obj
 0001:00017740       ?onLoginReturnWithReason@CAuthSDKWorkFlow@@UEAAXW4LOGINSTATUS@ZOOMSDK@@PEAVIAccountInfo@3@W4LoginFailReason@3@@Z 0000000140018740 f i init_auth_sdk_workflow.obj
 0001:00017760       ?onProxyDetectComplete@CInitSDKWorkFlow@@UEAAXXZ 0000000140018760 f   init_auth_sdk_workflow.obj
 0001:000177b0       ??0CInvitationUIMgr@@QEAA@XZ 00000001400187b0 f   invitation_ui.obj
 0001:00017860       ??1CInvitationUIMgr@@QEAA@XZ 0000000140018860 f   invitation_ui.obj
 0001:000178f0       ?DoClickCopyInviteInfoBtn@CInvitationUIMgr@@IEAAXXZ 00000001400188f0 f   invitation_ui.obj
 0001:00017a40       ?DoClickCopyLinkBtn@CInvitationUIMgr@@IEAAXXZ 0000000140018a40 f   invitation_ui.obj
 0001:00017ad0       ?GetSkinRes@CInvitationUIMgr@@UEAAIXZ 0000000140018ad0 f i invitation_ui.obj
 0001:00017ae0       ?HandleMessage@CInvitationUIMgr@@UEAA_JI_K_J@Z 0000000140018ae0 f   invitation_ui.obj
 0001:00017d60       ?InitWindow@CInvitationUIMgr@@IEAAXXZ 0000000140018d60 f   invitation_ui.obj
 0001:00018000       ?Notify@CInvitationUIMgr@@UEAAXAEAUtagTNotifyUI@DuiLib@@@Z 0000000140019000 f   invitation_ui.obj
 0001:00018090       ??0CInvitationWorkflow@@QEAA@XZ 0000000140019090 f   invitation_workflow.obj
 0001:000180d0       ??1CInvitationWorkflow@@UEAA@XZ 00000001400190d0 f   invitation_workflow.obj
 0001:00018100       ??_ECInvitationWorkflow@@UEAAPEAXI@Z 0000000140019100 f i invitation_workflow.obj
 0001:00018100       ??_GCInvitationWorkflow@@UEAAPEAXI@Z 0000000140019100 f i invitation_workflow.obj
 0001:00018140       ?GetInviteEmailTeamplate@CInvitationWorkflow@@QEAAPEB_WXZ 0000000140019140 f   invitation_workflow.obj
 0001:00018180       ?GetInviteEmailTitle@CInvitationWorkflow@@QEAAPEB_WXZ 0000000140019180 f   invitation_workflow.obj
 0001:000181c0       ?GetJoinMeetingUrl@CInvitationWorkflow@@QEAAPEB_WXZ 00000001400191c0 f   invitation_workflow.obj
 0001:00018200       ?Init@CInvitationWorkflow@@QEAAXXZ 0000000140019200 f   invitation_workflow.obj
 0001:00018250       ??0CSDKJoinMeetingForLoginUserFlowUIEvent@@QEAA@XZ 0000000140019250 f i Join_meeting_for_login_user_ui.obj
 0001:00018270       ??0CSDKJoinMeetingForLoginUserUIGroup@@QEAA@XZ 0000000140019270 f   Join_meeting_for_login_user_ui.obj
 0001:00018310       ??0CSDKJoinMeetingForLoginUserUIMgr@@QEAA@XZ 0000000140019310 f   Join_meeting_for_login_user_ui.obj
 0001:000183a0       ??0tagJoinParam@ZOOMSDK@@QEAA@XZ 00000001400193a0 f i Join_meeting_for_login_user_ui.obj
 0001:000183d0       ??1CSDKJoinMeetingForLoginUserUIGroup@@UEAA@XZ 00000001400193d0 f   Join_meeting_for_login_user_ui.obj
 0001:00018460       ??1CSDKJoinMeetingForLoginUserUIMgr@@UEAA@XZ 0000000140019460 f   Join_meeting_for_login_user_ui.obj
 0001:000184d0       ??_GCSDKJoinMeetingForLoginUserUIGroup@@UEAAPEAXI@Z 00000001400194d0 f i Join_meeting_for_login_user_ui.obj
 0001:000184d0       ??_ECSDKJoinMeetingForLoginUserUIGroup@@UEAAPEAXI@Z 00000001400194d0 f i Join_meeting_for_login_user_ui.obj
 0001:00018510       ??_ECSDKJoinMeetingForLoginUserUIMgr@@UEAAPEAXI@Z 0000000140019510 f i Join_meeting_for_login_user_ui.obj
 0001:00018510       ??_GCSDKJoinMeetingForLoginUserUIMgr@@UEAAPEAXI@Z 0000000140019510 f i Join_meeting_for_login_user_ui.obj
 0001:00018550       ?DoJoinMeetingBtnClick@CSDKJoinMeetingForLoginUserUIGroup@@QEAAXXZ 0000000140019550 f   Join_meeting_for_login_user_ui.obj
 0001:000188f0       ?GetAppEvent@CSDKJoinMeetingForLoginUserUIMgr@@QEAAPEAVCSDKDemoAppEvent@@XZ 00000001400198f0 f   Join_meeting_for_login_user_ui.obj
 0001:00018910       ?GetSkinRes@CSDKJoinMeetingForLoginUserUIMgr@@UEAAIXZ 0000000140019910 f i Join_meeting_for_login_user_ui.obj
 0001:00018920       ?HandleMessage@CSDKJoinMeetingForLoginUserUIMgr@@UEAA_JI_K_J@Z 0000000140019920 f   Join_meeting_for_login_user_ui.obj
 0001:00018b80       ?InitWindow@CSDKJoinMeetingForLoginUserUIGroup@@QEAAXAEAVCPaintManagerUI@DuiLib@@PEAVCSDKJoinMeetingForLoginUserUIMgr@@@Z 0000000140019b80 f   Join_meeting_for_login_user_ui.obj
 0001:00018c40       ?InitWindow@CSDKJoinMeetingForLoginUserUIMgr@@UEAAXXZ 0000000140019c40 f   Join_meeting_for_login_user_ui.obj
 0001:00018e30       ?IsSelectCustomizedUIMode@SDKInterfaceWrap@@QEAA_NXZ 0000000140019e30 f i Join_meeting_for_login_user_ui.obj
 0001:00018e50       ?Notify@CSDKJoinMeetingForLoginUserUIGroup@@QEAAXAEAUtagTNotifyUI@DuiLib@@@Z 0000000140019e50 f   Join_meeting_for_login_user_ui.obj
 0001:00018ea0       ?Notify@CSDKJoinMeetingForLoginUserUIMgr@@UEAAXAEAUtagTNotifyUI@DuiLib@@@Z 0000000140019ea0 f   Join_meeting_for_login_user_ui.obj
 0001:00018ed0       ?OnDestroy@CSDKJoinMeetingForLoginUserUIMgr@@QEAA_JI_K_JAEAH@Z 0000000140019ed0 f   Join_meeting_for_login_user_ui.obj
 0001:00018f10       ?SetEvent@CSDKJoinMeetingForLoginUserUIMgr@@QEAAXPEAVCSDKDemoAppEvent@@@Z 0000000140019f10 f   Join_meeting_for_login_user_ui.obj
 0001:00018f30       ?ShowErrorMessage@CSDKJoinMeetingForLoginUserUIMgr@@QEAAXPEB_W@Z 0000000140019f30 f   Join_meeting_for_login_user_ui.obj
 0001:00018f70       ?UninitWindow@CSDKJoinMeetingForLoginUserUIGroup@@QEAAXXZ 0000000140019f70 f   Join_meeting_for_login_user_ui.obj
 0001:00018fb0       ?onMeetingStatusChanged@CSDKJoinMeetingForLoginUserUIGroup@@UEAAXW4MeetingStatus@ZOOMSDK@@H@Z 0000000140019fb0 f   Join_meeting_for_login_user_ui.obj
 0001:000190b0       ??0CSDKJoinMeetingForLoginUserFlow@@QEAA@XZ 000000014001a0b0 f   Join_meeting_for_login_user_workflow.obj
 0001:00019100       ??1CSDKJoinMeetingForLoginUserFlow@@UEAA@XZ 000000014001a100 f   Join_meeting_for_login_user_workflow.obj
 0001:00019160       ??_ECSDKJoinMeetingForLoginUserFlow@@UEAAPEAXI@Z 000000014001a160 f i Join_meeting_for_login_user_workflow.obj
 0001:00019160       ??_GCSDKJoinMeetingForLoginUserFlow@@UEAAPEAXI@Z 000000014001a160 f i Join_meeting_for_login_user_workflow.obj
 0001:000191a0       ?IsMeetingServiceReady@CSDKRestAPIUserWorkFlow@@QEAA_NXZ 000000014001a1a0 f   LOGIN_restapi_without_login_workflow.obj
 0001:000191a0       ?IsMeetingServiceReady@CSDKJoinMeetingForLoginUserFlow@@QEAA_NXZ 000000014001a1a0 f   Join_meeting_for_login_user_workflow.obj
 0001:00019200       ?JoinMeeting@CSDKJoinMeetingForLoginUserFlow@@QEAA?AW4SDKError@ZOOMSDK@@AEAUtagJoinParam@3@@Z 000000014001a200 f   Join_meeting_for_login_user_workflow.obj
 0001:000192c0       ?onMeetingStatusChanged@CSDKJoinMeetingForLoginUserFlow@@UEAAXW4MeetingStatus@ZOOMSDK@@H@Z 000000014001a2c0 f   Join_meeting_for_login_user_workflow.obj
 0001:000192c0       ?onMeetingStatusChanged@CSDKRestAPIUserWorkFlow@@UEAAXW4MeetingStatus@ZOOMSDK@@H@Z 000000014001a2c0 f   LOGIN_restapi_without_login_workflow.obj
 0001:000192c0       ?onMeetingStatusChanged@CSDKWithoutLoginStartJoinMeetingFlow@@UEAAXW4MeetingStatus@ZOOMSDK@@H@Z 000000014001a2c0 f   LOGIN_join_meeting_only_workflow.obj
 0001:00019310       ??$?0PEA_W$0A@@?$basic_string@_WU?$char_traits@_W@std@@V?$allocator@_W@2@@std@@QEAA@PEA_W0AEBV?$allocator@_W@1@@Z 000000014001a310 f i join_webinar_wnd_ui.obj
 0001:000193d0       ??$_Integral_to_string@_WH@std@@YA?AV?$basic_string@_WU?$char_traits@_W@std@@V?$allocator@_W@2@@0@H@Z 000000014001a3d0 f i join_webinar_wnd_ui.obj
 0001:000194c0       ??$_UIntegral_to_buff@_WI@std@@YAPEA_WPEA_WI@Z 000000014001a4c0 f i join_webinar_wnd_ui.obj
 0001:00019520       ??$end@_W$0BF@@std@@YAPEA_WAEAY0BF@_W@Z 000000014001a520 f i join_webinar_wnd_ui.obj
 0001:00019530       ??0CJoinWebinarWndUI@@QEAA@XZ 000000014001a530 f   join_webinar_wnd_ui.obj
 0001:000195e0       ??0IDialogBuilderCallback@DuiLib@@QEAA@XZ 000000014001a5e0 f i join_webinar_wnd_ui.obj
 0001:00019600       ??0IMessageFilterUI@DuiLib@@QEAA@XZ 000000014001a600 f i join_webinar_wnd_ui.obj
 0001:00019620       ??1CJoinWebinarWndUI@@UEAA@XZ 000000014001a620 f   join_webinar_wnd_ui.obj
 0001:00019680       ??_GCJoinWebinarWndUI@@UEAAPEAXI@Z 000000014001a680 f i join_webinar_wnd_ui.obj
 0001:00019680       ??_ECJoinWebinarWndUI@@UEAAPEAXI@Z 000000014001a680 f i join_webinar_wnd_ui.obj
 0001:000196c0       ?OnTxParaFormatChange@CTxtWinHost@DuiLib@@UEAAJPEBU_paraformat@@@Z 000000014001a6c0 f i DuiLib64:UIRichEdit.obj
 0001:000196c0       ?TxActivate@CTxtWinHost@DuiLib@@UEAAJPEAJ@Z 000000014001a6c0 f i DuiLib64:UIRichEdit.obj
 0001:000196c0       ?RemoveMenus@CActiveXFrameWnd@DuiLib@@UEAAJPEAUHMENU__@@@Z 000000014001a6c0 f i DuiLib64:UIActiveX.obj
 0001:000196c0       ?AdjustRect@CActiveXCtrl@DuiLib@@UEAAJPEAUtagRECT@@@Z 000000014001a6c0 f i DuiLib64:UIActiveX.obj
 0001:000196c0       ?CreateControl@CJoinWebinarWndUI@@MEAAPEAVCControlUI@DuiLib@@PEB_W@Z 000000014001a6c0 f i join_webinar_wnd_ui.obj
 0001:000196c0       ?GetBorder@CActiveXFrameWnd@DuiLib@@UEAAJPEAUtagRECT@@@Z 000000014001a6c0 f i DuiLib64:UIActiveX.obj
 0001:000196c0       ?SetStatusText@CActiveXFrameWnd@DuiLib@@UEAAJPEB_W@Z 000000014001a6c0 f i DuiLib64:UIActiveX.obj
 0001:000196c0       ?OnTxCharFormatChange@CTxtWinHost@DuiLib@@UEAAJPEBU_charformatw@@@Z 000000014001a6c0 f i DuiLib64:UIRichEdit.obj
 0001:000196c0       ?SetBorderSpace@CActiveXFrameWnd@DuiLib@@UEAAJPEBUtagRECT@@@Z 000000014001a6c0 f i DuiLib64:UIActiveX.obj
 0001:000196d0       ?DoCancelBtnClick@CJoinWebinarWndUI@@AEAAXXZ 000000014001a6d0 f   join_webinar_wnd_ui.obj
 0001:00019780       ?DoCloseBtnClick@CJoinWebinarWndUI@@AEAAXXZ 000000014001a780 f   join_webinar_wnd_ui.obj
 0001:000197b0       ?DoJoinBtnClick@CJoinWebinarWndUI@@AEAAXXZ 000000014001a7b0 f   join_webinar_wnd_ui.obj
 0001:000199e0       ?GetResourceType@CJoinWebinarWndUI@@QEAA?AW4UILIB_RESOURCETYPE@DuiLib@@XZ 000000014001a9e0 f   join_webinar_wnd_ui.obj
 0001:000199f0       ?GetSkinFile@CJoinWebinarWndUI@@MEAA?AVCDuiString@DuiLib@@XZ 000000014001a9f0 f   join_webinar_wnd_ui.obj
 0001:00019a80       ?GetSkinFolder@CJoinWebinarWndUI@@MEAA?AVCDuiString@DuiLib@@XZ 000000014001aa80 f i join_webinar_wnd_ui.obj
 0001:00019ad0       ?GetWindowClassName@CJoinWebinarWndUI@@MEBAPEB_WXZ 000000014001aad0 f i join_webinar_wnd_ui.obj
 0001:00019ae0       ?HandleMessage@CJoinWebinarWndUI@@MEAA_JI_K_J@Z 000000014001aae0 f   join_webinar_wnd_ui.obj
 0001:00019b80       ?InitWindow@CJoinWebinarWndUI@@MEAAXXZ 000000014001ab80 f   join_webinar_wnd_ui.obj
 0001:00019de0       ?MessageHandler@CJoinWebinarWndUI@@MEAA_JI_K_JAEA_N@Z 000000014001ade0 f   join_webinar_wnd_ui.obj
 0001:00019e30       ?Notify@CJoinWebinarWndUI@@MEAAXAEAUtagTNotifyUI@DuiLib@@@Z 000000014001ae30 f   join_webinar_wnd_ui.obj
 0001:0001a000       ?OnCreate@CJoinWebinarWndUI@@AEAA_JXZ 000000014001b000 f   join_webinar_wnd_ui.obj
 0001:0001a3a0       ?SetRegisterHandler@CJoinWebinarWndUI@@QEAAXPEAVIWebinarNeedRegisterHandler@ZOOMSDK@@@Z 000000014001b3a0 f   join_webinar_wnd_ui.obj
 0001:0001a3c0       ?_Construct@?$basic_string@_WU?$char_traits@_W@std@@V?$allocator@_W@2@@std@@QEAAXQEA_W0Urandom_access_iterator_tag@2@@Z 000000014001b3c0 f i join_webinar_wnd_ui.obj
 0001:0001a420       ?to_wstring@std@@YA?AV?$basic_string@_WU?$char_traits@_W@std@@V?$allocator@_W@2@@1@H@Z 000000014001b420 f i join_webinar_wnd_ui.obj
 0001:0001a460       ??0CSDKLoggedInFlowUIEvent@@QEAA@XZ 000000014001b460 f i LoggedIn_sdk_controller_ui.obj
 0001:0001a480       ??0CSDKLoggedInUIMgr@@QEAA@XZ 000000014001b480 f   LoggedIn_sdk_controller_ui.obj
 0001:0001a550       ??0tagStartParam@ZOOMSDK@@QEAA@XZ 000000014001b550 f i LoggedIn_sdk_controller_ui.obj
 0001:0001a580       ??1CSDKLoggedInUIMgr@@UEAA@XZ 000000014001b580 f   LoggedIn_sdk_controller_ui.obj
 0001:0001a600       ??_ECSDKLoggedInUIMgr@@UEAAPEAXI@Z 000000014001b600 f i LoggedIn_sdk_controller_ui.obj
 0001:0001a600       ??_GCSDKLoggedInUIMgr@@UEAAPEAXI@Z 000000014001b600 f i LoggedIn_sdk_controller_ui.obj
 0001:0001a640       ?DisableMeetingButton@CSDKLoggedInUIMgr@@IEAAXXZ 000000014001b640 f   LoggedIn_sdk_controller_ui.obj
 0001:0001a840       ?DoBackToMeetingBtnClick@CSDKLoggedInUIMgr@@IEAAXXZ 000000014001b840 f   LoggedIn_sdk_controller_ui.obj
 0001:0001a890       ?DoConfigureBtnClick@CSDKLoggedInUIMgr@@IEAAXXZ 000000014001b890 f   LoggedIn_sdk_controller_ui.obj
 0001:0001a8d0       ?DoJoinMeetingBtnClick@CSDKLoggedInUIMgr@@IEAAXXZ 000000014001b8d0 f   LoggedIn_sdk_controller_ui.obj
 0001:0001a940       ?DoLogoutBtnClick@CSDKLoggedInUIMgr@@IEAAXXZ 000000014001b940 f   LoggedIn_sdk_controller_ui.obj
 0001:0001a970       ?DoStartDirectShareBtnClick@CSDKLoggedInUIMgr@@IEAAXXZ 000000014001b970 f   LoggedIn_sdk_controller_ui.obj
 0001:0001a9a0       ?DoStartMeetingBtnClick@CSDKLoggedInUIMgr@@IEAAX_N@Z 000000014001b9a0 f   LoggedIn_sdk_controller_ui.obj
 0001:0001ab40       ?GetSkinRes@CSDKLoggedInUIMgr@@UEAAIXZ 000000014001bb40 f i LoggedIn_sdk_controller_ui.obj
 0001:0001ab50       ?HandleMessage@CSDKLoggedInUIMgr@@UEAA_JI_K_J@Z 000000014001bb50 f   LoggedIn_sdk_controller_ui.obj
 0001:0001adb0       ?InitWindow@CSDKLoggedInUIMgr@@UEAAXXZ 000000014001bdb0 f   LoggedIn_sdk_controller_ui.obj
 0001:0001b390       ?LinstenMeetingServiceEvent@CSDKLoggedInUIMgr@@QEAAXXZ 000000014001c390 f   LoggedIn_sdk_controller_ui.obj
 0001:0001b3c0       ?Notify@CSDKLoggedInUIMgr@@UEAAXAEAUtagTNotifyUI@DuiLib@@@Z 000000014001c3c0 f   LoggedIn_sdk_controller_ui.obj
 0001:0001b5e0       ?OnClose@CSDKLoggedInUIMgr@@QEAA_JI_K_JAEAH@Z 000000014001c5e0 f   LoggedIn_sdk_controller_ui.obj
 0001:0001b6e0       ?OnDestroy@CSDKLoggedInUIMgr@@QEAA_JI_K_JAEAH@Z 000000014001c6e0 f   LoggedIn_sdk_controller_ui.obj
 0001:0001b720       ?SetEvent@CSDKLoggedInUIMgr@@QEAAXPEAVCSDKDemoAppEvent@@@Z 000000014001c720 f   LoggedIn_sdk_controller_ui.obj
 0001:0001b740       ?ShowBackToMeetingButton@CSDKLoggedInUIMgr@@IEAAXXZ 000000014001c740 f   LoggedIn_sdk_controller_ui.obj
 0001:0001bca0       ?ShowErrorMessage@CSDKLoggedInUIMgr@@QEAAXPEB_W@Z 000000014001cca0 f   LoggedIn_sdk_controller_ui.obj
 0001:0001bce0       ?ShowUI@CSDKLoggedInUIMgr@@QEAAXW4LoggedIn_MeetingUI_type@@@Z 000000014001cce0 f   LoggedIn_sdk_controller_ui.obj
 0001:0001be80       ?onMeetingStatusChanged@CSDKLoggedInUIMgr@@UEAAXW4MeetingStatus@ZOOMSDK@@H@Z 000000014001ce80 f   LoggedIn_sdk_controller_ui.obj
 0001:0001bfb0       ?updateUI@CSDKLoggedInUIMgr@@IEAAXXZ 000000014001cfb0 f   LoggedIn_sdk_controller_ui.obj
 0001:0001bfe0       ??0CSDKLoggedInUIWorkFlow@@QEAA@XZ 000000014001cfe0 f   LoggedIn_sdk_controller_workflow.obj
 0001:0001c070       ??0IDirectShareServiceHelperEvent@ZOOMSDK@@QEAA@XZ 000000014001d070 f i LoggedIn_sdk_controller_workflow.obj
 0001:0001c090       ??1CSDKLoggedInUIWorkFlow@@UEAA@XZ 000000014001d090 f   LoggedIn_sdk_controller_workflow.obj
 0001:0001c120       ??1IDirectShareServiceHelperEvent@ZOOMSDK@@UEAA@XZ 000000014001d120 f i LoggedIn_sdk_controller_workflow.obj
 0001:0001c138       ??_ECSDKLoggedInUIWorkFlow@@W7EAAPEAXI@Z 000000014001d138 f i LoggedIn_sdk_controller_workflow.obj
 0001:0001c150       ??_GCSDKLoggedInUIWorkFlow@@UEAAPEAXI@Z 000000014001d150 f i LoggedIn_sdk_controller_workflow.obj
 0001:0001c150       ??_ECSDKLoggedInUIWorkFlow@@UEAAPEAXI@Z 000000014001d150 f i LoggedIn_sdk_controller_workflow.obj
 0001:0001c190       ??_GIDirectShareServiceHelperEvent@ZOOMSDK@@UEAAPEAXI@Z 000000014001d190 f i LoggedIn_sdk_controller_workflow.obj
 0001:0001c190       ??_EIDirectShareServiceHelperEvent@ZOOMSDK@@UEAAPEAXI@Z 000000014001d190 f i LoggedIn_sdk_controller_workflow.obj
 0001:0001c1d0       ?BringMeetingToFront@CSDKLoggedInUIWorkFlow@@QEAA?AW4SDKError@ZOOMSDK@@XZ 000000014001d1d0 f   LoggedIn_sdk_controller_workflow.obj
 0001:0001c240       ?DirectShare@CSDKLoggedInUIWorkFlow@@QEAA?AW4SDKError@ZOOMSDK@@XZ 000000014001d240 f   LoggedIn_sdk_controller_workflow.obj
 0001:0001c320       ?EndMeeting@CSDKLoggedInUIWorkFlow@@QEAA?AW4SDKError@ZOOMSDK@@XZ 000000014001d320 f   LoggedIn_sdk_controller_workflow.obj
 0001:0001c390       ?IsMeetingServiceReady@CSDKLoggedInUIWorkFlow@@QEAA_NXZ 000000014001d390 f   LoggedIn_sdk_controller_workflow.obj
 0001:0001c3f0       ?LeaveMeeting@CSDKLoggedInUIWorkFlow@@QEAA?AW4SDKError@ZOOMSDK@@XZ 000000014001d3f0 f   LoggedIn_sdk_controller_workflow.obj
 0001:0001c460       ?OnDirectShareStatusUpdate@CSDKLoggedInUIWorkFlow@@UEAAXW4DirectShareStatusStatus_Enum@ZOOMSDK@@PEAVIDirectShareViaMeetingIDOrPairingCodeHandler@3@@Z 000000014001d460 f   LoggedIn_sdk_controller_workflow.obj
 0001:0001c4b0       ?StartMeeting@CSDKLoggedInUIWorkFlow@@QEAA?AW4SDKError@ZOOMSDK@@AEAUtagStartParam@3@@Z 000000014001d4b0 f   LoggedIn_sdk_controller_workflow.obj
 0001:0001c550       ?onMeetingParameterNotification@CSDKLoggedInUIWorkFlow@@UEAAXPEBUtagMeetingParameter@ZOOMSDK@@@Z 000000014001d550 f   LoggedIn_sdk_controller_workflow.obj
 0001:0001c590       ?onMeetingStatisticsWarningNotification@CSDKLoggedInUIWorkFlow@@UEAAXW4StatisticsWarningType@ZOOMSDK@@@Z 000000014001d590 f   LoggedIn_sdk_controller_workflow.obj
 0001:0001c5d0       ?onMeetingStatusChanged@CSDKLoggedInUIWorkFlow@@UEAAXW4MeetingStatus@ZOOMSDK@@H@Z 000000014001d5d0 f   LoggedIn_sdk_controller_workflow.obj
 0001:0001c5d0       ?OnMicSpkVolumnChanged@CSDKAudioSettingsWorkFlow@@UEAAXII@Z 000000014001d5d0 f   SETTINGS_audio_workflow.obj
 0001:0001c620       ??0CSDKWithoutLoginStartJoinMeetingFlow@@QEAA@XZ 000000014001d620 f   LOGIN_join_meeting_only_workflow.obj
 0001:0001c6a0       ??1CSDKWithoutLoginStartJoinMeetingFlow@@UEAA@XZ 000000014001d6a0 f   LOGIN_join_meeting_only_workflow.obj
 0001:0001c738       ??_ECSDKWithoutLoginStartJoinMeetingFlow@@W7EAAPEAXI@Z 000000014001d738 f i LOGIN_join_meeting_only_workflow.obj
 0001:0001c750       ??_ECSDKWithoutLoginStartJoinMeetingFlow@@UEAAPEAXI@Z 000000014001d750 f i LOGIN_join_meeting_only_workflow.obj
 0001:0001c750       ??_GCSDKWithoutLoginStartJoinMeetingFlow@@UEAAPEAXI@Z 000000014001d750 f i LOGIN_join_meeting_only_workflow.obj
 0001:0001c790       ?Cleanup@CSDKWithoutLoginStartJoinMeetingFlow@@QEAAXXZ 000000014001d790 f   LOGIN_join_meeting_only_workflow.obj
 0001:0001c7f0       ?IsMeetingServiceReady@CSDKWithoutLoginStartJoinMeetingFlow@@QEAA_NXZ 000000014001d7f0 f   LOGIN_join_meeting_only_workflow.obj
 0001:0001c870       ?JoinMeeting@CSDKWithoutLoginStartJoinMeetingFlow@@QEAA?AW4SDKError@ZOOMSDK@@AEAUtagJoinParam@3@@Z 000000014001d870 f   LOGIN_join_meeting_only_workflow.obj
 0001:0001c9a0       ?EnableModeless@CActiveXFrameWnd@DuiLib@@UEAAJH@Z 000000014001d9a0 f i DuiLib64:UIActiveX.obj
 0001:0001c9a0       ?ContextSensitiveHelp@CActiveXFrameWnd@DuiLib@@UEAAJH@Z 000000014001d9a0 f i DuiLib64:UIActiveX.obj
 0001:0001c9a0       ?ContextSensitiveHelp@CActiveXCtrl@DuiLib@@UEAAJH@Z 000000014001d9a0 f i DuiLib64:UIActiveX.obj
 0001:0001c9a0       ?TxDeactivate@CTxtWinHost@DuiLib@@UEAAJJ@Z 000000014001d9a0 f i DuiLib64:UIRichEdit.obj
 0001:0001c9a0       ?LockInPlaceActive@CActiveXCtrl@DuiLib@@UEAAJH@Z 000000014001d9a0 f i DuiLib64:UIActiveX.obj
 0001:0001c9a0       ?onAuthenticationReturn@CSDKWithoutLoginStartJoinMeetingFlow@@UEAAXW4AuthResult@ZOOMSDK@@@Z 000000014001d9a0 f i LOGIN_join_meeting_only_workflow.obj
 0001:0001c9a0       ?onAuthenticationReturn@CSDKLoginCBHandler@@UEAAXW4AuthResult@ZOOMSDK@@@Z 000000014001d9a0 f i LOGIN_sdk_login_UI.obj
 0001:0001c9b0       ??0CSDKLoginWithSSOFlow@@QEAA@XZ 000000014001d9b0 f   LOGIN_login_with_sso_workflow.obj
 0001:0001c9e0       ??1CSDKLoginWithSSOFlow@@UEAA@XZ 000000014001d9e0 f   LOGIN_login_with_sso_workflow.obj
 0001:0001ca10       ??_ECSDKLoginWithSSOFlow@@UEAAPEAXI@Z 000000014001da10 f i LOGIN_login_with_sso_workflow.obj
 0001:0001ca10       ??_GCSDKLoginWithSSOFlow@@UEAAPEAXI@Z 000000014001da10 f i LOGIN_login_with_sso_workflow.obj
 0001:0001ca50       ?GetSSOUrl@CSDKLoginWithSSOFlow@@QEAAPEB_WV?$basic_string@_WU?$char_traits@_W@std@@V?$allocator@_W@2@@std@@@Z 000000014001da50 f   LOGIN_login_with_sso_workflow.obj
 0001:0001cb00       ?Login@CSDKLoginWithSSOFlow@@QEAA?AW4SDKError@ZOOMSDK@@PEB_W@Z 000000014001db00 f   LOGIN_login_with_sso_workflow.obj
 0001:0001cb80       ??0CSDKRestAPIUserWorkFlow@@QEAA@XZ 000000014001db80 f   LOGIN_restapi_without_login_workflow.obj
 0001:0001cbd0       ??1CSDKRestAPIUserWorkFlow@@UEAA@XZ 000000014001dbd0 f   LOGIN_restapi_without_login_workflow.obj
 0001:0001cc10       ??_GCSDKRestAPIUserWorkFlow@@UEAAPEAXI@Z 000000014001dc10 f i LOGIN_restapi_without_login_workflow.obj
 0001:0001cc10       ??_ECSDKRestAPIUserWorkFlow@@UEAAPEAXI@Z 000000014001dc10 f i LOGIN_restapi_without_login_workflow.obj
 0001:0001cc50       ?Cleanup@CSDKRestAPIUserWorkFlow@@QEAAXXZ 000000014001dc50 f   LOGIN_restapi_without_login_workflow.obj
 0001:0001cc80       ?RestAPIJoinMeeting@CSDKRestAPIUserWorkFlow@@QEAA?AW4SDKError@ZOOMSDK@@AEAUtagJoinParam@3@@Z 000000014001dc80 f   LOGIN_restapi_without_login_workflow.obj
 0001:0001cd60       ?RestAPIStartMeeting@CSDKRestAPIUserWorkFlow@@QEAA?AW4SDKError@ZOOMSDK@@AEAUtagStartParam@3@@Z 000000014001dd60 f   LOGIN_restapi_without_login_workflow.obj
 0001:0001ce40       ?onMeetingParameterNotification@CSDKRestAPIUserWorkFlow@@UEAAXPEBUtagMeetingParameter@ZOOMSDK@@@Z 000000014001de40 f   LOGIN_restapi_without_login_workflow.obj
 0001:0001ce80       ?onMeetingStatisticsWarningNotification@CSDKRestAPIUserWorkFlow@@UEAAXW4StatisticsWarningType@ZOOMSDK@@@Z 000000014001de80 f   LOGIN_restapi_without_login_workflow.obj
 0001:0001cec0       ??0?$basic_string@_WU?$char_traits@_W@std@@V?$allocator@_W@2@@std@@QEAA@AEBV01@@Z 000000014001dec0 f i LOGIN_sdk_login_UI.obj
 0001:0001cf40       ??0CSDKJoinMeetingOnlyFlowUIEvent@@QEAA@XZ 000000014001df40 f i LOGIN_sdk_login_UI.obj
 0001:0001cf60       ??0CSDKLoginCBHandler@@QEAA@XZ 000000014001df60 f   LOGIN_sdk_login_UI.obj
 0001:0001cfa0       ??0CSDKLoginUIMgr@@QEAA@XZ 000000014001dfa0 f   LOGIN_sdk_login_UI.obj
 0001:0001d110       ??0CSDKLoginWithSSOUIGroup@@QEAA@XZ 000000014001e110 f   LOGIN_sdk_login_UI.obj
 0001:0001d180       ??0CSDKRestAPIUserUIEvent@@QEAA@XZ 000000014001e180 f i LOGIN_sdk_login_UI.obj
 0001:0001d1a0       ??0CSDKRestAPIUserUIGroup@@QEAA@XZ 000000014001e1a0 f   LOGIN_sdk_login_UI.obj
 0001:0001d240       ??0CSDKWithoutLoginStartJoinMeetingUIGroup@@QEAA@XZ 000000014001e240 f   LOGIN_sdk_login_UI.obj
 0001:0001d2e0       ??1CSDKLoginCBHandler@@UEAA@XZ 000000014001e2e0 f   LOGIN_sdk_login_UI.obj
 0001:0001d330       ??1CSDKLoginUIMgr@@UEAA@XZ 000000014001e330 f   LOGIN_sdk_login_UI.obj
 0001:0001d490       ??1CSDKLoginWithSSOUIGroup@@UEAA@XZ 000000014001e490 f   LOGIN_sdk_login_UI.obj
 0001:0001d500       ??1CSDKRestAPIUserUIGroup@@UEAA@XZ 000000014001e500 f   LOGIN_sdk_login_UI.obj
 0001:0001d590       ??1CSDKWithoutLoginStartJoinMeetingUIGroup@@UEAA@XZ 000000014001e590 f   LOGIN_sdk_login_UI.obj
 0001:0001d620       ??_GCSDKLoginCBHandler@@UEAAPEAXI@Z 000000014001e620 f i LOGIN_sdk_login_UI.obj
 0001:0001d620       ??_ECSDKLoginCBHandler@@UEAAPEAXI@Z 000000014001e620 f i LOGIN_sdk_login_UI.obj
 0001:0001d660       ??_ECSDKLoginUIMgr@@UEAAPEAXI@Z 000000014001e660 f i LOGIN_sdk_login_UI.obj
 0001:0001d660       ??_GCSDKLoginUIMgr@@UEAAPEAXI@Z 000000014001e660 f i LOGIN_sdk_login_UI.obj
 0001:0001d6a0       ??_ECSDKLoginWithSSOUIGroup@@UEAAPEAXI@Z 000000014001e6a0 f i LOGIN_sdk_login_UI.obj
 0001:0001d6a0       ??_GCSDKLoginWithSSOUIGroup@@UEAAPEAXI@Z 000000014001e6a0 f i LOGIN_sdk_login_UI.obj
 0001:0001d6e0       ??_GCSDKRestAPIUserUIGroup@@UEAAPEAXI@Z 000000014001e6e0 f i LOGIN_sdk_login_UI.obj
 0001:0001d6e0       ??_ECSDKRestAPIUserUIGroup@@UEAAPEAXI@Z 000000014001e6e0 f i LOGIN_sdk_login_UI.obj
 0001:0001d720       ??_GCSDKWithoutLoginStartJoinMeetingUIGroup@@UEAAPEAXI@Z 000000014001e720 f i LOGIN_sdk_login_UI.obj
 0001:0001d720       ??_ECSDKWithoutLoginStartJoinMeetingUIGroup@@UEAAPEAXI@Z 000000014001e720 f i LOGIN_sdk_login_UI.obj
 0001:0001d760       ?ChangeUIforJoinFailed@CSDKLoginUIMgr@@QEAAXXZ 000000014001e760 f   LOGIN_sdk_login_UI.obj
 0001:0001d7c0       ?ChangeUIforLoginFailed@CSDKLoginUIMgr@@QEAAXXZ 000000014001e7c0 f   LOGIN_sdk_login_UI.obj
 0001:0001d830       ?CleanUp@CSDKLoginUIMgr@@QEAAXXZ 000000014001e830 f   LOGIN_sdk_login_UI.obj
 0001:0001d870       ?Cleanup@CSDKRestAPIUserUIGroup@@QEAAXXZ 000000014001e870 f   LOGIN_sdk_login_UI.obj
 0001:0001d890       ?Cleanup@CSDKWithoutLoginStartJoinMeetingUIGroup@@QEAAXXZ 000000014001e890 f   LOGIN_sdk_login_UI.obj
 0001:0001d8b0       ?DoLoginWithSSOBtnClick@CSDKLoginWithSSOUIGroup@@QEAAXXZ 000000014001e8b0 f   LOGIN_sdk_login_UI.obj
 0001:0001d9f0       ?DoWithoutLoginJoinMeetingBtnClick@CSDKRestAPIUserUIGroup@@QEAAXXZ 000000014001e9f0 f   LOGIN_sdk_login_UI.obj
 0001:0001dcd0       ?DoWithoutLoginStartJoinMeetingBtnClick@CSDKWithoutLoginStartJoinMeetingUIGroup@@QEAAXXZ 000000014001ecd0 f   LOGIN_sdk_login_UI.obj
 0001:0001e0f0       ?DoWithoutLoginStartMeetingBtnClick@CSDKRestAPIUserUIGroup@@QEAAXXZ 000000014001f0f0 f   LOGIN_sdk_login_UI.obj
 0001:0001e3f0       ?GetAppEvent@CSDKLoginUIMgr@@QEAAPEAVCSDKDemoAppEvent@@XZ 000000014001f3f0 f   LOGIN_sdk_login_UI.obj
 0001:0001e410       ?GetSkinRes@CSDKLoginUIMgr@@UEAAIXZ 000000014001f410 f i LOGIN_sdk_login_UI.obj
 0001:0001e420       ?HandleMessage@CSDKLoginUIMgr@@UEAA_JI_K_J@Z 000000014001f420 f   LOGIN_sdk_login_UI.obj
 0001:0001e680       ?Hide@CAuthSDKUIGroup@@QEAAXXZ 000000014001f680 f   sdk_init_auth_ui.obj
 0001:0001e680       ?Hide@CSDKWithoutLoginStartJoinMeetingUIGroup@@QEAAXXZ 000000014001f680 f   LOGIN_sdk_login_UI.obj
 0001:0001e680       ?Hide@CInitSDKUIGroup@@QEAAXXZ 000000014001f680 f   sdk_init_auth_ui.obj
 0001:0001e680       ?Hide@CSDKLoginWithSSOUIGroup@@QEAAXXZ 000000014001f680 f   LOGIN_sdk_login_UI.obj
 0001:0001e680       ?Hide@CSDKGeneralSettingsUIGroup@@QEAAXXZ 000000014001f680 f   settings_ui.obj
 0001:0001e680       ?Hide@CSDKRestAPIUserUIGroup@@QEAAXXZ 000000014001f680 f   LOGIN_sdk_login_UI.obj
 0001:0001e680       ?Hide@CSDKRecordingSettingsUIGroup@@QEAAXXZ 000000014001f680 f   settings_ui.obj
 0001:0001e680       ?Hide@CSDKShareSettingsUIGroup@@QEAAXXZ 000000014001f680 f   settings_ui.obj
 0001:0001e6c0       ?InitWindow@CSDKLoginUIMgr@@UEAAXXZ 000000014001f6c0 f   LOGIN_sdk_login_UI.obj
 0001:0001eb10       ?InitWindow@CSDKLoginWithSSOUIGroup@@QEAAXAEAVCPaintManagerUI@DuiLib@@PEAVCSDKLoginUIMgr@@@Z 000000014001fb10 f   LOGIN_sdk_login_UI.obj
 0001:0001ebc0       ?InitWindow@CSDKRestAPIUserUIGroup@@QEAAXAEAVCPaintManagerUI@DuiLib@@PEAVCSDKLoginUIMgr@@@Z 000000014001fbc0 f   LOGIN_sdk_login_UI.obj
 0001:0001eca0       ?InitWindow@CSDKWithoutLoginStartJoinMeetingUIGroup@@QEAAXAEAVCPaintManagerUI@DuiLib@@PEAVCSDKLoginUIMgr@@@Z 000000014001fca0 f   LOGIN_sdk_login_UI.obj
 0001:0001ed60       ?OnTxViewChanged@CRichEditUI@DuiLib@@UEAA_NXZ 000000014001fd60 f   DuiLib64:UIRichEdit.obj
 0001:0001ed60       ?LogOut@CSDKLoginUIMgr@@QEAA_NXZ 000000014001fd60 f   LOGIN_sdk_login_UI.obj
 0001:0001ed70       ?Notify@CSDKLoginUIMgr@@UEAAXAEAUtagTNotifyUI@DuiLib@@@Z 000000014001fd70 f   LOGIN_sdk_login_UI.obj
 0001:0001ef30       ?Notify@CSDKLoginWithSSOUIGroup@@QEAAXAEAUtagTNotifyUI@DuiLib@@@Z 000000014001ff30 f   LOGIN_sdk_login_UI.obj
 0001:0001f100       ?Notify@CSDKRestAPIUserUIGroup@@QEAAXAEAUtagTNotifyUI@DuiLib@@@Z 0000000140020100 f   LOGIN_sdk_login_UI.obj
 0001:0001f1a0       ?Notify@CSDKWithoutLoginStartJoinMeetingUIGroup@@QEAAXAEAUtagTNotifyUI@DuiLib@@@Z 00000001400201a0 f   LOGIN_sdk_login_UI.obj
 0001:0001f220       ?NotifyAuthDone@CSDKLoginUIMgr@@QEAAXXZ 0000000140020220 f   LOGIN_sdk_login_UI.obj
 0001:0001f270       ?OnClose@CSDKLoginUIMgr@@QEAA_JI_K_JAEAH@Z 0000000140020270 f   LOGIN_sdk_login_UI.obj
 0001:0001f2c0       ?OnDestroy@CSDKLoginUIMgr@@QEAA_JI_K_JAEAH@Z 00000001400202c0 f   LOGIN_sdk_login_UI.obj
 0001:0001f330       ?SetCurrentPage@CSDKLoginUIMgr@@QEAAXPEAVCVerticalLayoutUI@DuiLib@@@Z 0000000140020330 f i LOGIN_sdk_login_UI.obj
 0001:0001f350       ?SetEvent@CSDKLoginUIMgr@@QEAAXPEAVCSDKDemoAppEvent@@@Z 0000000140020350 f   LOGIN_sdk_login_UI.obj
 0001:0001f370       ?SetUIEvent@CSDKLoginCBHandler@@QEAAXPEAVCSDKLoginUIMgr@@@Z 0000000140020370 f   LOGIN_sdk_login_UI.obj
 0001:0001f3d0       ?Show@CSDKLoginWithSSOUIGroup@@QEAAXXZ 00000001400203d0 f   LOGIN_sdk_login_UI.obj
 0001:0001f430       ?Show@CSDKRestAPIUserUIGroup@@QEAAXXZ 0000000140020430 f   LOGIN_sdk_login_UI.obj
 0001:0001f490       ?Show@CSDKWithoutLoginStartJoinMeetingUIGroup@@QEAAXXZ 0000000140020490 f   LOGIN_sdk_login_UI.obj
 0001:0001f4f0       ?ShowErrorMessage@CSDKLoginUIMgr@@QEAAXPEB_W@Z 00000001400204f0 f   LOGIN_sdk_login_UI.obj
 0001:0001f530       ?SwitchToPage@CSDKLoginUIMgr@@QEAAXW4SwitchToLoginUIType@@@Z 0000000140020530 f   LOGIN_sdk_login_UI.obj
 0001:0001f560       ?SwitchToPage@CSDKLoginUIMgr@@QEAAXW4loginTabPage@@@Z 0000000140020560 f   LOGIN_sdk_login_UI.obj
 0001:0001f610       ?SwitchToWaitingPage@CSDKLoginUIMgr@@QEAAXPEB_W_N@Z 0000000140020610 f   LOGIN_sdk_login_UI.obj
 0001:0001f740       ?UninitWindow@CSDKLoginWithSSOUIGroup@@QEAAXXZ 0000000140020740 f   LOGIN_sdk_login_UI.obj
 0001:0001f760       ?UninitWindow@CSDKRestAPIUserUIGroup@@QEAAXXZ 0000000140020760 f   LOGIN_sdk_login_UI.obj
 0001:0001f790       ?UninitWindow@CSDKWithoutLoginStartJoinMeetingUIGroup@@QEAAXXZ 0000000140020790 f   LOGIN_sdk_login_UI.obj
 0001:0001f7d0       ?_Construct_lv_contents@?$basic_string@_WU?$char_traits@_W@std@@V?$allocator@_W@2@@std@@AEAAXAEBV12@@Z 00000001400207d0 f i LOGIN_sdk_login_UI.obj
 0001:0001f940       ?empty@?$basic_string@_WU?$char_traits@_W@std@@V?$allocator@_W@2@@std@@QEBA_NXZ 0000000140020940 f i LOGIN_sdk_login_UI.obj
 0001:0001f980       ?onLoginReturnWithReason@CSDKLoginCBHandler@@UEAAXW4LOGINSTATUS@ZOOMSDK@@PEAVIAccountInfo@3@W4LoginFailReason@3@@Z 0000000140020980 f   LOGIN_sdk_login_UI.obj
 0001:0001fad0       ?onMeetingStatusChanged@CSDKRestAPIUserUIGroup@@UEAAXW4MeetingStatus@ZOOMSDK@@H@Z 0000000140020ad0 f   LOGIN_sdk_login_UI.obj
 0001:0001fc10       ?onMeetingStatusChanged@CSDKWithoutLoginStartJoinMeetingUIGroup@@UEAAXW4MeetingStatus@ZOOMSDK@@H@Z 0000000140020c10 f   LOGIN_sdk_login_UI.obj
 0001:0001fde0       ?select_on_container_copy_construction@?$_Default_allocator_traits@V?$allocator@_W@std@@@std@@SA?AV?$allocator@_W@2@AEBV32@@Z 0000000140020de0 f i LOGIN_sdk_login_UI.obj
 0001:0001fde0       ??0?$tuple@$$V@std@@QEAA@AEBV01@@Z 0000000140020de0 f i user_manager.obj
 0001:0001fdf0       ??0CSDKMessInfo@@AEAA@XZ   0000000140020df0 f   mess_info.obj
 0001:0001fe40       ??1CSDKMessInfo@@AEAA@XZ   0000000140020e40 f   mess_info.obj
 0001:0001fe90       ?Cleanup@CSDKMessInfo@@QEAAXXZ 0000000140020e90 f   mess_info.obj
 0001:0001fee0       ?GetErrorCode@CSDKMessInfo@@QEAAHXZ 0000000140020ee0 f   mess_info.obj
 0001:0001ff30       ?GetErrorDescription@CSDKMessInfo@@QEAAPEB_WXZ 0000000140020f30 f   mess_info.obj
 0001:0001ff80       ?GetErrorMessInfo@CSDKMessInfo@@QEAAPEA_WXZ 0000000140020f80 f   mess_info.obj
 0001:00020040       ?GetErrorType@CSDKMessInfo@@QEAAPEB_WXZ 0000000140021040 f   mess_info.obj
 0001:00020120       ?GetInst@CSDKMessInfo@@SAAEAV1@XZ 0000000140021120 f   mess_info.obj
 0001:00020190       ?Init@CSDKMessInfo@@QEAA_NXZ 0000000140021190 f   mess_info.obj
 0001:000201e0       ??0CMoreFeaturesUIMgr@@QEAA@HHPEAVCCustomizeInMeetingUIMgr@@@Z 00000001400211e0 f   more_features_ui.obj
 0001:00020310       ??1CMoreFeaturesUIMgr@@UEAA@XZ 0000000140021310 f   more_features_ui.obj
 0001:000203f0       ??_ECMoreFeaturesUIMgr@@WCI@EAAPEAXI@Z 00000001400213f0 f i more_features_ui.obj
 0001:00020400       ??_ECMoreFeaturesUIMgr@@UEAAPEAXI@Z 0000000140021400 f i more_features_ui.obj
 0001:00020400       ??_GCMoreFeaturesUIMgr@@UEAAPEAXI@Z 0000000140021400 f i more_features_ui.obj
 0001:00020440       ?AddElement@CMoreFeaturesUIMgr@@QEAA_NPEB_W@Z 0000000140021440 f   more_features_ui.obj
 0001:00020590       ?DestroyUtilWindow@CMoreFeaturesUIMgr@@AEAAXXZ 0000000140021590 f   more_features_ui.obj
 0001:00020600       ?DoClickHideAANPanelBtn@CMoreFeaturesUIMgr@@AEAAXXZ 0000000140021600 f   more_features_ui.obj
 0001:00020650       ?DoClickLowerAllHandsBtn@CMoreFeaturesUIMgr@@AEAAXXZ 0000000140021650 f   more_features_ui.obj
 0001:000206a0       ?DoClickMuteAllBtn@CMoreFeaturesUIMgr@@AEAAXXZ 00000001400216a0 f   more_features_ui.obj
 0001:00020710       ?DoClickMuteOnEntry@CMoreFeaturesUIMgr@@AEAAX_N@Z 0000000140021710 f   more_features_ui.obj
 0001:00020760       ?DoClickRaiseHandBtn@CMoreFeaturesUIMgr@@AEAAXXZ 0000000140021760 f   more_features_ui.obj
 0001:000207b0       ?DoClickShowAANPanelBtn@CMoreFeaturesUIMgr@@AEAAXXZ 00000001400217b0 f   more_features_ui.obj
 0001:00020810       ?DoClickUnmuteAllBtn@CMoreFeaturesUIMgr@@AEAAXXZ 0000000140021810 f   more_features_ui.obj
 0001:00020880       ?DoUtilWindowShow@CMoreFeaturesUIMgr@@AEAAXPEB_WW4FEATURE_TYPE@@@Z 0000000140021880 f   more_features_ui.obj
 0001:00020a10       ?GetSkinRes@CMoreFeaturesUIMgr@@UEAAIXZ 0000000140021a10 f i more_features_ui.obj
 0001:00020a10       ?GetSkinRes@CMoreMenuUIMgr@@UEAAIXZ 0000000140021a10 f i more_menu_ui.obj
 0001:00020a20       ?HandleMessage@CMoreFeaturesUIMgr@@UEAA_JI_K_J@Z 0000000140021a20 f   more_features_ui.obj
 0001:00020c50       ?InitWindow@CMoreFeaturesUIMgr@@UEAAXXZ 0000000140021c50 f   more_features_ui.obj
 0001:00020cb0       ?Notify@CMoreFeaturesUIMgr@@UEAAXAEAUtagTNotifyUI@DuiLib@@@Z 0000000140021cb0 f   more_features_ui.obj
 0001:000211a0       ?RepaintClient@CMoreFeaturesUIMgr@@QEAA_NHH@Z 00000001400221a0 f   more_features_ui.obj
 0001:000212d0       ?ShowErrorMsg@CMoreFeaturesUIMgr@@AEAAXPEB_W@Z 00000001400222d0 f   more_features_ui.obj
 0001:00021300       ?UpdateUI@CMoreFeaturesUIMgr@@AEAAXXZ 0000000140022300 f   more_features_ui.obj
 0001:000214b0       ?onCoHostChangeNotification@CMoreFeaturesUIMgr@@UEAAXI_N@Z 00000001400224b0 f   more_features_ui.obj
 0001:000215d0       ?onHostChangeNotification@CMoreFeaturesUIMgr@@UEAAXI@Z 00000001400225d0 f   more_features_ui.obj
 0001:000216f0       ?onLowOrRaiseHandStatusChanged@CMoreFeaturesUIMgr@@UEAAX_NI@Z 00000001400226f0 f   more_features_ui.obj
 0001:00021730       ?onUserNameChanged@CMoreFeaturesUIMgr@@UEAAXIPEB_W@Z 0000000140022730 f   more_features_ui.obj
 0001:00021770       ?onUserNamesChanged@CMoreFeaturesUIMgr@@UEAAXPEAV?$IList@I@ZOOMSDK@@@Z 0000000140022770 f   more_features_ui.obj
 0001:000217b0       ?AssignCoHost@CMoreFeaturesWorkflow@@QEAA?AW4SDKError@ZOOMSDK@@I@Z 00000001400227b0 f   more_features_workflow.obj
 0001:00021830       ?ChangeUserName@CMoreFeaturesWorkflow@@QEAA?AW4SDKError@ZOOMSDK@@IPEB_W_N@Z 0000000140022830 f   more_features_workflow.obj
 0001:00021880       ?EnableMuteOnEntry@CMoreFeaturesWorkflow@@QEAA?AW4SDKError@ZOOMSDK@@_N@Z 0000000140022880 f   more_features_workflow.obj
 0001:000218e0       ?ExpelUser@CMoreFeaturesWorkflow@@QEAA?AW4SDKError@ZOOMSDK@@I@Z 00000001400228e0 f   more_features_workflow.obj
 0001:00021920       ?HideAANPanel@CMoreFeaturesWorkflow@@QEAA?AW4SDKError@ZOOMSDK@@XZ 0000000140022920 f   more_features_workflow.obj
 0001:00021970       ?LowerAllHands@CMoreFeaturesWorkflow@@QEAA?AW4SDKError@ZOOMSDK@@XZ 0000000140022970 f   more_features_workflow.obj
 0001:000219b0       ?LowerHand@CMoreFeaturesWorkflow@@QEAA?AW4SDKError@ZOOMSDK@@I@Z 00000001400229b0 f   more_features_workflow.obj
 0001:000219f0       ?MakeHost@CMoreFeaturesWorkflow@@QEAA?AW4SDKError@ZOOMSDK@@I@Z 00000001400229f0 f   more_features_workflow.obj
 0001:00021a30       ?MuteAll@CMoreFeaturesWorkflow@@QEAA_NPEAVCSDKUserList@@@Z 0000000140022a30 f   more_features_workflow.obj
 0001:00021aa0       ?MuteAudio@CMoreFeaturesWorkflow@@QEAA?AW4SDKError@ZOOMSDK@@I_N@Z 0000000140022aa0 f   more_features_workflow.obj
 0001:00021b00       ?RaiseHand@CMoreFeaturesWorkflow@@QEAA?AW4SDKError@ZOOMSDK@@XZ 0000000140022b00 f   more_features_workflow.obj
 0001:00021b30       ?ReclaimHost@CMoreFeaturesWorkflow@@QEAA?AW4SDKError@ZOOMSDK@@XZ 0000000140022b30 f   more_features_workflow.obj
 0001:00021bb0       ?RevokeCoHost@CMoreFeaturesWorkflow@@QEAA?AW4SDKError@ZOOMSDK@@I@Z 0000000140022bb0 f   more_features_workflow.obj
 0001:00021bf0       ?ShowAANPanel@CMoreFeaturesWorkflow@@QEAA?AW4SDKError@ZOOMSDK@@II@Z 0000000140022bf0 f   more_features_workflow.obj
 0001:00021c50       ?StartAttendeeVideo@CMoreFeaturesWorkflow@@QEAA?AW4SDKError@ZOOMSDK@@I@Z 0000000140022c50 f   more_features_workflow.obj
 0001:00021cd0       ?StopAttendeeVideo@CMoreFeaturesWorkflow@@QEAA?AW4SDKError@ZOOMSDK@@I@Z 0000000140022cd0 f   more_features_workflow.obj
 0001:00021d50       ?UnMuteAll@CMoreFeaturesWorkflow@@QEAA_NPEAVCSDKUserList@@@Z 0000000140022d50 f   more_features_workflow.obj
 0001:00021dc0       ?UnMuteAudio@CMoreFeaturesWorkflow@@QEAA?AW4SDKError@ZOOMSDK@@I@Z 0000000140022dc0 f   more_features_workflow.obj
 0001:00021e10       ??0CMoreMenuUIMgr@@QEAA@HHPEAVCCustomizeInMeetingUIMgr@@@Z 0000000140022e10 f   more_menu_ui.obj
 0001:00021f30       ??1CMoreMenuUIMgr@@QEAA@XZ 0000000140022f30 f   more_menu_ui.obj
 0001:00021fd0       ??_GCInvitationUIMgr@@QEAAPEAXI@Z 0000000140022fd0 f i more_menu_ui.obj
 0001:00022010       ?AddElement@CMoreMenuUIMgr@@QEAA_NPEB_W@Z 0000000140023010 f   more_menu_ui.obj
 0001:00022160       ?DestroyClosedCaptionWnd@CMoreMenuUIMgr@@AEAAXXZ 0000000140023160 f   more_menu_ui.obj
 0001:00022210       ?DestroyInvitationWnd@CMoreMenuUIMgr@@AEAAXXZ 0000000140023210 f   more_menu_ui.obj
 0001:000222c0       ?DestroyMoreFeaturesWnd@CMoreMenuUIMgr@@AEAAXXZ 00000001400232c0 f   more_menu_ui.obj
 0001:00022380       ?DoClickClosedCaptionBtn@CMoreMenuUIMgr@@AEAAXXZ 0000000140023380 f   more_menu_ui.obj
 0001:000225d0       ?DoClickInviteBtn@CMoreMenuUIMgr@@AEAAXXZ 00000001400235d0 f   more_menu_ui.obj
 0001:000226f0       ?DoClickMoreFeaturesBtn@CMoreMenuUIMgr@@AEAAXXZ 00000001400236f0 f   more_menu_ui.obj
 0001:00022910       ?HandleMessage@CMoreMenuUIMgr@@UEAA_JI_K_J@Z 0000000140023910 f   more_menu_ui.obj
 0001:00022b80       ?HandleMoveAndResize@CMoreMenuUIMgr@@QEAAXXZ 0000000140023b80 f   more_menu_ui.obj
 0001:00022bc0       ?HandleUserChange@CMoreMenuUIMgr@@QEAAXXZ 0000000140023bc0 f   more_menu_ui.obj
 0001:00022bf0       ?InitWindow@CMoreMenuUIMgr@@UEAAXXZ 0000000140023bf0 f   more_menu_ui.obj
 0001:00022e40       ?Notify@CMoreMenuUIMgr@@UEAAXAEAUtagTNotifyUI@DuiLib@@@Z 0000000140023e40 f   more_menu_ui.obj
 0001:000232b0       ?RepaintClient@CMoreMenuUIMgr@@QEAA_NHH@Z 00000001400242b0 f   more_menu_ui.obj
 0001:00023420       ??0ParticipantPopMenu@@QEAA@XZ 0000000140024420 f   ParticipantPopMenu.obj
 0001:00023480       ??1ParticipantPopMenu@@QEAA@XZ 0000000140024480 f   ParticipantPopMenu.obj
 0001:000234c0       ?OnClickMenuItem@ParticipantPopMenu@@QEAAXH@Z 00000001400244c0 f   ParticipantPopMenu.obj
 0001:00023560       ?PopMenu@ParticipantPopMenu@@QEAAXPEAUHWND__@@AEBUtagPOINT@@@Z 0000000140024560 f   ParticipantPopMenu.obj
 0001:000235a0       ?PopMenu@ParticipantPopMenu@@QEAAXPEAUHWND__@@HH@Z 00000001400245a0 f   ParticipantPopMenu.obj
 0001:00023610       ?SetUserID@ParticipantPopMenu@@QEAAXI@Z 0000000140024610 f   ParticipantPopMenu.obj
 0001:000236a0       ??$?0$$V@?$_Compressed_pair@V?$allocator@U?$_Tree_node@PEAVIMeetingVideoCtrlEvent@ZOOMSDK@@PEAX@std@@@std@@V?$_Tree_val@U?$_Tree_simple_types@PEAVIMeetingVideoCtrlEvent@ZOOMSDK@@@std@@@2@$00@std@@QEAA@U_Zero_then_variadic_args_t@1@@Z 00000001400246a0 f i sdk_util.obj
 0001:000236a0       ??$?0$$V@?$_Compressed_pair@V?$allocator@U?$_Tree_node@PEAVISDKInMeetingServiceMgrEvent@@PEAX@std@@@std@@V?$_Tree_val@U?$_Tree_simple_types@PEAVISDKInMeetingServiceMgrEvent@@@std@@@2@$00@std@@QEAA@U_Zero_then_variadic_args_t@1@@Z 00000001400246a0 f i sdk_util.obj
 0001:000236a0       ??$?0$$V@?$_Compressed_pair@V?$allocator@U?$_Tree_node@PEAVIMeetingServiceEvent@ZOOMSDK@@PEAX@std@@@std@@V?$_Tree_val@U?$_Tree_simple_types@PEAVIMeetingServiceEvent@ZOOMSDK@@@std@@@2@$00@std@@QEAA@U_Zero_then_variadic_args_t@1@@Z 00000001400246a0 f i sdk_util.obj
 0001:000236a0       ??$?0$$V@?$_Compressed_pair@V?$allocator@U?$_Tree_node@PEAVIAuthServiceEvent@ZOOMSDK@@PEAX@std@@@std@@V?$_Tree_val@U?$_Tree_simple_types@PEAVIAuthServiceEvent@ZOOMSDK@@@std@@@2@$00@std@@QEAA@U_Zero_then_variadic_args_t@1@@Z 00000001400246a0 f i sdk_util.obj
 0001:000236a0       ??$?0$$V@?$_Compressed_pair@V?$allocator@U?$_List_node@HPEAX@std@@@std@@V?$_List_val@U?$_List_simple_types@H@std@@@2@$00@std@@QEAA@U_Zero_then_variadic_args_t@1@@Z 00000001400246a0 f i participant_ui.obj
 0001:000236a0       ??$?0$$V@?$_Compressed_pair@V?$allocator@U?$_Tree_node@U?$pair@$$CBIPEAVIUserInfo@ZOOMSDK@@@std@@PEAX@std@@@std@@V?$_Tree_val@U?$_Tree_simple_types@U?$pair@$$CBIPEAVIUserInfo@ZOOMSDK@@@std@@@std@@@2@$00@std@@QEAA@U_Zero_then_variadic_args_t@1@@Z 00000001400246a0 f i user_manager.obj
 0001:000236a0       ??$?0$$V@?$_Compressed_pair@V?$allocator@U?$_Tree_node@PEAVIMeetingParticipantsCtrlEvent@ZOOMSDK@@PEAX@std@@@std@@V?$_Tree_val@U?$_Tree_simple_types@PEAVIMeetingParticipantsCtrlEvent@ZOOMSDK@@@std@@@2@$00@std@@QEAA@U_Zero_then_variadic_args_t@1@@Z 00000001400246a0 f i sdk_util.obj
 0001:000236a0       ??$?0$$V@?$_Compressed_pair@V?$allocator@U?$_Tree_node@PEAVIMeetingChatCtrlEvent@ZOOMSDK@@PEAX@std@@@std@@V?$_Tree_val@U?$_Tree_simple_types@PEAVIMeetingChatCtrlEvent@ZOOMSDK@@@std@@@2@$00@std@@QEAA@U_Zero_then_variadic_args_t@1@@Z 00000001400246a0 f i sdk_util.obj
 0001:000236a0       ??$?0$$V@?$_Compressed_pair@V?$allocator@U?$_Tree_node@PEAVIClosedCaptionControllerEvent@ZOOMSDK@@PEAX@std@@@std@@V?$_Tree_val@U?$_Tree_simple_types@PEAVIClosedCaptionControllerEvent@ZOOMSDK@@@std@@@2@$00@std@@QEAA@U_Zero_then_variadic_args_t@1@@Z 00000001400246a0 f i sdk_util.obj
 0001:000236a0       ??$?0$$V@?$_Compressed_pair@V?$allocator@U?$_Tree_node@U?$pair@$$CBHW4bkItemType@@@std@@PEAX@std@@@std@@V?$_Tree_val@U?$_Tree_simple_types@U?$pair@$$CBHW4bkItemType@@@std@@@std@@@2@$00@std@@QEAA@U_Zero_then_variadic_args_t@1@@Z 00000001400246a0 f i settings_ui.obj
 0001:000236d0       ??$?0H@?$_List_node_emplace_op2@V?$allocator@U?$_List_node@HPEAX@std@@@std@@@std@@QEAA@AEAV?$allocator@U?$_List_node@HPEAX@std@@@1@$$QEAH@Z 00000001400246d0 f i participant_ui.obj
 0001:00023750       ??$MakeDelegate@VCPUserItemEx@@V1@@DuiLib@@YA?AV?$CDelegate@VCPUserItemEx@@V1@@0@PEAVCPUserItemEx@@P82@EAA_NPEAX@Z@Z 0000000140024750 f i participant_ui.obj
 0001:000237b0       ??$_Emplace@H@?$list@HV?$allocator@H@std@@@std@@QEAAPEAU?$_List_node@HPEAX@1@QEAU21@$$QEAH@Z 00000001400247b0 f i participant_ui.obj
 0001:00023860       ??$_Free_non_head@V?$allocator@U?$_List_node@HPEAX@std@@@std@@@?$_List_node@HPEAX@std@@SAXAEAV?$allocator@U?$_List_node@HPEAX@std@@@1@PEAU01@@Z 0000000140024860 f i participant_ui.obj
 0001:000238d0       ??$_Freenode0@V?$allocator@U?$_List_node@HPEAX@std@@@std@@@?$_List_node@HPEAX@std@@SAXAEAV?$allocator@U?$_List_node@HPEAX@std@@@1@PEAU01@@Z 00000001400248d0 f i participant_ui.obj
 0001:00023920       ??$_Freenode@V?$allocator@U?$_List_node@HPEAX@std@@@std@@@?$_List_node@HPEAX@std@@SAXAEAV?$allocator@U?$_List_node@HPEAX@std@@@1@PEAU01@@Z 0000000140024920 f i participant_ui.obj
 0001:00023970       ??$_Get_size_of_n@$0BI@@std@@YA_K_K@Z 0000000140024970 f i participant_ui.obj
 0001:000239b0       ??$construct@HH@?$_Default_allocator_traits@V?$allocator@U?$_List_node@HPEAX@std@@@std@@@std@@SAXAEAV?$allocator@U?$_List_node@HPEAX@std@@@1@QEAH$$QEAH@Z 00000001400249b0 f i participant_ui.obj
 0001:00023a00       ??0?$CDelegate@VCPUserItemEx@@V1@@DuiLib@@QEAA@AEBV01@@Z 0000000140024a00 f i participant_ui.obj
 0001:00023a40       ??0?$CDelegate@VCPUserItemEx@@V1@@DuiLib@@QEAA@PEAVCPUserItemEx@@P82@EAA_NPEAX@Z@Z 0000000140024a40 f i participant_ui.obj
 0001:00023a90       ??0?$_Alloc_construct_ptr@V?$allocator@U?$_Tree_node@PEAVISDKInMeetingServiceMgrEvent@@PEAX@std@@@std@@@std@@QEAA@AEAV?$allocator@U?$_Tree_node@PEAVISDKInMeetingServiceMgrEvent@@PEAX@std@@@1@@Z 0000000140024a90 f i sdk_util.obj
 0001:00023a90       ??0?$_Alloc_construct_ptr@V?$allocator@U?$_Tree_node@PEAVIMeetingChatCtrlEvent@ZOOMSDK@@PEAX@std@@@std@@@std@@QEAA@AEAV?$allocator@U?$_Tree_node@PEAVIMeetingChatCtrlEvent@ZOOMSDK@@PEAX@std@@@1@@Z 0000000140024a90 f i sdk_util.obj
 0001:00023a90       ??0?$_Alloc_construct_ptr@V?$allocator@U?$_Tree_node@PEAVIClosedCaptionControllerEvent@ZOOMSDK@@PEAX@std@@@std@@@std@@QEAA@AEAV?$allocator@U?$_Tree_node@PEAVIClosedCaptionControllerEvent@ZOOMSDK@@PEAX@std@@@1@@Z 0000000140024a90 f i sdk_util.obj
 0001:00023a90       ??0?$_Alloc_construct_ptr@V?$allocator@U?$_Tree_node@PEAVIAuthServiceEvent@ZOOMSDK@@PEAX@std@@@std@@@std@@QEAA@AEAV?$allocator@U?$_Tree_node@PEAVIAuthServiceEvent@ZOOMSDK@@PEAX@std@@@1@@Z 0000000140024a90 f i sdk_util.obj
 0001:00023a90       ??0?$_Alloc_construct_ptr@V?$allocator@U?$_List_node@HPEAX@std@@@std@@@std@@QEAA@AEAV?$allocator@U?$_List_node@HPEAX@std@@@1@@Z 0000000140024a90 f i participant_ui.obj
 0001:00023a90       ??0?$_Alloc_construct_ptr@V?$allocator@U?$_Tree_node@PEAVIMeetingVideoCtrlEvent@ZOOMSDK@@PEAX@std@@@std@@@std@@QEAA@AEAV?$allocator@U?$_Tree_node@PEAVIMeetingVideoCtrlEvent@ZOOMSDK@@PEAX@std@@@1@@Z 0000000140024a90 f i sdk_util.obj
 0001:00023a90       ??0?$_Alloc_construct_ptr@V?$allocator@U?$_Tree_node@PEAVIMeetingServiceEvent@ZOOMSDK@@PEAX@std@@@std@@@std@@QEAA@AEAV?$allocator@U?$_Tree_node@PEAVIMeetingServiceEvent@ZOOMSDK@@PEAX@std@@@1@@Z 0000000140024a90 f i sdk_util.obj
 0001:00023a90       ??0?$_Alloc_construct_ptr@V?$allocator@U?$_Tree_node@PEAVIMeetingParticipantsCtrlEvent@ZOOMSDK@@PEAX@std@@@std@@@std@@QEAA@AEAV?$allocator@U?$_Tree_node@PEAVIMeetingParticipantsCtrlEvent@ZOOMSDK@@PEAX@std@@@1@@Z 0000000140024a90 f i sdk_util.obj
 0001:00023a90       ??0?$_Alloc_construct_ptr@V?$allocator@U?$_Tree_node@U?$pair@$$CBIPEAVIUserInfo@ZOOMSDK@@@std@@PEAX@std@@@std@@@std@@QEAA@AEAV?$allocator@U?$_Tree_node@U?$pair@$$CBIPEAVIUserInfo@ZOOMSDK@@@std@@PEAX@std@@@1@@Z 0000000140024a90 f i user_manager.obj
 0001:00023a90       ??0?$_Alloc_construct_ptr@V?$allocator@U?$_Tree_node@U?$pair@$$CBHW4bkItemType@@@std@@PEAX@std@@@std@@@std@@QEAA@AEAV?$allocator@U?$_Tree_node@U?$pair@$$CBHW4bkItemType@@@std@@PEAX@std@@@1@@Z 0000000140024a90 f i settings_ui.obj
 0001:00023ac0       ??0?$_Tree_const_iterator@V?$_Tree_val@U?$_Tree_simple_types@PEAVIMeetingChatCtrlEvent@ZOOMSDK@@@std@@@std@@@std@@QEAA@PEAU?$_Tree_node@PEAVIMeetingChatCtrlEvent@ZOOMSDK@@PEAX@1@PEBV?$_Tree_val@U?$_Tree_simple_types@PEAVIMeetingChatCtrlEvent@ZOOMSDK@@@std@@@1@@Z 0000000140024ac0 f i sdk_util.obj
 0001:00023ac0       ??0?$_Tree_const_iterator@V?$_Tree_val@U?$_Tree_simple_types@PEAVIMeetingServiceEvent@ZOOMSDK@@@std@@@std@@@std@@QEAA@PEAU?$_Tree_node@PEAVIMeetingServiceEvent@ZOOMSDK@@PEAX@1@PEBV?$_Tree_val@U?$_Tree_simple_types@PEAVIMeetingServiceEvent@ZOOMSDK@@@std@@@1@@Z 0000000140024ac0 f i sdk_util.obj
 0001:00023ac0       ??0?$_Tree_const_iterator@V?$_Tree_val@U?$_Tree_simple_types@PEAVIAuthServiceEvent@ZOOMSDK@@@std@@@std@@@std@@QEAA@PEAU?$_Tree_node@PEAVIAuthServiceEvent@ZOOMSDK@@PEAX@1@PEBV?$_Tree_val@U?$_Tree_simple_types@PEAVIAuthServiceEvent@ZOOMSDK@@@std@@@1@@Z 0000000140024ac0 f i sdk_util.obj
 0001:00023ac0       ??0?$_Tree_const_iterator@V?$_Tree_val@U?$_Tree_simple_types@PEAVISDKInMeetingServiceMgrEvent@@@std@@@std@@@std@@QEAA@PEAU?$_Tree_node@PEAVISDKInMeetingServiceMgrEvent@@PEAX@1@PEBV?$_Tree_val@U?$_Tree_simple_types@PEAVISDKInMeetingServiceMgrEvent@@@std@@@1@@Z 0000000140024ac0 f i sdk_util.obj
 0001:00023ac0       ??0?$_Tree_unchecked_iterator@V?$_Tree_val@U?$_Tree_simple_types@U?$pair@$$CBIPEAVIUserInfo@ZOOMSDK@@@std@@@std@@@std@@@std@@QEAA@PEAU?$_Tree_node@U?$pair@$$CBIPEAVIUserInfo@ZOOMSDK@@@std@@PEAX@1@PEBV?$_Tree_val@U?$_Tree_simple_types@U?$pair@$$CBIPEAVIUserInfo@ZOOMSDK@@@std@@@std@@@1@@Z 0000000140024ac0 f i user_manager.obj
 0001:00023ac0       ??0?$_Tree_const_iterator@V?$_Tree_val@U?$_Tree_simple_types@PEAVIMeetingVideoCtrlEvent@ZOOMSDK@@@std@@@std@@@std@@QEAA@PEAU?$_Tree_node@PEAVIMeetingVideoCtrlEvent@ZOOMSDK@@PEAX@1@PEBV?$_Tree_val@U?$_Tree_simple_types@PEAVIMeetingVideoCtrlEvent@ZOOMSDK@@@std@@@1@@Z 0000000140024ac0 f i sdk_util.obj
 0001:00023ac0       ??0?$_Tree_unchecked_iterator@V?$_Tree_val@U?$_Tree_simple_types@U?$pair@$$CBHW4bkItemType@@@std@@@std@@@std@@@std@@QEAA@PEAU?$_Tree_node@U?$pair@$$CBHW4bkItemType@@@std@@PEAX@1@PEBV?$_Tree_val@U?$_Tree_simple_types@U?$pair@$$CBHW4bkItemType@@@std@@@std@@@1@@Z 0000000140024ac0 f i settings_ui.obj
 0001:00023ac0       ??0?$_Tree_const_iterator@V?$_Tree_val@U?$_Tree_simple_types@U?$pair@$$CBHW4bkItemType@@@std@@@std@@@std@@@std@@QEAA@PEAU?$_Tree_node@U?$pair@$$CBHW4bkItemType@@@std@@PEAX@1@PEBV?$_Tree_val@U?$_Tree_simple_types@U?$pair@$$CBHW4bkItemType@@@std@@@std@@@1@@Z 0000000140024ac0 f i settings_ui.obj
 0001:00023ac0       ??0?$_Vector_iterator@V?$_Vector_val@U?$_Simple_types@PEAVIUserInfo@ZOOMSDK@@@std@@@std@@@std@@QEAA@PEAPEAVIUserInfo@ZOOMSDK@@PEBU_Container_base0@1@@Z 0000000140024ac0 f i user_manager.obj
 0001:00023ac0       ??0?$_Tree_const_iterator@V?$_Tree_val@U?$_Tree_simple_types@U?$pair@$$CBIPEAVIUserInfo@ZOOMSDK@@@std@@@std@@@std@@@std@@QEAA@PEAU?$_Tree_node@U?$pair@$$CBIPEAVIUserInfo@ZOOMSDK@@@std@@PEAX@1@PEBV?$_Tree_val@U?$_Tree_simple_types@U?$pair@$$CBIPEAVIUserInfo@ZOOMSDK@@@std@@@std@@@1@@Z 0000000140024ac0 f i user_manager.obj
 0001:00023ac0       ??0?$_Tree_const_iterator@V?$_Tree_val@U?$_Tree_simple_types@PEAVIClosedCaptionControllerEvent@ZOOMSDK@@@std@@@std@@@std@@QEAA@PEAU?$_Tree_node@PEAVIClosedCaptionControllerEvent@ZOOMSDK@@PEAX@1@PEBV?$_Tree_val@U?$_Tree_simple_types@PEAVIClosedCaptionControllerEvent@ZOOMSDK@@@std@@@1@@Z 0000000140024ac0 f i sdk_util.obj
 0001:00023ac0       ??0?$_Tree_const_iterator@V?$_Tree_val@U?$_Tree_simple_types@PEAVIMeetingParticipantsCtrlEvent@ZOOMSDK@@@std@@@std@@@std@@QEAA@PEAU?$_Tree_node@PEAVIMeetingParticipantsCtrlEvent@ZOOMSDK@@PEAX@1@PEBV?$_Tree_val@U?$_Tree_simple_types@PEAVIMeetingParticipantsCtrlEvent@ZOOMSDK@@@std@@@1@@Z 0000000140024ac0 f i sdk_util.obj
 0001:00023ac0       ??0?$_List_const_iterator@V?$_List_val@U?$_List_simple_types@H@std@@@std@@@std@@QEAA@PEAU?$_List_node@HPEAX@1@PEBV?$_List_val@U?$_List_simple_types@H@std@@@1@@Z 0000000140024ac0 f i participant_ui.obj
 0001:00023b00       ??0?$_Tree_iterator@V?$_Tree_val@U?$_Tree_simple_types@U?$pair@$$CBHW4bkItemType@@@std@@@std@@@std@@@std@@QEAA@PEAU?$_Tree_node@U?$pair@$$CBHW4bkItemType@@@std@@PEAX@1@PEBV?$_Tree_val@U?$_Tree_simple_types@U?$pair@$$CBHW4bkItemType@@@std@@@std@@@1@@Z 0000000140024b00 f i settings_ui.obj
 0001:00023b00       ??0?$_Tree_iterator@V?$_Tree_val@U?$_Tree_simple_types@U?$pair@$$CBIPEAVIUserInfo@ZOOMSDK@@@std@@@std@@@std@@@std@@QEAA@PEAU?$_Tree_node@U?$pair@$$CBIPEAVIUserInfo@ZOOMSDK@@@std@@PEAX@1@PEBV?$_Tree_val@U?$_Tree_simple_types@U?$pair@$$CBIPEAVIUserInfo@ZOOMSDK@@@std@@@std@@@1@@Z 0000000140024b00 f i user_manager.obj
 0001:00023b00       ??0?$_List_iterator@V?$_List_val@U?$_List_simple_types@H@std@@@std@@@std@@QEAA@PEAU?$_List_node@HPEAX@1@PEBV?$_List_val@U?$_List_simple_types@H@std@@@1@@Z 0000000140024b00 f i participant_ui.obj
 0001:00023b40       ??0?$_Tree_unchecked_const_iterator@V?$_Tree_val@U?$_Tree_simple_types@PEAVIAuthServiceEvent@ZOOMSDK@@@std@@@std@@U_Iterator_base0@2@@std@@QEAA@PEAU?$_Tree_node@PEAVIAuthServiceEvent@ZOOMSDK@@PEAX@1@PEBV?$_Tree_val@U?$_Tree_simple_types@PEAVIAuthServiceEvent@ZOOMSDK@@@std@@@1@@Z 0000000140024b40 f i sdk_util.obj
 0001:00023b40       ??0?$_Vector_const_iterator@V?$_Vector_val@U?$_Simple_types@PEAVIUserInfo@ZOOMSDK@@@std@@@std@@@std@@QEAA@PEAPEAVIUserInfo@ZOOMSDK@@PEBU_Container_base0@1@@Z 0000000140024b40 f i user_manager.obj
 0001:00023b40       ??0?$_Tree_unchecked_const_iterator@V?$_Tree_val@U?$_Tree_simple_types@U?$pair@$$CBHW4bkItemType@@@std@@@std@@@std@@U_Iterator_base0@2@@std@@QEAA@PEAU?$_Tree_node@U?$pair@$$CBHW4bkItemType@@@std@@PEAX@1@PEBV?$_Tree_val@U?$_Tree_simple_types@U?$pair@$$CBHW4bkItemType@@@std@@@std@@@1@@Z 0000000140024b40 f i settings_ui.obj
 0001:00023b40       ??0?$_Tree_unchecked_const_iterator@V?$_Tree_val@U?$_Tree_simple_types@PEAVIClosedCaptionControllerEvent@ZOOMSDK@@@std@@@std@@U_Iterator_base0@2@@std@@QEAA@PEAU?$_Tree_node@PEAVIClosedCaptionControllerEvent@ZOOMSDK@@PEAX@1@PEBV?$_Tree_val@U?$_Tree_simple_types@PEAVIClosedCaptionControllerEvent@ZOOMSDK@@@std@@@1@@Z 0000000140024b40 f i sdk_util.obj
 0001:00023b40       ??0?$_Tree_unchecked_const_iterator@V?$_Tree_val@U?$_Tree_simple_types@PEAVIMeetingVideoCtrlEvent@ZOOMSDK@@@std@@@std@@U_Iterator_base0@2@@std@@QEAA@PEAU?$_Tree_node@PEAVIMeetingVideoCtrlEvent@ZOOMSDK@@PEAX@1@PEBV?$_Tree_val@U?$_Tree_simple_types@PEAVIMeetingVideoCtrlEvent@ZOOMSDK@@@std@@@1@@Z 0000000140024b40 f i sdk_util.obj
 0001:00023b40       ??0?$_Tree_unchecked_const_iterator@V?$_Tree_val@U?$_Tree_simple_types@PEAVIMeetingParticipantsCtrlEvent@ZOOMSDK@@@std@@@std@@U_Iterator_base0@2@@std@@QEAA@PEAU?$_Tree_node@PEAVIMeetingParticipantsCtrlEvent@ZOOMSDK@@PEAX@1@PEBV?$_Tree_val@U?$_Tree_simple_types@PEAVIMeetingParticipantsCtrlEvent@ZOOMSDK@@@std@@@1@@Z 0000000140024b40 f i sdk_util.obj
 0001:00023b40       ??0?$_Tree_unchecked_const_iterator@V?$_Tree_val@U?$_Tree_simple_types@PEAVIMeetingChatCtrlEvent@ZOOMSDK@@@std@@@std@@U_Iterator_base0@2@@std@@QEAA@PEAU?$_Tree_node@PEAVIMeetingChatCtrlEvent@ZOOMSDK@@PEAX@1@PEBV?$_Tree_val@U?$_Tree_simple_types@PEAVIMeetingChatCtrlEvent@ZOOMSDK@@@std@@@1@@Z 0000000140024b40 f i sdk_util.obj
 0001:00023b40       ??0?$_List_unchecked_const_iterator@V?$_List_val@U?$_List_simple_types@H@std@@@std@@U_Iterator_base0@2@@std@@QEAA@PEAU?$_List_node@HPEAX@1@PEBV?$_List_val@U?$_List_simple_types@H@std@@@1@@Z 0000000140024b40 f i participant_ui.obj
 0001:00023b40       ??0?$_Tree_unchecked_const_iterator@V?$_Tree_val@U?$_Tree_simple_types@PEAVIMeetingServiceEvent@ZOOMSDK@@@std@@@std@@U_Iterator_base0@2@@std@@QEAA@PEAU?$_Tree_node@PEAVIMeetingServiceEvent@ZOOMSDK@@PEAX@1@PEBV?$_Tree_val@U?$_Tree_simple_types@PEAVIMeetingServiceEvent@ZOOMSDK@@@std@@@1@@Z 0000000140024b40 f i sdk_util.obj
 0001:00023b40       ??0?$_Tree_unchecked_const_iterator@V?$_Tree_val@U?$_Tree_simple_types@U?$pair@$$CBIPEAVIUserInfo@ZOOMSDK@@@std@@@std@@@std@@U_Iterator_base0@2@@std@@QEAA@PEAU?$_Tree_node@U?$pair@$$CBIPEAVIUserInfo@ZOOMSDK@@@std@@PEAX@1@PEBV?$_Tree_val@U?$_Tree_simple_types@U?$pair@$$CBIPEAVIUserInfo@ZOOMSDK@@@std@@@std@@@1@@Z 0000000140024b40 f i user_manager.obj
 0001:00023b40       ??0?$_Tree_unchecked_const_iterator@V?$_Tree_val@U?$_Tree_simple_types@PEAVISDKInMeetingServiceMgrEvent@@@std@@@std@@U_Iterator_base0@2@@std@@QEAA@PEAU?$_Tree_node@PEAVISDKInMeetingServiceMgrEvent@@PEAX@1@PEBV?$_Tree_val@U?$_Tree_simple_types@PEAVISDKInMeetingServiceMgrEvent@@@std@@@1@@Z 0000000140024b40 f i sdk_util.obj
 0001:00023b80       ??0?$list@HV?$allocator@H@std@@@std@@QEAA@XZ 0000000140024b80 f i participant_ui.obj
 0001:00023bb0       ??0CPUserItemEx@@QEAA@XZ   0000000140024bb0 f   participant_ui.obj
 0001:00023cb0       ??0CParticipantUIMgr@@QEAA@PEAVCCustomizeInMeetingUIMgr@@@Z 0000000140024cb0 f   participant_ui.obj
 0001:00023d90       ??0CRect@@QEAA@AEBUtagRECT@@@Z 0000000140024d90 f i participant_ui.obj
 0001:00023dc0       ??1?$CDelegate@VCTreeViewUI@DuiLib@@V12@@DuiLib@@UEAA@XZ 0000000140024dc0 f i DuiLib64:UITreeView.obj
 0001:00023dc0       ??1?$CDelegate@VCPUserItemEx@@V1@@DuiLib@@UEAA@XZ 0000000140024dc0 f i participant_ui.obj
 0001:00023de0       ??1?$_Alloc_construct_ptr@V?$allocator@U?$_List_node@HPEAX@std@@@std@@@std@@QEAA@XZ 0000000140024de0 f i participant_ui.obj
 0001:00023e20       ??1?$_List_node_emplace_op2@V?$allocator@U?$_List_node@HPEAX@std@@@std@@@std@@QEAA@XZ 0000000140024e20 f i participant_ui.obj
 0001:00023e70       ??1?$list@HV?$allocator@H@std@@@std@@QEAA@XZ 0000000140024e70 f i participant_ui.obj
 0001:00023e90       ??1CVerticalLayoutUI@DuiLib@@UEAA@XZ 0000000140024e90 f i DuiLib64:UIList.obj
 0001:00023e90       ??1CListContainerElementUI@DuiLib@@UEAA@XZ 0000000140024e90 f i participant_ui.obj
 0001:00023eb0       ??1CPUserItemEx@@UEAA@XZ   0000000140024eb0 f   participant_ui.obj
 0001:00023f70       ??1CParticipantUIMgr@@QEAA@XZ 0000000140024f70 f   participant_ui.obj
 0001:00024040       ??8?$_Tree_const_iterator@V?$_Tree_val@U?$_Tree_simple_types@PEAVIMeetingParticipantsCtrlEvent@ZOOMSDK@@@std@@@std@@@std@@QEBA_NAEBV01@@Z 0000000140025040 f i sdk_util.obj
 0001:00024040       ??8?$_Tree_const_iterator@V?$_Tree_val@U?$_Tree_simple_types@PEAVIClosedCaptionControllerEvent@ZOOMSDK@@@std@@@std@@@std@@QEBA_NAEBV01@@Z 0000000140025040 f i sdk_util.obj
 0001:00024040       ??8?$_List_const_iterator@V?$_List_val@U?$_List_simple_types@H@std@@@std@@@std@@QEBA_NAEBV01@@Z 0000000140025040 f i participant_ui.obj
 0001:00024040       ??8?$_Tree_const_iterator@V?$_Tree_val@U?$_Tree_simple_types@PEAVIMeetingServiceEvent@ZOOMSDK@@@std@@@std@@@std@@QEBA_NAEBV01@@Z 0000000140025040 f i sdk_util.obj
 0001:00024040       ??8?$_Tree_unchecked_const_iterator@V?$_Tree_val@U?$_Tree_simple_types@PEAVIClosedCaptionControllerEvent@ZOOMSDK@@@std@@@std@@U_Iterator_base0@2@@std@@QEBA_NAEBV01@@Z 0000000140025040 f i sdk_util.obj
 0001:00024040       ??8?$_Tree_unchecked_const_iterator@V?$_Tree_val@U?$_Tree_simple_types@PEAVIMeetingVideoCtrlEvent@ZOOMSDK@@@std@@@std@@U_Iterator_base0@2@@std@@QEBA_NAEBV01@@Z 0000000140025040 f i sdk_util.obj
 0001:00024040       ??8?$_Tree_unchecked_const_iterator@V?$_Tree_val@U?$_Tree_simple_types@PEAVIMeetingParticipantsCtrlEvent@ZOOMSDK@@@std@@@std@@U_Iterator_base0@2@@std@@QEBA_NAEBV01@@Z 0000000140025040 f i sdk_util.obj
 0001:00024040       ??8?$_Tree_const_iterator@V?$_Tree_val@U?$_Tree_simple_types@PEAVIMeetingVideoCtrlEvent@ZOOMSDK@@@std@@@std@@@std@@QEBA_NAEBV01@@Z 0000000140025040 f i sdk_util.obj
 0001:00024040       ??8?$_Tree_unchecked_const_iterator@V?$_Tree_val@U?$_Tree_simple_types@U?$pair@$$CBHW4bkItemType@@@std@@@std@@@std@@U_Iterator_base0@2@@std@@QEBA_NAEBV01@@Z 0000000140025040 f i settings_ui.obj
 0001:00024040       ??8?$_Tree_const_iterator@V?$_Tree_val@U?$_Tree_simple_types@U?$pair@$$CBIPEAVIUserInfo@ZOOMSDK@@@std@@@std@@@std@@@std@@QEBA_NAEBV01@@Z 0000000140025040 f i user_manager.obj
 0001:00024040       ??8?$_Tree_unchecked_const_iterator@V?$_Tree_val@U?$_Tree_simple_types@PEAVIMeetingServiceEvent@ZOOMSDK@@@std@@@std@@U_Iterator_base0@2@@std@@QEBA_NAEBV01@@Z 0000000140025040 f i sdk_util.obj
 0001:00024040       ??8?$_Tree_const_iterator@V?$_Tree_val@U?$_Tree_simple_types@PEAVIAuthServiceEvent@ZOOMSDK@@@std@@@std@@@std@@QEBA_NAEBV01@@Z 0000000140025040 f i sdk_util.obj
 0001:00024040       ??8?$_Tree_const_iterator@V?$_Tree_val@U?$_Tree_simple_types@PEAVIMeetingChatCtrlEvent@ZOOMSDK@@@std@@@std@@@std@@QEBA_NAEBV01@@Z 0000000140025040 f i sdk_util.obj
 0001:00024040       ??8?$_Tree_unchecked_const_iterator@V?$_Tree_val@U?$_Tree_simple_types@PEAVIMeetingChatCtrlEvent@ZOOMSDK@@@std@@@std@@U_Iterator_base0@2@@std@@QEBA_NAEBV01@@Z 0000000140025040 f i sdk_util.obj
 0001:00024040       ??8?$_Tree_unchecked_const_iterator@V?$_Tree_val@U?$_Tree_simple_types@PEAVISDKInMeetingServiceMgrEvent@@@std@@@std@@U_Iterator_base0@2@@std@@QEBA_NAEBV01@@Z 0000000140025040 f i sdk_util.obj
 0001:00024040       ??8?$_Tree_const_iterator@V?$_Tree_val@U?$_Tree_simple_types@PEAVISDKInMeetingServiceMgrEvent@@@std@@@std@@@std@@QEBA_NAEBV01@@Z 0000000140025040 f i sdk_util.obj
 0001:00024040       ??8?$_Tree_const_iterator@V?$_Tree_val@U?$_Tree_simple_types@U?$pair@$$CBHW4bkItemType@@@std@@@std@@@std@@@std@@QEBA_NAEBV01@@Z 0000000140025040 f i settings_ui.obj
 0001:00024040       ??8?$_Tree_unchecked_const_iterator@V?$_Tree_val@U?$_Tree_simple_types@PEAVIAuthServiceEvent@ZOOMSDK@@@std@@@std@@U_Iterator_base0@2@@std@@QEBA_NAEBV01@@Z 0000000140025040 f i sdk_util.obj
 0001:00024080       ??9?$_Tree_unchecked_const_iterator@V?$_Tree_val@U?$_Tree_simple_types@PEAVIMeetingServiceEvent@ZOOMSDK@@@std@@@std@@U_Iterator_base0@2@@std@@QEBA_NAEBV01@@Z 0000000140025080 f i sdk_util.obj
 0001:00024080       ??9?$_Tree_const_iterator@V?$_Tree_val@U?$_Tree_simple_types@PEAVIClosedCaptionControllerEvent@ZOOMSDK@@@std@@@std@@@std@@QEBA_NAEBV01@@Z 0000000140025080 f i sdk_util.obj
 0001:00024080       ??9?$_Tree_const_iterator@V?$_Tree_val@U?$_Tree_simple_types@PEAVIMeetingVideoCtrlEvent@ZOOMSDK@@@std@@@std@@@std@@QEBA_NAEBV01@@Z 0000000140025080 f i sdk_util.obj
 0001:00024080       ??9?$_Tree_const_iterator@V?$_Tree_val@U?$_Tree_simple_types@PEAVIMeetingChatCtrlEvent@ZOOMSDK@@@std@@@std@@@std@@QEBA_NAEBV01@@Z 0000000140025080 f i sdk_util.obj
 0001:00024080       ??9?$_Tree_unchecked_const_iterator@V?$_Tree_val@U?$_Tree_simple_types@PEAVIMeetingVideoCtrlEvent@ZOOMSDK@@@std@@@std@@U_Iterator_base0@2@@std@@QEBA_NAEBV01@@Z 0000000140025080 f i sdk_util.obj
 0001:00024080       ??9?$_Tree_unchecked_const_iterator@V?$_Tree_val@U?$_Tree_simple_types@PEAVIMeetingParticipantsCtrlEvent@ZOOMSDK@@@std@@@std@@U_Iterator_base0@2@@std@@QEBA_NAEBV01@@Z 0000000140025080 f i sdk_util.obj
 0001:00024080       ??9?$_Tree_unchecked_const_iterator@V?$_Tree_val@U?$_Tree_simple_types@PEAVISDKInMeetingServiceMgrEvent@@@std@@@std@@U_Iterator_base0@2@@std@@QEBA_NAEBV01@@Z 0000000140025080 f i sdk_util.obj
 0001:00024080       ??9?$_Tree_unchecked_const_iterator@V?$_Tree_val@U?$_Tree_simple_types@PEAVIMeetingChatCtrlEvent@ZOOMSDK@@@std@@@std@@U_Iterator_base0@2@@std@@QEBA_NAEBV01@@Z 0000000140025080 f i sdk_util.obj
 0001:00024080       ??9?$_Tree_const_iterator@V?$_Tree_val@U?$_Tree_simple_types@PEAVIMeetingServiceEvent@ZOOMSDK@@@std@@@std@@@std@@QEBA_NAEBV01@@Z 0000000140025080 f i sdk_util.obj
 0001:00024080       ??9?$_List_const_iterator@V?$_List_val@U?$_List_simple_types@H@std@@@std@@@std@@QEBA_NAEBV01@@Z 0000000140025080 f i participant_ui.obj
 0001:00024080       ??9?$_Tree_const_iterator@V?$_Tree_val@U?$_Tree_simple_types@U?$pair@$$CBIPEAVIUserInfo@ZOOMSDK@@@std@@@std@@@std@@@std@@QEBA_NAEBV01@@Z 0000000140025080 f i user_manager.obj
 0001:00024080       ??9?$_Tree_const_iterator@V?$_Tree_val@U?$_Tree_simple_types@PEAVISDKInMeetingServiceMgrEvent@@@std@@@std@@@std@@QEBA_NAEBV01@@Z 0000000140025080 f i sdk_util.obj
 0001:00024080       ??9?$_Tree_unchecked_const_iterator@V?$_Tree_val@U?$_Tree_simple_types@PEAVIClosedCaptionControllerEvent@ZOOMSDK@@@std@@@std@@U_Iterator_base0@2@@std@@QEBA_NAEBV01@@Z 0000000140025080 f i sdk_util.obj
 0001:00024080       ??9?$_Tree_const_iterator@V?$_Tree_val@U?$_Tree_simple_types@PEAVIMeetingParticipantsCtrlEvent@ZOOMSDK@@@std@@@std@@@std@@QEBA_NAEBV01@@Z 0000000140025080 f i sdk_util.obj
 0001:00024080       ??9?$_Tree_unchecked_const_iterator@V?$_Tree_val@U?$_Tree_simple_types@U?$pair@$$CBHW4bkItemType@@@std@@@std@@@std@@U_Iterator_base0@2@@std@@QEBA_NAEBV01@@Z 0000000140025080 f i settings_ui.obj
 0001:00024080       ??9?$_Tree_unchecked_const_iterator@V?$_Tree_val@U?$_Tree_simple_types@PEAVIAuthServiceEvent@ZOOMSDK@@@std@@@std@@U_Iterator_base0@2@@std@@QEBA_NAEBV01@@Z 0000000140025080 f i sdk_util.obj
 0001:00024080       ??9?$_Tree_const_iterator@V?$_Tree_val@U?$_Tree_simple_types@PEAVIAuthServiceEvent@ZOOMSDK@@@std@@@std@@@std@@QEBA_NAEBV01@@Z 0000000140025080 f i sdk_util.obj
 0001:00024080       ??9?$_Tree_const_iterator@V?$_Tree_val@U?$_Tree_simple_types@U?$pair@$$CBHW4bkItemType@@@std@@@std@@@std@@@std@@QEBA_NAEBV01@@Z 0000000140025080 f i settings_ui.obj
 0001:000240c0       ??D?$_List_const_iterator@V?$_List_val@U?$_List_simple_types@H@std@@@std@@@std@@QEBAAEBHXZ 00000001400250c0 f i participant_ui.obj
 0001:000240e0       ??D?$_List_iterator@V?$_List_val@U?$_List_simple_types@H@std@@@std@@@std@@QEBAAEAHXZ 00000001400250e0 f i participant_ui.obj
 0001:00024100       ??E?$_List_const_iterator@V?$_List_val@U?$_List_simple_types@H@std@@@std@@@std@@QEAAAEAV01@XZ 0000000140025100 f i participant_ui.obj
 0001:00024120       ??E?$_List_iterator@V?$_List_val@U?$_List_simple_types@H@std@@@std@@@std@@QEAA?AV01@H@Z 0000000140025120 f i participant_ui.obj
 0001:00024170       ??_G?$CDelegate@VCPUserItemEx@@V1@@DuiLib@@UEAAPEAXI@Z 0000000140025170 f i participant_ui.obj
 0001:00024170       ??_E?$CDelegate@VCPUserItemEx@@V1@@DuiLib@@UEAAPEAXI@Z 0000000140025170 f i participant_ui.obj
 0001:000241b0       ??_GCPUserItemEx@@UEAAPEAXI@Z 00000001400251b0 f i participant_ui.obj
 0001:000241b0       ??_ECPUserItemEx@@UEAAPEAXI@Z 00000001400251b0 f i participant_ui.obj
 0001:000241f0       ??_GParticipantPopMenu@@QEAAPEAXI@Z 00000001400251f0 f i participant_ui.obj
 0001:00024230       ?Copy@?$CDelegate@VCPUserItemEx@@V1@@DuiLib@@UEBAPEAVCDelegateBase@2@XZ 0000000140025230 f i participant_ui.obj
 0001:00024290       ?CreateControl@CParticipantUIMgr@@UEAAPEAVCControlUI@DuiLib@@PEB_W@Z 0000000140025290 f   participant_ui.obj
 0001:00024320       ?GetSkinRes@CParticipantUIMgr@@UEAAIXZ 0000000140025320 f i participant_ui.obj
 0001:00024330       ?GetUserByID@CParticipantUIMgr@@QEAAPEAVIUserInfo@ZOOMSDK@@I@Z 0000000140025330 f   participant_ui.obj
 0001:00024370       ?GetSelItemTextColor@CTreeNodeUI@DuiLib@@QEBAKXZ 0000000140025370 f   DuiLib64:UITreeView.obj
 0001:00024370       ?GetUserID@CPUserItemEx@@QEAAIXZ 0000000140025370 f   participant_ui.obj
 0001:00024390       ?GetUserList@CParticipantUIMgr@@QEAAXXZ 0000000140025390 f   participant_ui.obj
 0001:000243d0       ?HandleMessage@CParticipantUIMgr@@UEAA_JI_K_J@Z 00000001400253d0 f   participant_ui.obj
 0001:000245f0       ?HandleUserChanged@CParticipantUIMgr@@QEAAXW4SDKUserChangedType@@@Z 00000001400255f0 f   participant_ui.obj
 0001:00024650       ?InitControls@CPUserItemEx@@QEAAXXZ 0000000140025650 f   participant_ui.obj
 0001:000247e0       ?InitListUI@CParticipantUIMgr@@QEAAXXZ 00000001400257e0 f   participant_ui.obj
 0001:000249e0       ?InitWindow@CParticipantUIMgr@@UEAAXXZ 00000001400259e0 f   participant_ui.obj
 0001:00024b20       ?Invoke@?$CDelegate@VCTreeViewUI@DuiLib@@V12@@DuiLib@@MEAA_NPEAX@Z 0000000140025b20 f i DuiLib64:UITreeView.obj
 0001:00024b20       ?Invoke@?$CDelegate@VCPUserItemEx@@V1@@DuiLib@@MEAA_NPEAX@Z 0000000140025b20 f i participant_ui.obj
 0001:00024b80       ?IsSelected@CPUserItemEx@@UEBA_NXZ 0000000140025b80 f   participant_ui.obj
 0001:00024ba0       ?Notify@CParticipantUIMgr@@UEAAXAEAUtagTNotifyUI@DuiLib@@@Z 0000000140025ba0 f   participant_ui.obj
 0001:00024d10       ?OnSelfItemSize@CPUserItemEx@@AEAA_NPEAX@Z 0000000140025d10 f   participant_ui.obj
 0001:000252a0       ?RemoveListItem@CParticipantUIMgr@@AEAAXXZ 00000001400262a0 f   participant_ui.obj
 0001:00025530       ?ResetWindowTitle@CParticipantUIMgr@@AEAAXXZ 0000000140026530 f   participant_ui.obj
 0001:00025620       ?SetUIMgr@CPUserItemEx@@QEAAXPEAVCParticipantUIMgr@@@Z 0000000140026620 f   participant_ui.obj
 0001:00025650       ?SetUserID@CPUserItemEx@@QEAAXI@Z 0000000140026650 f   participant_ui.obj
 0001:000256d0       ?UpdateItemInfo@CPUserItemEx@@QEAAXXZ 00000001400266d0 f   participant_ui.obj
 0001:00025720       ?UpdateListItem@CParticipantUIMgr@@AEAAXXZ 0000000140026720 f   participant_ui.obj
 0001:000259b0       ?UpdateName@CPUserItemEx@@QEAAXXZ 00000001400269b0 f   participant_ui.obj
 0001:00025b50       ?UpdateUserAudioStatus@CPUserItemEx@@QEAAXXZ 0000000140026b50 f   participant_ui.obj
 0001:00025d00       ?UpdateUserInfo@CPUserItemEx@@QEAAXXZ 0000000140026d00 f   participant_ui.obj
 0001:00025d30       ?UpdateUserLowerHandStatus@CPUserItemEx@@QEAAXXZ 0000000140026d30 f   participant_ui.obj
 0001:00025de0       ?UpdateUserVideoStatus@CPUserItemEx@@QEAAXXZ 0000000140026de0 f   participant_ui.obj
 0001:00025f20       ?_Alloc_sentinel_and_proxy@?$list@HV?$allocator@H@std@@@std@@AEAAXXZ 0000000140026f20 f i participant_ui.obj
 0001:00025fc0       ?_Allocate@?$_Alloc_construct_ptr@V?$allocator@U?$_List_node@HPEAX@std@@@std@@@std@@QEAAXXZ 0000000140026fc0 f i participant_ui.obj
 0001:00026000       ?_Tidy@?$list@HV?$allocator@H@std@@@std@@AEAAXXZ 0000000140027000 f i participant_ui.obj
 0001:00026060       ?_Transfer_before@?$_List_node_emplace_op2@V?$allocator@U?$_List_node@HPEAX@std@@@std@@@std@@QEAAPEAU?$_List_node@HPEAX@2@QEAU32@@Z 0000000140027060 f i participant_ui.obj
 0001:000260f0       ?allocate@?$allocator@U?$_List_node@HPEAX@std@@@std@@QEAAPEAU?$_List_node@HPEAX@2@_K@Z 00000001400270f0 f i participant_ui.obj
 0001:00026120       ?begin@?$list@HV?$allocator@H@std@@@std@@QEAA?AV?$_List_iterator@V?$_List_val@U?$_List_simple_types@H@std@@@std@@@2@XZ 0000000140027120 f i participant_ui.obj
 0001:00026160       ?deallocate@?$_Default_allocator_traits@V?$allocator@U?$_List_node@HPEAX@std@@@std@@@std@@SAXAEAV?$allocator@U?$_List_node@HPEAX@std@@@2@QEAU?$_List_node@HPEAX@2@_K@Z 0000000140027160 f i participant_ui.obj
 0001:00026160       ?deallocate@?$allocator@U?$_List_node@HPEAX@std@@@std@@QEAAXQEAU?$_List_node@HPEAX@2@_K@Z 0000000140027160 f i participant_ui.obj
 0001:00026190       ?empty@?$list@HV?$allocator@H@std@@@std@@QEBA_NXZ 0000000140027190 f i participant_ui.obj
 0001:000261c0       ?end@?$list@HV?$allocator@H@std@@@std@@QEAA?AV?$_List_iterator@V?$_List_val@U?$_List_simple_types@H@std@@@std@@@2@XZ 00000001400271c0 f i participant_ui.obj
 0001:00026200       ?max_size@?$_Default_allocator_traits@V?$allocator@U?$_List_node@HPEAX@std@@@std@@@std@@SA_KAEBV?$allocator@U?$_List_node@HPEAX@std@@@2@@Z 0000000140027200 f i participant_ui.obj
 0001:00026210       ?max_size@?$list@HV?$allocator@H@std@@@std@@QEBA_KXZ 0000000140027210 f i participant_ui.obj
 0001:00026260       ?push_back@?$list@HV?$allocator@H@std@@@std@@QEAAX$$QEAH@Z 0000000140027260 f i participant_ui.obj
 0001:000262a0       ??0CSDKDemoApp@@QEAA@XZ    00000001400272a0 f   sdk_demo_app.obj
 0001:00026330       ??0CSDKDemoAppEvent@@QEAA@XZ 0000000140027330 f i sdk_demo_app.obj
 0001:00026350       ??1CSDKDemoApp@@UEAA@XZ    0000000140027350 f   sdk_demo_app.obj
 0001:00026380       ??_ECSDKDemoApp@@UEAAPEAXI@Z 0000000140027380 f i sdk_demo_app.obj
 0001:00026380       ??_GCSDKDemoApp@@UEAAPEAXI@Z 0000000140027380 f i sdk_demo_app.obj
 0001:000263c0       ?ActivateCustomizedUI@CSDKDemoApp@@UEAAXXZ 00000001400273c0 f   sdk_demo_app.obj
 0001:000263f0       ?Cleanup@CSDKDemoApp@@QEAAXXZ 00000001400273f0 f   sdk_demo_app.obj
 0001:00026650       ?GetOwner@CListContainerElementUI@DuiLib@@UEAAPEAVIListOwnerUI@2@XZ 0000000140027650 f   DuiLib64:UIList.obj
 0001:00026650       ?GetTextCallback@CListUI@DuiLib@@UEBAPEAVIListCallbackUI@2@XZ 0000000140027650 f   DuiLib64:UIList.obj
 0001:00026650       ?GetLoggedInUIMgr@CSDKDemoApp@@QEBAPEAVCSDKLoggedInUIMgr@@XZ 0000000140027650 f   sdk_demo_app.obj
 0001:00026650       ?GetOwner@CListElementUI@DuiLib@@UEAAPEAVIListOwnerUI@2@XZ 0000000140027650 f   DuiLib64:UIList.obj
 0001:00026660       ?InitCustomizedUI@CSDKDemoApp@@UEAAXXZ 0000000140027660 f   sdk_demo_app.obj
 0001:00026720       ?Run@CSDKDemoApp@@QEAAXPEAUHINSTANCE__@@@Z 0000000140027720 f   sdk_demo_app.obj
 0001:00026920       ?Stop@CSDKDemoApp@@QEAAXXZ 0000000140027920 f   sdk_demo_app.obj
 0001:00026a20       ?onJoinFailed@CSDKDemoApp@@UEAAXXZ 0000000140027a20 f   sdk_demo_app.obj
 0001:00026a80       ?onLoginFailed@CSDKDemoApp@@UEAAXXZ 0000000140027a80 f   sdk_demo_app.obj
 0001:00026ac0       ?onPageButtonClick@CSDKDemoApp@@UEAAXW4ArrowButtonType@@@Z 0000000140027ac0 f   sdk_demo_app.obj
 0001:00026af0       ?onQuitApp@CSDKDemoApp@@UEAAXXZ 0000000140027af0 f   sdk_demo_app.obj
 0001:00026b10       ?onShowCameraControlWindow@CSDKDemoApp@@UEAAXXZ 0000000140027b10 f   sdk_demo_app.obj
 0001:00026b40       ?onShowChatWindow@CSDKDemoApp@@UEAAXXZ 0000000140027b40 f   sdk_demo_app.obj
 0001:00026b70       ?onShowGalleryViewWindow@CSDKDemoApp@@UEAAXXZ 0000000140027b70 f   sdk_demo_app.obj
 0001:00026ba0       ?onShowLoggedInUI@CSDKDemoApp@@UEAAXW4LoggedIn_MeetingUI_type@@@Z 0000000140027ba0 f   sdk_demo_app.obj
 0001:00026e30       ?onShowMoreMenuWindow@CSDKDemoApp@@UEAAXHH@Z 0000000140027e30 f   sdk_demo_app.obj
 0001:00026e70       ?onShowParticipantWindow@CSDKDemoApp@@UEAAXXZ 0000000140027e70 f   sdk_demo_app.obj
 0001:00026ea0       ?onShowSettingsUI@CSDKDemoApp@@UEAAXW4SettingsUI_page@@@Z 0000000140027ea0 f   sdk_demo_app.obj
 0001:00026fd0       ?onShowShareWindow@CSDKDemoApp@@UEAAXXZ 0000000140027fd0 f   sdk_demo_app.obj
 0001:00027000       ?onSwitchToJoinMeetingForLoginUserUI@CSDKDemoApp@@UEAAXXZ 0000000140028000 f   sdk_demo_app.obj
 0001:00027140       ?onSwitchToLoginUI@CSDKDemoApp@@UEAAXW4SwitchToLoginUIType@@@Z 0000000140028140 f   sdk_demo_app.obj
 0001:00027340       WinMain                    0000000140028340 f   sdk_demo_v2.obj
 0001:000273d0       ??0CAuthSDKUIGroup@@QEAA@XZ 00000001400283d0 f   sdk_init_auth_ui.obj
 0001:00027460       ??0CAuthSDKWorkFlowUIEvent@@QEAA@XZ 0000000140028460 f i sdk_init_auth_ui.obj
 0001:00027480       ??0CInitSDKUIGroup@@QEAA@XZ 0000000140028480 f   sdk_init_auth_ui.obj
 0001:00027500       ??0CInitSDKWorkFlowUIEvent@@QEAA@XZ 0000000140028500 f i sdk_init_auth_ui.obj
 0001:00027520       ??0CSDKInitAuthUIMgr@@QEAA@XZ 0000000140028520 f   sdk_init_auth_ui.obj
 0001:000275e0       ??0tagConfigurableOptions@ZOOMSDK@@QEAA@XZ 00000001400285e0 f i sdk_init_auth_ui.obj
 0001:00027620       ??0tagCustomizedLanguageInfo@ZOOMSDK@@QEAA@XZ 0000000140028620 f i sdk_init_auth_ui.obj
 0001:00027650       ??0tagInitParam@ZOOMSDK@@QEAA@XZ 0000000140028650 f i sdk_init_auth_ui.obj
 0001:00027720       ??0tagRawDataOptions@ZOOMSDK@@QEAA@XZ 0000000140028720 f i sdk_init_auth_ui.obj
 0001:00027760       ??0tagZoomSDKRenderOptions@ZOOMSDK@@QEAA@XZ 0000000140028760 f i sdk_init_auth_ui.obj
 0001:00027790       ??1CAuthSDKUIGroup@@UEAA@XZ 0000000140028790 f   sdk_init_auth_ui.obj
 0001:000277e0       ??1CInitSDKUIGroup@@UEAA@XZ 00000001400287e0 f   sdk_init_auth_ui.obj
 0001:00027820       ??1CSDKInitAuthUIMgr@@UEAA@XZ 0000000140028820 f   sdk_init_auth_ui.obj
 0001:000278c0       ??_ECAuthSDKUIGroup@@UEAAPEAXI@Z 00000001400288c0 f i sdk_init_auth_ui.obj
 0001:000278c0       ??_GCAuthSDKUIGroup@@UEAAPEAXI@Z 00000001400288c0 f i sdk_init_auth_ui.obj
 0001:00027900       ??_ECInitSDKUIGroup@@UEAAPEAXI@Z 0000000140028900 f i sdk_init_auth_ui.obj
 0001:00027900       ??_GCInitSDKUIGroup@@UEAAPEAXI@Z 0000000140028900 f i sdk_init_auth_ui.obj
 0001:00027940       ??_GCSDKInitAuthUIMgr@@UEAAPEAXI@Z 0000000140028940 f i sdk_init_auth_ui.obj
 0001:00027940       ??_ECSDKInitAuthUIMgr@@UEAAPEAXI@Z 0000000140028940 f i sdk_init_auth_ui.obj
 0001:00027980       ?DoAuthBtnClick@CAuthSDKUIGroup@@QEAAXXZ 0000000140028980 f   sdk_init_auth_ui.obj
 0001:00027ac0       ?DoInitBtnClick@CInitSDKUIGroup@@QEAAXXZ 0000000140028ac0 f   sdk_init_auth_ui.obj
 0001:00027c90       ?GetAppEvent@CSDKInitAuthUIMgr@@QEAAPEAVCSDKDemoAppEvent@@XZ 0000000140028c90 f   sdk_init_auth_ui.obj
 0001:00027cb0       ?GetSkinRes@CSDKInitAuthUIMgr@@UEAAIXZ 0000000140028cb0 f i sdk_init_auth_ui.obj
 0001:00027cc0       ?HandleMessage@CSDKInitAuthUIMgr@@UEAA_JI_K_J@Z 0000000140028cc0 f   sdk_init_auth_ui.obj
 0001:00027f20       ?InitWindow@CAuthSDKUIGroup@@QEAAXAEAVCPaintManagerUI@DuiLib@@PEAVCSDKInitAuthUIMgr@@@Z 0000000140028f20 f   sdk_init_auth_ui.obj
 0001:00027fb0       ?InitWindow@CInitSDKUIGroup@@QEAAXAEAVCPaintManagerUI@DuiLib@@PEAVCSDKInitAuthUIMgr@@@Z 0000000140028fb0 f   sdk_init_auth_ui.obj
 0001:00028060       ?InitWindow@CSDKInitAuthUIMgr@@UEAAXXZ 0000000140029060 f   sdk_init_auth_ui.obj
 0001:00028330       ?Notify@CAuthSDKUIGroup@@QEAAXAEAUtagTNotifyUI@DuiLib@@@Z 0000000140029330 f   sdk_init_auth_ui.obj
 0001:00028380       ?Notify@CInitSDKUIGroup@@QEAAXAEAUtagTNotifyUI@DuiLib@@@Z 0000000140029380 f   sdk_init_auth_ui.obj
 0001:000283d0       ?Notify@CSDKInitAuthUIMgr@@UEAAXAEAUtagTNotifyUI@DuiLib@@@Z 00000001400293d0 f   sdk_init_auth_ui.obj
 0001:00028420       ?OnClose@CSDKInitAuthUIMgr@@QEAA_JI_K_JAEAH@Z 0000000140029420 f   sdk_init_auth_ui.obj
 0001:00028470       ?OnDestroy@CSDKInitAuthUIMgr@@QEAA_JI_K_JAEAH@Z 0000000140029470 f   sdk_init_auth_ui.obj
 0001:000284c0       ?SetCurrentPage@CSDKInitAuthUIMgr@@QEAAXPEAVCVerticalLayoutUI@DuiLib@@@Z 00000001400294c0 f i sdk_init_auth_ui.obj
 0001:000284e0       ?SetEvent@CSDKInitAuthUIMgr@@QEAAXPEAVCSDKDemoAppEvent@@@Z 00000001400294e0 f   sdk_init_auth_ui.obj
 0001:00028500       ?Show@CAuthSDKUIGroup@@QEAAXXZ 0000000140029500 f   sdk_init_auth_ui.obj
 0001:00028560       ?Show@CInitSDKUIGroup@@QEAAXXZ 0000000140029560 f   sdk_init_auth_ui.obj
 0001:000285c0       ?ShowErrorMessage@CSDKInitAuthUIMgr@@QEAAXPEB_W@Z 00000001400295c0 f   sdk_init_auth_ui.obj
 0001:00028600       ?SwitchToAuthPage@CSDKInitAuthUIMgr@@QEAAX_N@Z 0000000140029600 f   sdk_init_auth_ui.obj
 0001:00028640       ?SwitchToWaitingPage@CSDKInitAuthUIMgr@@QEAAXPEB_W_N@Z 0000000140029640 f   sdk_init_auth_ui.obj
 0001:00028760       ?UninitWindow@CAuthSDKUIGroup@@QEAAXXZ 0000000140029760 f   sdk_init_auth_ui.obj
 0001:000287a0       ?UninitWindow@CInitSDKUIGroup@@QEAAXXZ 00000001400297a0 f   sdk_init_auth_ui.obj
 0001:000287e0       ?onSDKAuthed@CAuthSDKUIGroup@@UEAAXW4AuthResult@ZOOMSDK@@@Z 00000001400297e0 f   sdk_init_auth_ui.obj
 0001:00028870       ?onSDKInited@CInitSDKUIGroup@@UEAAXW4SDKError@ZOOMSDK@@@Z 0000000140029870 f   sdk_init_auth_ui.obj
 0001:00028940       ??$?0AEAPEAU?$_Tree_node@PEAVIAuthServiceEvent@ZOOMSDK@@PEAX@std@@AEAPEAU01@$0A@@?$pair@PEAU?$_Tree_node@PEAVIAuthServiceEvent@ZOOMSDK@@PEAX@std@@PEAU12@@std@@QEAA@AEAPEAU?$_Tree_node@PEAVIAuthServiceEvent@ZOOMSDK@@PEAX@1@0@Z 0000000140029940 f i sdk_util.obj
 0001:00028940       ??$?0AEAPEAU?$_Tree_node@PEAVIMeetingChatCtrlEvent@ZOOMSDK@@PEAX@std@@AEAPEAU01@$0A@@?$pair@PEAU?$_Tree_node@PEAVIMeetingChatCtrlEvent@ZOOMSDK@@PEAX@std@@PEAU12@@std@@QEAA@AEAPEAU?$_Tree_node@PEAVIMeetingChatCtrlEvent@ZOOMSDK@@PEAX@1@0@Z 0000000140029940 f i sdk_util.obj
 0001:00028940       ??$?0AEAPEAU?$_Tree_node@PEAVIMeetingVideoCtrlEvent@ZOOMSDK@@PEAX@std@@AEAPEAU01@$0A@@?$pair@PEAU?$_Tree_node@PEAVIMeetingVideoCtrlEvent@ZOOMSDK@@PEAX@std@@PEAU12@@std@@QEAA@AEAPEAU?$_Tree_node@PEAVIMeetingVideoCtrlEvent@ZOOMSDK@@PEAX@1@0@Z 0000000140029940 f i sdk_util.obj
 0001:00028940       ??$?0AEAPEAU?$_Tree_node@PEAVIMeetingServiceEvent@ZOOMSDK@@PEAX@std@@AEAPEAU01@$0A@@?$pair@PEAU?$_Tree_node@PEAVIMeetingServiceEvent@ZOOMSDK@@PEAX@std@@PEAU12@@std@@QEAA@AEAPEAU?$_Tree_node@PEAVIMeetingServiceEvent@ZOOMSDK@@PEAX@1@0@Z 0000000140029940 f i sdk_util.obj
 0001:00028940       ??$?0AEAPEAU?$_Tree_node@PEAVISDKInMeetingServiceMgrEvent@@PEAX@std@@AEAPEAU01@$0A@@?$pair@PEAU?$_Tree_node@PEAVISDKInMeetingServiceMgrEvent@@PEAX@std@@PEAU12@@std@@QEAA@AEAPEAU?$_Tree_node@PEAVISDKInMeetingServiceMgrEvent@@PEAX@1@0@Z 0000000140029940 f i sdk_util.obj
 0001:00028940       ??$?0AEAPEAU?$_Tree_node@PEAVIClosedCaptionControllerEvent@ZOOMSDK@@PEAX@std@@AEAPEAU01@$0A@@?$pair@PEAU?$_Tree_node@PEAVIClosedCaptionControllerEvent@ZOOMSDK@@PEAX@std@@PEAU12@@std@@QEAA@AEAPEAU?$_Tree_node@PEAVIClosedCaptionControllerEvent@ZOOMSDK@@PEAX@1@0@Z 0000000140029940 f i sdk_util.obj
 0001:00028940       ??$?0AEAPEAU?$_Tree_node@PEAVIMeetingParticipantsCtrlEvent@ZOOMSDK@@PEAX@std@@AEAPEAU01@$0A@@?$pair@PEAU?$_Tree_node@PEAVIMeetingParticipantsCtrlEvent@ZOOMSDK@@PEAX@std@@PEAU12@@std@@QEAA@AEAPEAU?$_Tree_node@PEAVIMeetingParticipantsCtrlEvent@ZOOMSDK@@PEAX@1@0@Z 0000000140029940 f i sdk_util.obj
 0001:00028990       ??$?0AEAPEAU?$_Tree_node@U?$pair@$$CBIPEAVIUserInfo@ZOOMSDK@@@std@@PEAX@std@@_N$0A@@?$pair@PEAU?$_Tree_node@U?$pair@$$CBIPEAVIUserInfo@ZOOMSDK@@@std@@PEAX@std@@_N@std@@QEAA@AEAPEAU?$_Tree_node@U?$pair@$$CBIPEAVIUserInfo@ZOOMSDK@@@std@@PEAX@1@$$QEA_N@Z 0000000140029990 f i user_manager.obj
 0001:00028990       ??$?0AEAPEAU?$_Tree_node@PEAVIClosedCaptionControllerEvent@ZOOMSDK@@PEAX@std@@_N$0A@@?$pair@PEAU?$_Tree_node@PEAVIClosedCaptionControllerEvent@ZOOMSDK@@PEAX@std@@_N@std@@QEAA@AEAPEAU?$_Tree_node@PEAVIClosedCaptionControllerEvent@ZOOMSDK@@PEAX@1@$$QEA_N@Z 0000000140029990 f i sdk_util.obj
 0001:00028990       ??$?0AEBQEAU?$_Tree_node@U?$pair@$$CBIPEAVIUserInfo@ZOOMSDK@@@std@@PEAX@std@@_N$0A@@?$pair@PEAU?$_Tree_node@U?$pair@$$CBIPEAVIUserInfo@ZOOMSDK@@@std@@PEAX@std@@_N@std@@QEAA@AEBQEAU?$_Tree_node@U?$pair@$$CBIPEAVIUserInfo@ZOOMSDK@@@std@@PEAX@1@$$QEA_N@Z 0000000140029990 f i user_manager.obj
 0001:00028990       ??$?0PEAU?$_Tree_node@PEAVIClosedCaptionControllerEvent@ZOOMSDK@@PEAX@std@@_N$0A@@?$pair@PEAU?$_Tree_node@PEAVIClosedCaptionControllerEvent@ZOOMSDK@@PEAX@std@@_N@std@@QEAA@$$QEAPEAU?$_Tree_node@PEAVIClosedCaptionControllerEvent@ZOOMSDK@@PEAX@1@$$QEA_N@Z 0000000140029990 f i sdk_util.obj
 0001:00028990       ??$?0PEAU?$_Tree_node@PEAVIMeetingChatCtrlEvent@ZOOMSDK@@PEAX@std@@_N$0A@@?$pair@PEAU?$_Tree_node@PEAVIMeetingChatCtrlEvent@ZOOMSDK@@PEAX@std@@_N@std@@QEAA@$$QEAPEAU?$_Tree_node@PEAVIMeetingChatCtrlEvent@ZOOMSDK@@PEAX@1@$$QEA_N@Z 0000000140029990 f i sdk_util.obj
 0001:00028990       ??$?0PEAU?$_Tree_node@PEAVIMeetingParticipantsCtrlEvent@ZOOMSDK@@PEAX@std@@_N$0A@@?$pair@PEAU?$_Tree_node@PEAVIMeetingParticipantsCtrlEvent@ZOOMSDK@@PEAX@std@@_N@std@@QEAA@$$QEAPEAU?$_Tree_node@PEAVIMeetingParticipantsCtrlEvent@ZOOMSDK@@PEAX@1@$$QEA_N@Z 0000000140029990 f i sdk_util.obj
 0001:00028990       ??$?0PEAU?$_Tree_node@PEAVIMeetingServiceEvent@ZOOMSDK@@PEAX@std@@_N$0A@@?$pair@PEAU?$_Tree_node@PEAVIMeetingServiceEvent@ZOOMSDK@@PEAX@std@@_N@std@@QEAA@$$QEAPEAU?$_Tree_node@PEAVIMeetingServiceEvent@ZOOMSDK@@PEAX@1@$$QEA_N@Z 0000000140029990 f i sdk_util.obj
 0001:00028990       ??$?0AEAPEAU?$_Tree_node@PEAVIAuthServiceEvent@ZOOMSDK@@PEAX@std@@_N$0A@@?$pair@PEAU?$_Tree_node@PEAVIAuthServiceEvent@ZOOMSDK@@PEAX@std@@_N@std@@QEAA@AEAPEAU?$_Tree_node@PEAVIAuthServiceEvent@ZOOMSDK@@PEAX@1@$$QEA_N@Z 0000000140029990 f i sdk_util.obj
 0001:00028990       ??$?0PEAU?$_Tree_node@PEAVIMeetingVideoCtrlEvent@ZOOMSDK@@PEAX@std@@_N$0A@@?$pair@PEAU?$_Tree_node@PEAVIMeetingVideoCtrlEvent@ZOOMSDK@@PEAX@std@@_N@std@@QEAA@$$QEAPEAU?$_Tree_node@PEAVIMeetingVideoCtrlEvent@ZOOMSDK@@PEAX@1@$$QEA_N@Z 0000000140029990 f i sdk_util.obj
 0001:00028990       ??$?0PEAU?$_Tree_node@PEAVIAuthServiceEvent@ZOOMSDK@@PEAX@std@@_N$0A@@?$pair@PEAU?$_Tree_node@PEAVIAuthServiceEvent@ZOOMSDK@@PEAX@std@@_N@std@@QEAA@$$QEAPEAU?$_Tree_node@PEAVIAuthServiceEvent@ZOOMSDK@@PEAX@1@$$QEA_N@Z 0000000140029990 f i sdk_util.obj
 0001:00028990       ??$?0PEAU?$_Tree_node@U?$pair@$$CBHW4bkItemType@@@std@@PEAX@std@@_N$0A@@?$pair@PEAU?$_Tree_node@U?$pair@$$CBHW4bkItemType@@@std@@PEAX@std@@_N@std@@QEAA@$$QEAPEAU?$_Tree_node@U?$pair@$$CBHW4bkItemType@@@std@@PEAX@1@$$QEA_N@Z 0000000140029990 f i settings_ui.obj
 0001:00028990       ??$?0AEAPEAU?$_Tree_node@U?$pair@$$CBHW4bkItemType@@@std@@PEAX@std@@_N$0A@@?$pair@PEAU?$_Tree_node@U?$pair@$$CBHW4bkItemType@@@std@@PEAX@std@@_N@std@@QEAA@AEAPEAU?$_Tree_node@U?$pair@$$CBHW4bkItemType@@@std@@PEAX@1@$$QEA_N@Z 0000000140029990 f i settings_ui.obj
 0001:00028990       ??$?0AEAPEAU?$_Tree_node@PEAVIMeetingParticipantsCtrlEvent@ZOOMSDK@@PEAX@std@@_N$0A@@?$pair@PEAU?$_Tree_node@PEAVIMeetingParticipantsCtrlEvent@ZOOMSDK@@PEAX@std@@_N@std@@QEAA@AEAPEAU?$_Tree_node@PEAVIMeetingParticipantsCtrlEvent@ZOOMSDK@@PEAX@1@$$QEA_N@Z 0000000140029990 f i sdk_util.obj
 0001:00028990       ??$?0PEAU?$_Tree_node@PEAVISDKInMeetingServiceMgrEvent@@PEAX@std@@_N$0A@@?$pair@PEAU?$_Tree_node@PEAVISDKInMeetingServiceMgrEvent@@PEAX@std@@_N@std@@QEAA@$$QEAPEAU?$_Tree_node@PEAVISDKInMeetingServiceMgrEvent@@PEAX@1@$$QEA_N@Z 0000000140029990 f i sdk_util.obj
 0001:00028990       ??$?0AEAPEAU?$_Tree_node@PEAVISDKInMeetingServiceMgrEvent@@PEAX@std@@_N$0A@@?$pair@PEAU?$_Tree_node@PEAVISDKInMeetingServiceMgrEvent@@PEAX@std@@_N@std@@QEAA@AEAPEAU?$_Tree_node@PEAVISDKInMeetingServiceMgrEvent@@PEAX@1@$$QEA_N@Z 0000000140029990 f i sdk_util.obj
 0001:00028990       ??$?0AEAPEAU?$_Tree_node@PEAVIMeetingServiceEvent@ZOOMSDK@@PEAX@std@@_N$0A@@?$pair@PEAU?$_Tree_node@PEAVIMeetingServiceEvent@ZOOMSDK@@PEAX@std@@_N@std@@QEAA@AEAPEAU?$_Tree_node@PEAVIMeetingServiceEvent@ZOOMSDK@@PEAX@1@$$QEA_N@Z 0000000140029990 f i sdk_util.obj
 0001:00028990       ??$?0PEAU?$_Tree_node@U?$pair@$$CBIPEAVIUserInfo@ZOOMSDK@@@std@@PEAX@std@@_N$0A@@?$pair@PEAU?$_Tree_node@U?$pair@$$CBIPEAVIUserInfo@ZOOMSDK@@@std@@PEAX@std@@_N@std@@QEAA@$$QEAPEAU?$_Tree_node@U?$pair@$$CBIPEAVIUserInfo@ZOOMSDK@@@std@@PEAX@1@$$QEA_N@Z 0000000140029990 f i user_manager.obj
 0001:00028990       ??$?0AEAPEAU?$_Tree_node@PEAVIMeetingChatCtrlEvent@ZOOMSDK@@PEAX@std@@_N$0A@@?$pair@PEAU?$_Tree_node@PEAVIMeetingChatCtrlEvent@ZOOMSDK@@PEAX@std@@_N@std@@QEAA@AEAPEAU?$_Tree_node@PEAVIMeetingChatCtrlEvent@ZOOMSDK@@PEAX@1@$$QEA_N@Z 0000000140029990 f i sdk_util.obj
 0001:00028990       ??$?0AEAPEAU?$_Tree_node@PEAVIMeetingVideoCtrlEvent@ZOOMSDK@@PEAX@std@@_N$0A@@?$pair@PEAU?$_Tree_node@PEAVIMeetingVideoCtrlEvent@ZOOMSDK@@PEAX@std@@_N@std@@QEAA@AEAPEAU?$_Tree_node@PEAVIMeetingVideoCtrlEvent@ZOOMSDK@@PEAX@1@$$QEA_N@Z 0000000140029990 f i sdk_util.obj
 0001:000289e0       ??$?0AEBQEAVIMeetingServiceEvent@ZOOMSDK@@@?$_Tree_temp_node@V?$allocator@U?$_Tree_node@PEAVIMeetingServiceEvent@ZOOMSDK@@PEAX@std@@@std@@@std@@QEAA@AEAV?$allocator@U?$_Tree_node@PEAVIMeetingServiceEvent@ZOOMSDK@@PEAX@std@@@1@PEAU?$_Tree_node@PEAVIMeetingServiceEvent@ZOOMSDK@@PEAX@1@AEBQEAVIMeetingServiceEvent@ZOOMSDK@@@Z 00000001400299e0 f i sdk_util.obj
 0001:000289e0       ??$?0AEBQEAVIAuthServiceEvent@ZOOMSDK@@@?$_Tree_temp_node@V?$allocator@U?$_Tree_node@PEAVIAuthServiceEvent@ZOOMSDK@@PEAX@std@@@std@@@std@@QEAA@AEAV?$allocator@U?$_Tree_node@PEAVIAuthServiceEvent@ZOOMSDK@@PEAX@std@@@1@PEAU?$_Tree_node@PEAVIAuthServiceEvent@ZOOMSDK@@PEAX@1@AEBQEAVIAuthServiceEvent@ZOOMSDK@@@Z 00000001400299e0 f i sdk_util.obj
 0001:000289e0       ??$?0AEBQEAVIMeetingChatCtrlEvent@ZOOMSDK@@@?$_Tree_temp_node@V?$allocator@U?$_Tree_node@PEAVIMeetingChatCtrlEvent@ZOOMSDK@@PEAX@std@@@std@@@std@@QEAA@AEAV?$allocator@U?$_Tree_node@PEAVIMeetingChatCtrlEvent@ZOOMSDK@@PEAX@std@@@1@PEAU?$_Tree_node@PEAVIMeetingChatCtrlEvent@ZOOMSDK@@PEAX@1@AEBQEAVIMeetingChatCtrlEvent@ZOOMSDK@@@Z 00000001400299e0 f i sdk_util.obj
 0001:000289e0       ??$?0AEBQEAVIMeetingVideoCtrlEvent@ZOOMSDK@@@?$_Tree_temp_node@V?$allocator@U?$_Tree_node@PEAVIMeetingVideoCtrlEvent@ZOOMSDK@@PEAX@std@@@std@@@std@@QEAA@AEAV?$allocator@U?$_Tree_node@PEAVIMeetingVideoCtrlEvent@ZOOMSDK@@PEAX@std@@@1@PEAU?$_Tree_node@PEAVIMeetingVideoCtrlEvent@ZOOMSDK@@PEAX@1@AEBQEAVIMeetingVideoCtrlEvent@ZOOMSDK@@@Z 00000001400299e0 f i sdk_util.obj
 0001:000289e0       ??$?0AEBQEAVISDKInMeetingServiceMgrEvent@@@?$_Tree_temp_node@V?$allocator@U?$_Tree_node@PEAVISDKInMeetingServiceMgrEvent@@PEAX@std@@@std@@@std@@QEAA@AEAV?$allocator@U?$_Tree_node@PEAVISDKInMeetingServiceMgrEvent@@PEAX@std@@@1@PEAU?$_Tree_node@PEAVISDKInMeetingServiceMgrEvent@@PEAX@1@AEBQEAVISDKInMeetingServiceMgrEvent@@@Z 00000001400299e0 f i sdk_util.obj
 0001:000289e0       ??$?0AEBQEAVIClosedCaptionControllerEvent@ZOOMSDK@@@?$_Tree_temp_node@V?$allocator@U?$_Tree_node@PEAVIClosedCaptionControllerEvent@ZOOMSDK@@PEAX@std@@@std@@@std@@QEAA@AEAV?$allocator@U?$_Tree_node@PEAVIClosedCaptionControllerEvent@ZOOMSDK@@PEAX@std@@@1@PEAU?$_Tree_node@PEAVIClosedCaptionControllerEvent@ZOOMSDK@@PEAX@1@AEBQEAVIClosedCaptionControllerEvent@ZOOMSDK@@@Z 00000001400299e0 f i sdk_util.obj
 0001:000289e0       ??$?0AEBQEAVIMeetingParticipantsCtrlEvent@ZOOMSDK@@@?$_Tree_temp_node@V?$allocator@U?$_Tree_node@PEAVIMeetingParticipantsCtrlEvent@ZOOMSDK@@PEAX@std@@@std@@@std@@QEAA@AEAV?$allocator@U?$_Tree_node@PEAVIMeetingParticipantsCtrlEvent@ZOOMSDK@@PEAX@std@@@1@PEAU?$_Tree_node@PEAVIMeetingParticipantsCtrlEvent@ZOOMSDK@@PEAX@1@AEBQEAVIMeetingParticipantsCtrlEvent@ZOOMSDK@@@Z 00000001400299e0 f i sdk_util.obj
 0001:00028ab0       ??$?0AEBU?$less@H@std@@U_Zero_then_variadic_args_t@1@@?$_Compressed_pair@U?$less@H@std@@V?$_Compressed_pair@V?$allocator@U?$_Tree_node@U?$pair@$$CBHW4bkItemType@@@std@@PEAX@std@@@std@@V?$_Tree_val@U?$_Tree_simple_types@U?$pair@$$CBHW4bkItemType@@@std@@@std@@@2@$00@2@$00@std@@QEAA@U_One_then_variadic_args_t@1@AEBU?$less@H@1@$$QEAU_Zero_then_variadic_args_t@1@@Z 0000000140029ab0 f i settings_ui.obj
 0001:00028ab0       ??$?0AEBU?$less@PEAVIClosedCaptionControllerEvent@ZOOMSDK@@@std@@U_Zero_then_variadic_args_t@1@@?$_Compressed_pair@U?$less@PEAVIClosedCaptionControllerEvent@ZOOMSDK@@@std@@V?$_Compressed_pair@V?$allocator@U?$_Tree_node@PEAVIClosedCaptionControllerEvent@ZOOMSDK@@PEAX@std@@@std@@V?$_Tree_val@U?$_Tree_simple_types@PEAVIClosedCaptionControllerEvent@ZOOMSDK@@@std@@@2@$00@2@$00@std@@QEAA@U_One_then_variadic_args_t@1@AEBU?$less@PEAVIClosedCaptionControllerEvent@ZOOMSDK@@@1@$$QEAU_Zero_then_variadic_args_t@1@@Z 0000000140029ab0 f i sdk_util.obj
 0001:00028ab0       ??$?0AEBU?$less@PEAVIMeetingVideoCtrlEvent@ZOOMSDK@@@std@@U_Zero_then_variadic_args_t@1@@?$_Compressed_pair@U?$less@PEAVIMeetingVideoCtrlEvent@ZOOMSDK@@@std@@V?$_Compressed_pair@V?$allocator@U?$_Tree_node@PEAVIMeetingVideoCtrlEvent@ZOOMSDK@@PEAX@std@@@std@@V?$_Tree_val@U?$_Tree_simple_types@PEAVIMeetingVideoCtrlEvent@ZOOMSDK@@@std@@@2@$00@2@$00@std@@QEAA@U_One_then_variadic_args_t@1@AEBU?$less@PEAVIMeetingVideoCtrlEvent@ZOOMSDK@@@1@$$QEAU_Zero_then_variadic_args_t@1@@Z 0000000140029ab0 f i sdk_util.obj
 0001:00028ab0       ??$?0AEBU?$less@PEAVIMeetingParticipantsCtrlEvent@ZOOMSDK@@@std@@U_Zero_then_variadic_args_t@1@@?$_Compressed_pair@U?$less@PEAVIMeetingParticipantsCtrlEvent@ZOOMSDK@@@std@@V?$_Compressed_pair@V?$allocator@U?$_Tree_node@PEAVIMeetingParticipantsCtrlEvent@ZOOMSDK@@PEAX@std@@@std@@V?$_Tree_val@U?$_Tree_simple_types@PEAVIMeetingParticipantsCtrlEvent@ZOOMSDK@@@std@@@2@$00@2@$00@std@@QEAA@U_One_then_variadic_args_t@1@AEBU?$less@PEAVIMeetingParticipantsCtrlEvent@ZOOMSDK@@@1@$$QEAU_Zero_then_variadic_args_t@1@@Z 0000000140029ab0 f i sdk_util.obj
 0001:00028ab0       ??$?0AEBU?$less@PEAVIAuthServiceEvent@ZOOMSDK@@@std@@U_Zero_then_variadic_args_t@1@@?$_Compressed_pair@U?$less@PEAVIAuthServiceEvent@ZOOMSDK@@@std@@V?$_Compressed_pair@V?$allocator@U?$_Tree_node@PEAVIAuthServiceEvent@ZOOMSDK@@PEAX@std@@@std@@V?$_Tree_val@U?$_Tree_simple_types@PEAVIAuthServiceEvent@ZOOMSDK@@@std@@@2@$00@2@$00@std@@QEAA@U_One_then_variadic_args_t@1@AEBU?$less@PEAVIAuthServiceEvent@ZOOMSDK@@@1@$$QEAU_Zero_then_variadic_args_t@1@@Z 0000000140029ab0 f i sdk_util.obj
 0001:00028ab0       ??$?0AEBU?$less@PEAVIMeetingChatCtrlEvent@ZOOMSDK@@@std@@U_Zero_then_variadic_args_t@1@@?$_Compressed_pair@U?$less@PEAVIMeetingChatCtrlEvent@ZOOMSDK@@@std@@V?$_Compressed_pair@V?$allocator@U?$_Tree_node@PEAVIMeetingChatCtrlEvent@ZOOMSDK@@PEAX@std@@@std@@V?$_Tree_val@U?$_Tree_simple_types@PEAVIMeetingChatCtrlEvent@ZOOMSDK@@@std@@@2@$00@2@$00@std@@QEAA@U_One_then_variadic_args_t@1@AEBU?$less@PEAVIMeetingChatCtrlEvent@ZOOMSDK@@@1@$$QEAU_Zero_then_variadic_args_t@1@@Z 0000000140029ab0 f i sdk_util.obj
 0001:00028ab0       ??$?0AEBU?$less@PEAVIMeetingServiceEvent@ZOOMSDK@@@std@@U_Zero_then_variadic_args_t@1@@?$_Compressed_pair@U?$less@PEAVIMeetingServiceEvent@ZOOMSDK@@@std@@V?$_Compressed_pair@V?$allocator@U?$_Tree_node@PEAVIMeetingServiceEvent@ZOOMSDK@@PEAX@std@@@std@@V?$_Tree_val@U?$_Tree_simple_types@PEAVIMeetingServiceEvent@ZOOMSDK@@@std@@@2@$00@2@$00@std@@QEAA@U_One_then_variadic_args_t@1@AEBU?$less@PEAVIMeetingServiceEvent@ZOOMSDK@@@1@$$QEAU_Zero_then_variadic_args_t@1@@Z 0000000140029ab0 f i sdk_util.obj
 0001:00028ab0       ??$?0AEBU?$less@I@std@@U_Zero_then_variadic_args_t@1@@?$_Compressed_pair@U?$less@I@std@@V?$_Compressed_pair@V?$allocator@U?$_Tree_node@U?$pair@$$CBIPEAVIUserInfo@ZOOMSDK@@@std@@PEAX@std@@@std@@V?$_Tree_val@U?$_Tree_simple_types@U?$pair@$$CBIPEAVIUserInfo@ZOOMSDK@@@std@@@std@@@2@$00@2@$00@std@@QEAA@U_One_then_variadic_args_t@1@AEBU?$less@I@1@$$QEAU_Zero_then_variadic_args_t@1@@Z 0000000140029ab0 f i user_manager.obj
 0001:00028ab0       ??$?0AEBU?$less@PEAVISDKInMeetingServiceMgrEvent@@@std@@U_Zero_then_variadic_args_t@1@@?$_Compressed_pair@U?$less@PEAVISDKInMeetingServiceMgrEvent@@@std@@V?$_Compressed_pair@V?$allocator@U?$_Tree_node@PEAVISDKInMeetingServiceMgrEvent@@PEAX@std@@@std@@V?$_Tree_val@U?$_Tree_simple_types@PEAVISDKInMeetingServiceMgrEvent@@@std@@@2@$00@2@$00@std@@QEAA@U_One_then_variadic_args_t@1@AEBU?$less@PEAVISDKInMeetingServiceMgrEvent@@@1@$$QEAU_Zero_then_variadic_args_t@1@@Z 0000000140029ab0 f i sdk_util.obj
 0001:00028b00       ??$?0V?$_Tree_const_iterator@V?$_Tree_val@U?$_Tree_simple_types@PEAVIAuthServiceEvent@ZOOMSDK@@@std@@@std@@@std@@AEB_N$0A@@?$pair@V?$_Tree_const_iterator@V?$_Tree_val@U?$_Tree_simple_types@PEAVIAuthServiceEvent@ZOOMSDK@@@std@@@std@@@std@@_N@std@@QEAA@$$QEAV?$_Tree_const_iterator@V?$_Tree_val@U?$_Tree_simple_types@PEAVIAuthServiceEvent@ZOOMSDK@@@std@@@std@@@1@AEB_N@Z 0000000140029b00 f i sdk_util.obj
 0001:00028b00       ??$?0V?$_Tree_const_iterator@V?$_Tree_val@U?$_Tree_simple_types@PEAVIMeetingVideoCtrlEvent@ZOOMSDK@@@std@@@std@@@std@@AEB_N$0A@@?$pair@V?$_Tree_const_iterator@V?$_Tree_val@U?$_Tree_simple_types@PEAVIMeetingVideoCtrlEvent@ZOOMSDK@@@std@@@std@@@std@@_N@std@@QEAA@$$QEAV?$_Tree_const_iterator@V?$_Tree_val@U?$_Tree_simple_types@PEAVIMeetingVideoCtrlEvent@ZOOMSDK@@@std@@@std@@@1@AEB_N@Z 0000000140029b00 f i sdk_util.obj
 0001:00028b00       ??$?0V?$_Tree_const_iterator@V?$_Tree_val@U?$_Tree_simple_types@PEAVIMeetingParticipantsCtrlEvent@ZOOMSDK@@@std@@@std@@@std@@AEB_N$0A@@?$pair@V?$_Tree_const_iterator@V?$_Tree_val@U?$_Tree_simple_types@PEAVIMeetingParticipantsCtrlEvent@ZOOMSDK@@@std@@@std@@@std@@_N@std@@QEAA@$$QEAV?$_Tree_const_iterator@V?$_Tree_val@U?$_Tree_simple_types@PEAVIMeetingParticipantsCtrlEvent@ZOOMSDK@@@std@@@std@@@1@AEB_N@Z 0000000140029b00 f i sdk_util.obj
 0001:00028b00       ??$?0V?$_Tree_const_iterator@V?$_Tree_val@U?$_Tree_simple_types@PEAVIClosedCaptionControllerEvent@ZOOMSDK@@@std@@@std@@@std@@AEB_N$0A@@?$pair@V?$_Tree_const_iterator@V?$_Tree_val@U?$_Tree_simple_types@PEAVIClosedCaptionControllerEvent@ZOOMSDK@@@std@@@std@@@std@@_N@std@@QEAA@$$QEAV?$_Tree_const_iterator@V?$_Tree_val@U?$_Tree_simple_types@PEAVIClosedCaptionControllerEvent@ZOOMSDK@@@std@@@std@@@1@AEB_N@Z 0000000140029b00 f i sdk_util.obj
 0001:00028b00       ??$?0V?$_Tree_const_iterator@V?$_Tree_val@U?$_Tree_simple_types@PEAVIMeetingServiceEvent@ZOOMSDK@@@std@@@std@@@std@@AEB_N$0A@@?$pair@V?$_Tree_const_iterator@V?$_Tree_val@U?$_Tree_simple_types@PEAVIMeetingServiceEvent@ZOOMSDK@@@std@@@std@@@std@@_N@std@@QEAA@$$QEAV?$_Tree_const_iterator@V?$_Tree_val@U?$_Tree_simple_types@PEAVIMeetingServiceEvent@ZOOMSDK@@@std@@@std@@@1@AEB_N@Z 0000000140029b00 f i sdk_util.obj
 0001:00028b00       ??$?0V?$_Tree_const_iterator@V?$_Tree_val@U?$_Tree_simple_types@PEAVISDKInMeetingServiceMgrEvent@@@std@@@std@@@std@@AEB_N$0A@@?$pair@V?$_Tree_const_iterator@V?$_Tree_val@U?$_Tree_simple_types@PEAVISDKInMeetingServiceMgrEvent@@@std@@@std@@@std@@_N@std@@QEAA@$$QEAV?$_Tree_const_iterator@V?$_Tree_val@U?$_Tree_simple_types@PEAVISDKInMeetingServiceMgrEvent@@@std@@@std@@@1@AEB_N@Z 0000000140029b00 f i sdk_util.obj
 0001:00028b00       ??$?0V?$_Tree_const_iterator@V?$_Tree_val@U?$_Tree_simple_types@PEAVIMeetingChatCtrlEvent@ZOOMSDK@@@std@@@std@@@std@@AEB_N$0A@@?$pair@V?$_Tree_const_iterator@V?$_Tree_val@U?$_Tree_simple_types@PEAVIMeetingChatCtrlEvent@ZOOMSDK@@@std@@@std@@@std@@_N@std@@QEAA@$$QEAV?$_Tree_const_iterator@V?$_Tree_val@U?$_Tree_simple_types@PEAVIMeetingChatCtrlEvent@ZOOMSDK@@@std@@@std@@@1@AEB_N@Z 0000000140029b00 f i sdk_util.obj
 0001:00028b00       ??$?0V?$_Tree_iterator@V?$_Tree_val@U?$_Tree_simple_types@U?$pair@$$CBIPEAVIUserInfo@ZOOMSDK@@@std@@@std@@@std@@@std@@AEB_N$0A@@?$pair@V?$_Tree_iterator@V?$_Tree_val@U?$_Tree_simple_types@U?$pair@$$CBIPEAVIUserInfo@ZOOMSDK@@@std@@@std@@@std@@@std@@_N@std@@QEAA@$$QEAV?$_Tree_iterator@V?$_Tree_val@U?$_Tree_simple_types@U?$pair@$$CBIPEAVIUserInfo@ZOOMSDK@@@std@@@std@@@std@@@1@AEB_N@Z 0000000140029b00 f i user_manager.obj
 0001:00028b00       ??$?0V?$_Tree_iterator@V?$_Tree_val@U?$_Tree_simple_types@U?$pair@$$CBHW4bkItemType@@@std@@@std@@@std@@@std@@AEB_N$0A@@?$pair@V?$_Tree_iterator@V?$_Tree_val@U?$_Tree_simple_types@U?$pair@$$CBHW4bkItemType@@@std@@@std@@@std@@@std@@_N@std@@QEAA@$$QEAV?$_Tree_iterator@V?$_Tree_val@U?$_Tree_simple_types@U?$pair@$$CBHW4bkItemType@@@std@@@std@@@std@@@1@AEB_N@Z 0000000140029b00 f i settings_ui.obj
 0001:00028b50       ??$_Buyheadnode@V?$allocator@U?$_Tree_node@PEAVIAuthServiceEvent@ZOOMSDK@@PEAX@std@@@std@@@?$_Tree_node@PEAVIAuthServiceEvent@ZOOMSDK@@PEAX@std@@SAPEAU01@AEAV?$allocator@U?$_Tree_node@PEAVIAuthServiceEvent@ZOOMSDK@@PEAX@std@@@1@@Z 0000000140029b50 f i sdk_util.obj
 0001:00028b50       ??$_Buyheadnode@V?$allocator@U?$_Tree_node@PEAVIMeetingParticipantsCtrlEvent@ZOOMSDK@@PEAX@std@@@std@@@?$_Tree_node@PEAVIMeetingParticipantsCtrlEvent@ZOOMSDK@@PEAX@std@@SAPEAU01@AEAV?$allocator@U?$_Tree_node@PEAVIMeetingParticipantsCtrlEvent@ZOOMSDK@@PEAX@std@@@1@@Z 0000000140029b50 f i sdk_util.obj
 0001:00028b50       ??$_Buyheadnode@V?$allocator@U?$_Tree_node@PEAVISDKInMeetingServiceMgrEvent@@PEAX@std@@@std@@@?$_Tree_node@PEAVISDKInMeetingServiceMgrEvent@@PEAX@std@@SAPEAU01@AEAV?$allocator@U?$_Tree_node@PEAVISDKInMeetingServiceMgrEvent@@PEAX@std@@@1@@Z 0000000140029b50 f i sdk_util.obj
 0001:00028b50       ??$_Buyheadnode@V?$allocator@U?$_Tree_node@PEAVIClosedCaptionControllerEvent@ZOOMSDK@@PEAX@std@@@std@@@?$_Tree_node@PEAVIClosedCaptionControllerEvent@ZOOMSDK@@PEAX@std@@SAPEAU01@AEAV?$allocator@U?$_Tree_node@PEAVIClosedCaptionControllerEvent@ZOOMSDK@@PEAX@std@@@1@@Z 0000000140029b50 f i sdk_util.obj
 0001:00028b50       ??$_Buyheadnode@V?$allocator@U?$_Tree_node@PEAVIMeetingServiceEvent@ZOOMSDK@@PEAX@std@@@std@@@?$_Tree_node@PEAVIMeetingServiceEvent@ZOOMSDK@@PEAX@std@@SAPEAU01@AEAV?$allocator@U?$_Tree_node@PEAVIMeetingServiceEvent@ZOOMSDK@@PEAX@std@@@1@@Z 0000000140029b50 f i sdk_util.obj
 0001:00028b50       ??$_Buyheadnode@V?$allocator@U?$_Tree_node@PEAVIMeetingVideoCtrlEvent@ZOOMSDK@@PEAX@std@@@std@@@?$_Tree_node@PEAVIMeetingVideoCtrlEvent@ZOOMSDK@@PEAX@std@@SAPEAU01@AEAV?$allocator@U?$_Tree_node@PEAVIMeetingVideoCtrlEvent@ZOOMSDK@@PEAX@std@@@1@@Z 0000000140029b50 f i sdk_util.obj
 0001:00028b50       ??$_Buyheadnode@V?$allocator@U?$_Tree_node@PEAVIMeetingChatCtrlEvent@ZOOMSDK@@PEAX@std@@@std@@@?$_Tree_node@PEAVIMeetingChatCtrlEvent@ZOOMSDK@@PEAX@std@@SAPEAU01@AEAV?$allocator@U?$_Tree_node@PEAVIMeetingChatCtrlEvent@ZOOMSDK@@PEAX@std@@@1@@Z 0000000140029b50 f i sdk_util.obj
 0001:00028b50       ??$_Buyheadnode@V?$allocator@U?$_Tree_node@U?$pair@$$CBHW4bkItemType@@@std@@PEAX@std@@@std@@@?$_Tree_node@U?$pair@$$CBHW4bkItemType@@@std@@PEAX@std@@SAPEAU01@AEAV?$allocator@U?$_Tree_node@U?$pair@$$CBHW4bkItemType@@@std@@PEAX@std@@@1@@Z 0000000140029b50 f i settings_ui.obj
 0001:00028bd0       ??$_Emplace@AEBQEAVIAuthServiceEvent@ZOOMSDK@@@?$_Tree@V?$_Tset_traits@PEAVIAuthServiceEvent@ZOOMSDK@@U?$less@PEAVIAuthServiceEvent@ZOOMSDK@@@std@@V?$allocator@PEAVIAuthServiceEvent@ZOOMSDK@@@4@$0A@@std@@@std@@IEAA?AU?$pair@PEAU?$_Tree_node@PEAVIAuthServiceEvent@ZOOMSDK@@PEAX@std@@_N@1@AEBQEAVIAuthServiceEvent@ZOOMSDK@@@Z 0000000140029bd0 f i sdk_util.obj
 0001:00028bd0       ??$_Emplace@AEBQEAVIMeetingServiceEvent@ZOOMSDK@@@?$_Tree@V?$_Tset_traits@PEAVIMeetingServiceEvent@ZOOMSDK@@U?$less@PEAVIMeetingServiceEvent@ZOOMSDK@@@std@@V?$allocator@PEAVIMeetingServiceEvent@ZOOMSDK@@@4@$0A@@std@@@std@@IEAA?AU?$pair@PEAU?$_Tree_node@PEAVIMeetingServiceEvent@ZOOMSDK@@PEAX@std@@_N@1@AEBQEAVIMeetingServiceEvent@ZOOMSDK@@@Z 0000000140029bd0 f i sdk_util.obj
 0001:00028bd0       ??$_Emplace@AEBQEAVISDKInMeetingServiceMgrEvent@@@?$_Tree@V?$_Tset_traits@PEAVISDKInMeetingServiceMgrEvent@@U?$less@PEAVISDKInMeetingServiceMgrEvent@@@std@@V?$allocator@PEAVISDKInMeetingServiceMgrEvent@@@3@$0A@@std@@@std@@IEAA?AU?$pair@PEAU?$_Tree_node@PEAVISDKInMeetingServiceMgrEvent@@PEAX@std@@_N@1@AEBQEAVISDKInMeetingServiceMgrEvent@@@Z 0000000140029bd0 f i sdk_util.obj
 0001:00028bd0       ??$_Emplace@AEBQEAVIMeetingParticipantsCtrlEvent@ZOOMSDK@@@?$_Tree@V?$_Tset_traits@PEAVIMeetingParticipantsCtrlEvent@ZOOMSDK@@U?$less@PEAVIMeetingParticipantsCtrlEvent@ZOOMSDK@@@std@@V?$allocator@PEAVIMeetingParticipantsCtrlEvent@ZOOMSDK@@@4@$0A@@std@@@std@@IEAA?AU?$pair@PEAU?$_Tree_node@PEAVIMeetingParticipantsCtrlEvent@ZOOMSDK@@PEAX@std@@_N@1@AEBQEAVIMeetingParticipantsCtrlEvent@ZOOMSDK@@@Z 0000000140029bd0 f i sdk_util.obj
 0001:00028bd0       ??$_Emplace@AEBQEAVIClosedCaptionControllerEvent@ZOOMSDK@@@?$_Tree@V?$_Tset_traits@PEAVIClosedCaptionControllerEvent@ZOOMSDK@@U?$less@PEAVIClosedCaptionControllerEvent@ZOOMSDK@@@std@@V?$allocator@PEAVIClosedCaptionControllerEvent@ZOOMSDK@@@4@$0A@@std@@@std@@IEAA?AU?$pair@PEAU?$_Tree_node@PEAVIClosedCaptionControllerEvent@ZOOMSDK@@PEAX@std@@_N@1@AEBQEAVIClosedCaptionControllerEvent@ZOOMSDK@@@Z 0000000140029bd0 f i sdk_util.obj
 0001:00028bd0       ??$_Emplace@AEBQEAVIMeetingChatCtrlEvent@ZOOMSDK@@@?$_Tree@V?$_Tset_traits@PEAVIMeetingChatCtrlEvent@ZOOMSDK@@U?$less@PEAVIMeetingChatCtrlEvent@ZOOMSDK@@@std@@V?$allocator@PEAVIMeetingChatCtrlEvent@ZOOMSDK@@@4@$0A@@std@@@std@@IEAA?AU?$pair@PEAU?$_Tree_node@PEAVIMeetingChatCtrlEvent@ZOOMSDK@@PEAX@std@@_N@1@AEBQEAVIMeetingChatCtrlEvent@ZOOMSDK@@@Z 0000000140029bd0 f i sdk_util.obj
 0001:00028bd0       ??$_Emplace@AEBQEAVIMeetingVideoCtrlEvent@ZOOMSDK@@@?$_Tree@V?$_Tset_traits@PEAVIMeetingVideoCtrlEvent@ZOOMSDK@@U?$less@PEAVIMeetingVideoCtrlEvent@ZOOMSDK@@@std@@V?$allocator@PEAVIMeetingVideoCtrlEvent@ZOOMSDK@@@4@$0A@@std@@@std@@IEAA?AU?$pair@PEAU?$_Tree_node@PEAVIMeetingVideoCtrlEvent@ZOOMSDK@@PEAX@std@@_N@1@AEBQEAVIMeetingVideoCtrlEvent@ZOOMSDK@@@Z 0000000140029bd0 f i sdk_util.obj
 0001:00028d50       ??$_Emplace_hint@AEBQEAVIMeetingParticipantsCtrlEvent@ZOOMSDK@@@?$_Tree@V?$_Tset_traits@PEAVIMeetingParticipantsCtrlEvent@ZOOMSDK@@U?$less@PEAVIMeetingParticipantsCtrlEvent@ZOOMSDK@@@std@@V?$allocator@PEAVIMeetingParticipantsCtrlEvent@ZOOMSDK@@@4@$0A@@std@@@std@@IEAAPEAU?$_Tree_node@PEAVIMeetingParticipantsCtrlEvent@ZOOMSDK@@PEAX@1@QEAU21@AEBQEAVIMeetingParticipantsCtrlEvent@ZOOMSDK@@@Z 0000000140029d50 f i sdk_util.obj
 0001:00028d50       ??$_Emplace_hint@AEBQEAVIClosedCaptionControllerEvent@ZOOMSDK@@@?$_Tree@V?$_Tset_traits@PEAVIClosedCaptionControllerEvent@ZOOMSDK@@U?$less@PEAVIClosedCaptionControllerEvent@ZOOMSDK@@@std@@V?$allocator@PEAVIClosedCaptionControllerEvent@ZOOMSDK@@@4@$0A@@std@@@std@@IEAAPEAU?$_Tree_node@PEAVIClosedCaptionControllerEvent@ZOOMSDK@@PEAX@1@QEAU21@AEBQEAVIClosedCaptionControllerEvent@ZOOMSDK@@@Z 0000000140029d50 f i sdk_util.obj
 0001:00028d50       ??$_Emplace_hint@AEBQEAVIMeetingVideoCtrlEvent@ZOOMSDK@@@?$_Tree@V?$_Tset_traits@PEAVIMeetingVideoCtrlEvent@ZOOMSDK@@U?$less@PEAVIMeetingVideoCtrlEvent@ZOOMSDK@@@std@@V?$allocator@PEAVIMeetingVideoCtrlEvent@ZOOMSDK@@@4@$0A@@std@@@std@@IEAAPEAU?$_Tree_node@PEAVIMeetingVideoCtrlEvent@ZOOMSDK@@PEAX@1@QEAU21@AEBQEAVIMeetingVideoCtrlEvent@ZOOMSDK@@@Z 0000000140029d50 f i sdk_util.obj
 0001:00028d50       ??$_Emplace_hint@AEBQEAVIAuthServiceEvent@ZOOMSDK@@@?$_Tree@V?$_Tset_traits@PEAVIAuthServiceEvent@ZOOMSDK@@U?$less@PEAVIAuthServiceEvent@ZOOMSDK@@@std@@V?$allocator@PEAVIAuthServiceEvent@ZOOMSDK@@@4@$0A@@std@@@std@@IEAAPEAU?$_Tree_node@PEAVIAuthServiceEvent@ZOOMSDK@@PEAX@1@QEAU21@AEBQEAVIAuthServiceEvent@ZOOMSDK@@@Z 0000000140029d50 f i sdk_util.obj
 0001:00028d50       ??$_Emplace_hint@AEBQEAVIMeetingServiceEvent@ZOOMSDK@@@?$_Tree@V?$_Tset_traits@PEAVIMeetingServiceEvent@ZOOMSDK@@U?$less@PEAVIMeetingServiceEvent@ZOOMSDK@@@std@@V?$allocator@PEAVIMeetingServiceEvent@ZOOMSDK@@@4@$0A@@std@@@std@@IEAAPEAU?$_Tree_node@PEAVIMeetingServiceEvent@ZOOMSDK@@PEAX@1@QEAU21@AEBQEAVIMeetingServiceEvent@ZOOMSDK@@@Z 0000000140029d50 f i sdk_util.obj
 0001:00028d50       ??$_Emplace_hint@AEBQEAVISDKInMeetingServiceMgrEvent@@@?$_Tree@V?$_Tset_traits@PEAVISDKInMeetingServiceMgrEvent@@U?$less@PEAVISDKInMeetingServiceMgrEvent@@@std@@V?$allocator@PEAVISDKInMeetingServiceMgrEvent@@@3@$0A@@std@@@std@@IEAAPEAU?$_Tree_node@PEAVISDKInMeetingServiceMgrEvent@@PEAX@1@QEAU21@AEBQEAVISDKInMeetingServiceMgrEvent@@@Z 0000000140029d50 f i sdk_util.obj
 0001:00028d50       ??$_Emplace_hint@AEBQEAVIMeetingChatCtrlEvent@ZOOMSDK@@@?$_Tree@V?$_Tset_traits@PEAVIMeetingChatCtrlEvent@ZOOMSDK@@U?$less@PEAVIMeetingChatCtrlEvent@ZOOMSDK@@@std@@V?$allocator@PEAVIMeetingChatCtrlEvent@ZOOMSDK@@@4@$0A@@std@@@std@@IEAAPEAU?$_Tree_node@PEAVIMeetingChatCtrlEvent@ZOOMSDK@@PEAX@1@QEAU21@AEBQEAVIMeetingChatCtrlEvent@ZOOMSDK@@@Z 0000000140029d50 f i sdk_util.obj
 0001:00028e70       ??$_Eqrange@PEAVIMeetingChatCtrlEvent@ZOOMSDK@@@?$_Tree@V?$_Tset_traits@PEAVIMeetingChatCtrlEvent@ZOOMSDK@@U?$less@PEAVIMeetingChatCtrlEvent@ZOOMSDK@@@std@@V?$allocator@PEAVIMeetingChatCtrlEvent@ZOOMSDK@@@4@$0A@@std@@@std@@IEBA?AU?$pair@PEAU?$_Tree_node@PEAVIMeetingChatCtrlEvent@ZOOMSDK@@PEAX@std@@PEAU12@@1@AEBQEAVIMeetingChatCtrlEvent@ZOOMSDK@@@Z 0000000140029e70 f i sdk_util.obj
 0001:00028e70       ??$_Eqrange@PEAVIClosedCaptionControllerEvent@ZOOMSDK@@@?$_Tree@V?$_Tset_traits@PEAVIClosedCaptionControllerEvent@ZOOMSDK@@U?$less@PEAVIClosedCaptionControllerEvent@ZOOMSDK@@@std@@V?$allocator@PEAVIClosedCaptionControllerEvent@ZOOMSDK@@@4@$0A@@std@@@std@@IEBA?AU?$pair@PEAU?$_Tree_node@PEAVIClosedCaptionControllerEvent@ZOOMSDK@@PEAX@std@@PEAU12@@1@AEBQEAVIClosedCaptionControllerEvent@ZOOMSDK@@@Z 0000000140029e70 f i sdk_util.obj
 0001:00028e70       ??$_Eqrange@PEAVISDKInMeetingServiceMgrEvent@@@?$_Tree@V?$_Tset_traits@PEAVISDKInMeetingServiceMgrEvent@@U?$less@PEAVISDKInMeetingServiceMgrEvent@@@std@@V?$allocator@PEAVISDKInMeetingServiceMgrEvent@@@3@$0A@@std@@@std@@IEBA?AU?$pair@PEAU?$_Tree_node@PEAVISDKInMeetingServiceMgrEvent@@PEAX@std@@PEAU12@@1@AEBQEAVISDKInMeetingServiceMgrEvent@@@Z 0000000140029e70 f i sdk_util.obj
 0001:00028e70       ??$_Eqrange@PEAVIMeetingParticipantsCtrlEvent@ZOOMSDK@@@?$_Tree@V?$_Tset_traits@PEAVIMeetingParticipantsCtrlEvent@ZOOMSDK@@U?$less@PEAVIMeetingParticipantsCtrlEvent@ZOOMSDK@@@std@@V?$allocator@PEAVIMeetingParticipantsCtrlEvent@ZOOMSDK@@@4@$0A@@std@@@std@@IEBA?AU?$pair@PEAU?$_Tree_node@PEAVIMeetingParticipantsCtrlEvent@ZOOMSDK@@PEAX@std@@PEAU12@@1@AEBQEAVIMeetingParticipantsCtrlEvent@ZOOMSDK@@@Z 0000000140029e70 f i sdk_util.obj
 0001:00028e70       ??$_Eqrange@PEAVIMeetingVideoCtrlEvent@ZOOMSDK@@@?$_Tree@V?$_Tset_traits@PEAVIMeetingVideoCtrlEvent@ZOOMSDK@@U?$less@PEAVIMeetingVideoCtrlEvent@ZOOMSDK@@@std@@V?$allocator@PEAVIMeetingVideoCtrlEvent@ZOOMSDK@@@4@$0A@@std@@@std@@IEBA?AU?$pair@PEAU?$_Tree_node@PEAVIMeetingVideoCtrlEvent@ZOOMSDK@@PEAX@std@@PEAU12@@1@AEBQEAVIMeetingVideoCtrlEvent@ZOOMSDK@@@Z 0000000140029e70 f i sdk_util.obj
 0001:00028e70       ??$_Eqrange@PEAVIMeetingServiceEvent@ZOOMSDK@@@?$_Tree@V?$_Tset_traits@PEAVIMeetingServiceEvent@ZOOMSDK@@U?$less@PEAVIMeetingServiceEvent@ZOOMSDK@@@std@@V?$allocator@PEAVIMeetingServiceEvent@ZOOMSDK@@@4@$0A@@std@@@std@@IEBA?AU?$pair@PEAU?$_Tree_node@PEAVIMeetingServiceEvent@ZOOMSDK@@PEAX@std@@PEAU12@@1@AEBQEAVIMeetingServiceEvent@ZOOMSDK@@@Z 0000000140029e70 f i sdk_util.obj
 0001:00028e70       ??$_Eqrange@PEAVIAuthServiceEvent@ZOOMSDK@@@?$_Tree@V?$_Tset_traits@PEAVIAuthServiceEvent@ZOOMSDK@@U?$less@PEAVIAuthServiceEvent@ZOOMSDK@@@std@@V?$allocator@PEAVIAuthServiceEvent@ZOOMSDK@@@4@$0A@@std@@@std@@IEBA?AU?$pair@PEAU?$_Tree_node@PEAVIAuthServiceEvent@ZOOMSDK@@PEAX@std@@PEAU12@@1@AEBQEAVIAuthServiceEvent@ZOOMSDK@@@Z 0000000140029e70 f i sdk_util.obj
 0001:00029040       ??$_Erase_head@V?$allocator@U?$_Tree_node@PEAVIMeetingVideoCtrlEvent@ZOOMSDK@@PEAX@std@@@std@@@?$_Tree_val@U?$_Tree_simple_types@PEAVIMeetingVideoCtrlEvent@ZOOMSDK@@@std@@@std@@QEAAXAEAV?$allocator@U?$_Tree_node@PEAVIMeetingVideoCtrlEvent@ZOOMSDK@@PEAX@std@@@1@@Z 000000014002a040 f i sdk_util.obj
 0001:00029040       ??$_Erase_head@V?$allocator@U?$_Tree_node@PEAVIMeetingChatCtrlEvent@ZOOMSDK@@PEAX@std@@@std@@@?$_Tree_val@U?$_Tree_simple_types@PEAVIMeetingChatCtrlEvent@ZOOMSDK@@@std@@@std@@QEAAXAEAV?$allocator@U?$_Tree_node@PEAVIMeetingChatCtrlEvent@ZOOMSDK@@PEAX@std@@@1@@Z 000000014002a040 f i sdk_util.obj
 0001:00029040       ??$_Erase_head@V?$allocator@U?$_Tree_node@PEAVIMeetingServiceEvent@ZOOMSDK@@PEAX@std@@@std@@@?$_Tree_val@U?$_Tree_simple_types@PEAVIMeetingServiceEvent@ZOOMSDK@@@std@@@std@@QEAAXAEAV?$allocator@U?$_Tree_node@PEAVIMeetingServiceEvent@ZOOMSDK@@PEAX@std@@@1@@Z 000000014002a040 f i sdk_util.obj
 0001:00029040       ??$_Erase_head@V?$allocator@U?$_Tree_node@PEAVIClosedCaptionControllerEvent@ZOOMSDK@@PEAX@std@@@std@@@?$_Tree_val@U?$_Tree_simple_types@PEAVIClosedCaptionControllerEvent@ZOOMSDK@@@std@@@std@@QEAAXAEAV?$allocator@U?$_Tree_node@PEAVIClosedCaptionControllerEvent@ZOOMSDK@@PEAX@std@@@1@@Z 000000014002a040 f i sdk_util.obj
 0001:00029040       ??$_Erase_head@V?$allocator@U?$_Tree_node@PEAVISDKInMeetingServiceMgrEvent@@PEAX@std@@@std@@@?$_Tree_val@U?$_Tree_simple_types@PEAVISDKInMeetingServiceMgrEvent@@@std@@@std@@QEAAXAEAV?$allocator@U?$_Tree_node@PEAVISDKInMeetingServiceMgrEvent@@PEAX@std@@@1@@Z 000000014002a040 f i sdk_util.obj
 0001:00029040       ??$_Erase_head@V?$allocator@U?$_Tree_node@PEAVIMeetingParticipantsCtrlEvent@ZOOMSDK@@PEAX@std@@@std@@@?$_Tree_val@U?$_Tree_simple_types@PEAVIMeetingParticipantsCtrlEvent@ZOOMSDK@@@std@@@std@@QEAAXAEAV?$allocator@U?$_Tree_node@PEAVIMeetingParticipantsCtrlEvent@ZOOMSDK@@PEAX@std@@@1@@Z 000000014002a040 f i sdk_util.obj
 0001:00029040       ??$_Erase_head@V?$allocator@U?$_Tree_node@PEAVIAuthServiceEvent@ZOOMSDK@@PEAX@std@@@std@@@?$_Tree_val@U?$_Tree_simple_types@PEAVIAuthServiceEvent@ZOOMSDK@@@std@@@std@@QEAAXAEAV?$allocator@U?$_Tree_node@PEAVIAuthServiceEvent@ZOOMSDK@@PEAX@std@@@1@@Z 000000014002a040 f i sdk_util.obj
 0001:00029090       ??$_Erase_tree@V?$allocator@U?$_Tree_node@PEAVIMeetingServiceEvent@ZOOMSDK@@PEAX@std@@@std@@@?$_Tree_val@U?$_Tree_simple_types@PEAVIMeetingServiceEvent@ZOOMSDK@@@std@@@std@@QEAAXAEAV?$allocator@U?$_Tree_node@PEAVIMeetingServiceEvent@ZOOMSDK@@PEAX@std@@@1@PEAU?$_Tree_node@PEAVIMeetingServiceEvent@ZOOMSDK@@PEAX@1@@Z 000000014002a090 f i sdk_util.obj
 0001:00029090       ??$_Erase_tree@V?$allocator@U?$_Tree_node@PEAVIMeetingParticipantsCtrlEvent@ZOOMSDK@@PEAX@std@@@std@@@?$_Tree_val@U?$_Tree_simple_types@PEAVIMeetingParticipantsCtrlEvent@ZOOMSDK@@@std@@@std@@QEAAXAEAV?$allocator@U?$_Tree_node@PEAVIMeetingParticipantsCtrlEvent@ZOOMSDK@@PEAX@std@@@1@PEAU?$_Tree_node@PEAVIMeetingParticipantsCtrlEvent@ZOOMSDK@@PEAX@1@@Z 000000014002a090 f i sdk_util.obj
 0001:00029090       ??$_Erase_tree@V?$allocator@U?$_Tree_node@PEAVIMeetingChatCtrlEvent@ZOOMSDK@@PEAX@std@@@std@@@?$_Tree_val@U?$_Tree_simple_types@PEAVIMeetingChatCtrlEvent@ZOOMSDK@@@std@@@std@@QEAAXAEAV?$allocator@U?$_Tree_node@PEAVIMeetingChatCtrlEvent@ZOOMSDK@@PEAX@std@@@1@PEAU?$_Tree_node@PEAVIMeetingChatCtrlEvent@ZOOMSDK@@PEAX@1@@Z 000000014002a090 f i sdk_util.obj
 0001:00029090       ??$_Erase_tree@V?$allocator@U?$_Tree_node@PEAVIClosedCaptionControllerEvent@ZOOMSDK@@PEAX@std@@@std@@@?$_Tree_val@U?$_Tree_simple_types@PEAVIClosedCaptionControllerEvent@ZOOMSDK@@@std@@@std@@QEAAXAEAV?$allocator@U?$_Tree_node@PEAVIClosedCaptionControllerEvent@ZOOMSDK@@PEAX@std@@@1@PEAU?$_Tree_node@PEAVIClosedCaptionControllerEvent@ZOOMSDK@@PEAX@1@@Z 000000014002a090 f i sdk_util.obj
 0001:00029090       ??$_Erase_tree@V?$allocator@U?$_Tree_node@PEAVIMeetingVideoCtrlEvent@ZOOMSDK@@PEAX@std@@@std@@@?$_Tree_val@U?$_Tree_simple_types@PEAVIMeetingVideoCtrlEvent@ZOOMSDK@@@std@@@std@@QEAAXAEAV?$allocator@U?$_Tree_node@PEAVIMeetingVideoCtrlEvent@ZOOMSDK@@PEAX@std@@@1@PEAU?$_Tree_node@PEAVIMeetingVideoCtrlEvent@ZOOMSDK@@PEAX@1@@Z 000000014002a090 f i sdk_util.obj
 0001:00029090       ??$_Erase_tree@V?$allocator@U?$_Tree_node@PEAVISDKInMeetingServiceMgrEvent@@PEAX@std@@@std@@@?$_Tree_val@U?$_Tree_simple_types@PEAVISDKInMeetingServiceMgrEvent@@@std@@@std@@QEAAXAEAV?$allocator@U?$_Tree_node@PEAVISDKInMeetingServiceMgrEvent@@PEAX@std@@@1@PEAU?$_Tree_node@PEAVISDKInMeetingServiceMgrEvent@@PEAX@1@@Z 000000014002a090 f i sdk_util.obj
 0001:00029090       ??$_Erase_tree@V?$allocator@U?$_Tree_node@PEAVIAuthServiceEvent@ZOOMSDK@@PEAX@std@@@std@@@?$_Tree_val@U?$_Tree_simple_types@PEAVIAuthServiceEvent@ZOOMSDK@@@std@@@std@@QEAAXAEAV?$allocator@U?$_Tree_node@PEAVIAuthServiceEvent@ZOOMSDK@@PEAX@std@@@1@PEAU?$_Tree_node@PEAVIAuthServiceEvent@ZOOMSDK@@PEAX@1@@Z 000000014002a090 f i sdk_util.obj
 0001:000290f0       ??$_Find_hint@PEAVIMeetingVideoCtrlEvent@ZOOMSDK@@@?$_Tree@V?$_Tset_traits@PEAVIMeetingVideoCtrlEvent@ZOOMSDK@@U?$less@PEAVIMeetingVideoCtrlEvent@ZOOMSDK@@@std@@V?$allocator@PEAVIMeetingVideoCtrlEvent@ZOOMSDK@@@4@$0A@@std@@@std@@IEBA?AU?$_Tree_find_hint_result@PEAU?$_Tree_node@PEAVIMeetingVideoCtrlEvent@ZOOMSDK@@PEAX@std@@@1@QEAU?$_Tree_node@PEAVIMeetingVideoCtrlEvent@ZOOMSDK@@PEAX@1@AEBQEAVIMeetingVideoCtrlEvent@ZOOMSDK@@@Z 000000014002a0f0 f i sdk_util.obj
 0001:000290f0       ??$_Find_hint@PEAVIAuthServiceEvent@ZOOMSDK@@@?$_Tree@V?$_Tset_traits@PEAVIAuthServiceEvent@ZOOMSDK@@U?$less@PEAVIAuthServiceEvent@ZOOMSDK@@@std@@V?$allocator@PEAVIAuthServiceEvent@ZOOMSDK@@@4@$0A@@std@@@std@@IEBA?AU?$_Tree_find_hint_result@PEAU?$_Tree_node@PEAVIAuthServiceEvent@ZOOMSDK@@PEAX@std@@@1@QEAU?$_Tree_node@PEAVIAuthServiceEvent@ZOOMSDK@@PEAX@1@AEBQEAVIAuthServiceEvent@ZOOMSDK@@@Z 000000014002a0f0 f i sdk_util.obj
 0001:000290f0       ??$_Find_hint@PEAVIMeetingServiceEvent@ZOOMSDK@@@?$_Tree@V?$_Tset_traits@PEAVIMeetingServiceEvent@ZOOMSDK@@U?$less@PEAVIMeetingServiceEvent@ZOOMSDK@@@std@@V?$allocator@PEAVIMeetingServiceEvent@ZOOMSDK@@@4@$0A@@std@@@std@@IEBA?AU?$_Tree_find_hint_result@PEAU?$_Tree_node@PEAVIMeetingServiceEvent@ZOOMSDK@@PEAX@std@@@1@QEAU?$_Tree_node@PEAVIMeetingServiceEvent@ZOOMSDK@@PEAX@1@AEBQEAVIMeetingServiceEvent@ZOOMSDK@@@Z 000000014002a0f0 f i sdk_util.obj
 0001:000290f0       ??$_Find_hint@PEAVISDKInMeetingServiceMgrEvent@@@?$_Tree@V?$_Tset_traits@PEAVISDKInMeetingServiceMgrEvent@@U?$less@PEAVISDKInMeetingServiceMgrEvent@@@std@@V?$allocator@PEAVISDKInMeetingServiceMgrEvent@@@3@$0A@@std@@@std@@IEBA?AU?$_Tree_find_hint_result@PEAU?$_Tree_node@PEAVISDKInMeetingServiceMgrEvent@@PEAX@std@@@1@QEAU?$_Tree_node@PEAVISDKInMeetingServiceMgrEvent@@PEAX@1@AEBQEAVISDKInMeetingServiceMgrEvent@@@Z 000000014002a0f0 f i sdk_util.obj
 0001:000290f0       ??$_Find_hint@PEAVIClosedCaptionControllerEvent@ZOOMSDK@@@?$_Tree@V?$_Tset_traits@PEAVIClosedCaptionControllerEvent@ZOOMSDK@@U?$less@PEAVIClosedCaptionControllerEvent@ZOOMSDK@@@std@@V?$allocator@PEAVIClosedCaptionControllerEvent@ZOOMSDK@@@4@$0A@@std@@@std@@IEBA?AU?$_Tree_find_hint_result@PEAU?$_Tree_node@PEAVIClosedCaptionControllerEvent@ZOOMSDK@@PEAX@std@@@1@QEAU?$_Tree_node@PEAVIClosedCaptionControllerEvent@ZOOMSDK@@PEAX@1@AEBQEAVIClosedCaptionControllerEvent@ZOOMSDK@@@Z 000000014002a0f0 f i sdk_util.obj
 0001:000290f0       ??$_Find_hint@PEAVIMeetingParticipantsCtrlEvent@ZOOMSDK@@@?$_Tree@V?$_Tset_traits@PEAVIMeetingParticipantsCtrlEvent@ZOOMSDK@@U?$less@PEAVIMeetingParticipantsCtrlEvent@ZOOMSDK@@@std@@V?$allocator@PEAVIMeetingParticipantsCtrlEvent@ZOOMSDK@@@4@$0A@@std@@@std@@IEBA?AU?$_Tree_find_hint_result@PEAU?$_Tree_node@PEAVIMeetingParticipantsCtrlEvent@ZOOMSDK@@PEAX@std@@@1@QEAU?$_Tree_node@PEAVIMeetingParticipantsCtrlEvent@ZOOMSDK@@PEAX@1@AEBQEAVIMeetingParticipantsCtrlEvent@ZOOMSDK@@@Z 000000014002a0f0 f i sdk_util.obj
 0001:000290f0       ??$_Find_hint@PEAVIMeetingChatCtrlEvent@ZOOMSDK@@@?$_Tree@V?$_Tset_traits@PEAVIMeetingChatCtrlEvent@ZOOMSDK@@U?$less@PEAVIMeetingChatCtrlEvent@ZOOMSDK@@@std@@V?$allocator@PEAVIMeetingChatCtrlEvent@ZOOMSDK@@@4@$0A@@std@@@std@@IEBA?AU?$_Tree_find_hint_result@PEAU?$_Tree_node@PEAVIMeetingChatCtrlEvent@ZOOMSDK@@PEAX@std@@@1@QEAU?$_Tree_node@PEAVIMeetingChatCtrlEvent@ZOOMSDK@@PEAX@1@AEBQEAVIMeetingChatCtrlEvent@ZOOMSDK@@@Z 000000014002a0f0 f i sdk_util.obj
 0001:00029560       ??$_Find_lower_bound@PEAVIMeetingChatCtrlEvent@ZOOMSDK@@@?$_Tree@V?$_Tset_traits@PEAVIMeetingChatCtrlEvent@ZOOMSDK@@U?$less@PEAVIMeetingChatCtrlEvent@ZOOMSDK@@@std@@V?$allocator@PEAVIMeetingChatCtrlEvent@ZOOMSDK@@@4@$0A@@std@@@std@@IEBA?AU?$_Tree_find_result@PEAU?$_Tree_node@PEAVIMeetingChatCtrlEvent@ZOOMSDK@@PEAX@std@@@1@AEBQEAVIMeetingChatCtrlEvent@ZOOMSDK@@@Z 000000014002a560 f i sdk_util.obj
 0001:00029560       ??$_Find_lower_bound@PEAVISDKInMeetingServiceMgrEvent@@@?$_Tree@V?$_Tset_traits@PEAVISDKInMeetingServiceMgrEvent@@U?$less@PEAVISDKInMeetingServiceMgrEvent@@@std@@V?$allocator@PEAVISDKInMeetingServiceMgrEvent@@@3@$0A@@std@@@std@@IEBA?AU?$_Tree_find_result@PEAU?$_Tree_node@PEAVISDKInMeetingServiceMgrEvent@@PEAX@std@@@1@AEBQEAVISDKInMeetingServiceMgrEvent@@@Z 000000014002a560 f i sdk_util.obj
 0001:00029560       ??$_Find_lower_bound@PEAVIAuthServiceEvent@ZOOMSDK@@@?$_Tree@V?$_Tset_traits@PEAVIAuthServiceEvent@ZOOMSDK@@U?$less@PEAVIAuthServiceEvent@ZOOMSDK@@@std@@V?$allocator@PEAVIAuthServiceEvent@ZOOMSDK@@@4@$0A@@std@@@std@@IEBA?AU?$_Tree_find_result@PEAU?$_Tree_node@PEAVIAuthServiceEvent@ZOOMSDK@@PEAX@std@@@1@AEBQEAVIAuthServiceEvent@ZOOMSDK@@@Z 000000014002a560 f i sdk_util.obj
 0001:00029560       ??$_Find_lower_bound@PEAVIClosedCaptionControllerEvent@ZOOMSDK@@@?$_Tree@V?$_Tset_traits@PEAVIClosedCaptionControllerEvent@ZOOMSDK@@U?$less@PEAVIClosedCaptionControllerEvent@ZOOMSDK@@@std@@V?$allocator@PEAVIClosedCaptionControllerEvent@ZOOMSDK@@@4@$0A@@std@@@std@@IEBA?AU?$_Tree_find_result@PEAU?$_Tree_node@PEAVIClosedCaptionControllerEvent@ZOOMSDK@@PEAX@std@@@1@AEBQEAVIClosedCaptionControllerEvent@ZOOMSDK@@@Z 000000014002a560 f i sdk_util.obj
 0001:00029560       ??$_Find_lower_bound@PEAVIMeetingVideoCtrlEvent@ZOOMSDK@@@?$_Tree@V?$_Tset_traits@PEAVIMeetingVideoCtrlEvent@ZOOMSDK@@U?$less@PEAVIMeetingVideoCtrlEvent@ZOOMSDK@@@std@@V?$allocator@PEAVIMeetingVideoCtrlEvent@ZOOMSDK@@@4@$0A@@std@@@std@@IEBA?AU?$_Tree_find_result@PEAU?$_Tree_node@PEAVIMeetingVideoCtrlEvent@ZOOMSDK@@PEAX@std@@@1@AEBQEAVIMeetingVideoCtrlEvent@ZOOMSDK@@@Z 000000014002a560 f i sdk_util.obj
 0001:00029560       ??$_Find_lower_bound@PEAVIMeetingServiceEvent@ZOOMSDK@@@?$_Tree@V?$_Tset_traits@PEAVIMeetingServiceEvent@ZOOMSDK@@U?$less@PEAVIMeetingServiceEvent@ZOOMSDK@@@std@@V?$allocator@PEAVIMeetingServiceEvent@ZOOMSDK@@@4@$0A@@std@@@std@@IEBA?AU?$_Tree_find_result@PEAU?$_Tree_node@PEAVIMeetingServiceEvent@ZOOMSDK@@PEAX@std@@@1@AEBQEAVIMeetingServiceEvent@ZOOMSDK@@@Z 000000014002a560 f i sdk_util.obj
 0001:00029560       ??$_Find_lower_bound@PEAVIMeetingParticipantsCtrlEvent@ZOOMSDK@@@?$_Tree@V?$_Tset_traits@PEAVIMeetingParticipantsCtrlEvent@ZOOMSDK@@U?$less@PEAVIMeetingParticipantsCtrlEvent@ZOOMSDK@@@std@@V?$allocator@PEAVIMeetingParticipantsCtrlEvent@ZOOMSDK@@@4@$0A@@std@@@std@@IEBA?AU?$_Tree_find_result@PEAU?$_Tree_node@PEAVIMeetingParticipantsCtrlEvent@ZOOMSDK@@PEAX@std@@@1@AEBQEAVIMeetingParticipantsCtrlEvent@ZOOMSDK@@@Z 000000014002a560 f i sdk_util.obj
 0001:00029670       ??$_Freenode0@V?$allocator@U?$_Tree_node@PEAVIMeetingChatCtrlEvent@ZOOMSDK@@PEAX@std@@@std@@@?$_Tree_node@PEAVIMeetingChatCtrlEvent@ZOOMSDK@@PEAX@std@@SAXAEAV?$allocator@U?$_Tree_node@PEAVIMeetingChatCtrlEvent@ZOOMSDK@@PEAX@std@@@1@PEAU01@@Z 000000014002a670 f i sdk_util.obj
 0001:00029670       ??$_Freenode0@V?$allocator@U?$_Tree_node@PEAVISDKInMeetingServiceMgrEvent@@PEAX@std@@@std@@@?$_Tree_node@PEAVISDKInMeetingServiceMgrEvent@@PEAX@std@@SAXAEAV?$allocator@U?$_Tree_node@PEAVISDKInMeetingServiceMgrEvent@@PEAX@std@@@1@PEAU01@@Z 000000014002a670 f i sdk_util.obj
 0001:00029670       ??$_Freenode0@V?$allocator@U?$_Tree_node@PEAVIMeetingServiceEvent@ZOOMSDK@@PEAX@std@@@std@@@?$_Tree_node@PEAVIMeetingServiceEvent@ZOOMSDK@@PEAX@std@@SAXAEAV?$allocator@U?$_Tree_node@PEAVIMeetingServiceEvent@ZOOMSDK@@PEAX@std@@@1@PEAU01@@Z 000000014002a670 f i sdk_util.obj
 0001:00029670       ??$_Freenode0@V?$allocator@U?$_Tree_node@PEAVIMeetingVideoCtrlEvent@ZOOMSDK@@PEAX@std@@@std@@@?$_Tree_node@PEAVIMeetingVideoCtrlEvent@ZOOMSDK@@PEAX@std@@SAXAEAV?$allocator@U?$_Tree_node@PEAVIMeetingVideoCtrlEvent@ZOOMSDK@@PEAX@std@@@1@PEAU01@@Z 000000014002a670 f i sdk_util.obj
 0001:00029670       ??$_Freenode0@V?$allocator@U?$_Tree_node@PEAVIClosedCaptionControllerEvent@ZOOMSDK@@PEAX@std@@@std@@@?$_Tree_node@PEAVIClosedCaptionControllerEvent@ZOOMSDK@@PEAX@std@@SAXAEAV?$allocator@U?$_Tree_node@PEAVIClosedCaptionControllerEvent@ZOOMSDK@@PEAX@std@@@1@PEAU01@@Z 000000014002a670 f i sdk_util.obj
 0001:00029670       ??$_Freenode0@V?$allocator@U?$_Tree_node@U?$pair@$$CBHW4bkItemType@@@std@@PEAX@std@@@std@@@?$_Tree_node@U?$pair@$$CBHW4bkItemType@@@std@@PEAX@std@@SAXAEAV?$allocator@U?$_Tree_node@U?$pair@$$CBHW4bkItemType@@@std@@PEAX@std@@@1@PEAU01@@Z 000000014002a670 f i settings_ui.obj
 0001:00029670       ??$_Freenode0@V?$allocator@U?$_Tree_node@PEAVIMeetingParticipantsCtrlEvent@ZOOMSDK@@PEAX@std@@@std@@@?$_Tree_node@PEAVIMeetingParticipantsCtrlEvent@ZOOMSDK@@PEAX@std@@SAXAEAV?$allocator@U?$_Tree_node@PEAVIMeetingParticipantsCtrlEvent@ZOOMSDK@@PEAX@std@@@1@PEAU01@@Z 000000014002a670 f i sdk_util.obj
 0001:00029670       ??$_Freenode0@V?$allocator@U?$_Tree_node@PEAVIAuthServiceEvent@ZOOMSDK@@PEAX@std@@@std@@@?$_Tree_node@PEAVIAuthServiceEvent@ZOOMSDK@@PEAX@std@@SAXAEAV?$allocator@U?$_Tree_node@PEAVIAuthServiceEvent@ZOOMSDK@@PEAX@std@@@1@PEAU01@@Z 000000014002a670 f i sdk_util.obj
 0001:000296d0       ??$_Freenode@V?$allocator@U?$_Tree_node@PEAVIMeetingChatCtrlEvent@ZOOMSDK@@PEAX@std@@@std@@@?$_Tree_node@PEAVIMeetingChatCtrlEvent@ZOOMSDK@@PEAX@std@@SAXAEAV?$allocator@U?$_Tree_node@PEAVIMeetingChatCtrlEvent@ZOOMSDK@@PEAX@std@@@1@PEAU01@@Z 000000014002a6d0 f i sdk_util.obj
 0001:000296d0       ??$_Freenode@V?$allocator@U?$_Tree_node@PEAVIClosedCaptionControllerEvent@ZOOMSDK@@PEAX@std@@@std@@@?$_Tree_node@PEAVIClosedCaptionControllerEvent@ZOOMSDK@@PEAX@std@@SAXAEAV?$allocator@U?$_Tree_node@PEAVIClosedCaptionControllerEvent@ZOOMSDK@@PEAX@std@@@1@PEAU01@@Z 000000014002a6d0 f i sdk_util.obj
 0001:000296d0       ??$_Freenode@V?$allocator@U?$_Tree_node@PEAVIMeetingParticipantsCtrlEvent@ZOOMSDK@@PEAX@std@@@std@@@?$_Tree_node@PEAVIMeetingParticipantsCtrlEvent@ZOOMSDK@@PEAX@std@@SAXAEAV?$allocator@U?$_Tree_node@PEAVIMeetingParticipantsCtrlEvent@ZOOMSDK@@PEAX@std@@@1@PEAU01@@Z 000000014002a6d0 f i sdk_util.obj
 0001:000296d0       ??$_Freenode@V?$allocator@U?$_Tree_node@PEAVIMeetingServiceEvent@ZOOMSDK@@PEAX@std@@@std@@@?$_Tree_node@PEAVIMeetingServiceEvent@ZOOMSDK@@PEAX@std@@SAXAEAV?$allocator@U?$_Tree_node@PEAVIMeetingServiceEvent@ZOOMSDK@@PEAX@std@@@1@PEAU01@@Z 000000014002a6d0 f i sdk_util.obj
 0001:000296d0       ??$_Freenode@V?$allocator@U?$_Tree_node@PEAVIAuthServiceEvent@ZOOMSDK@@PEAX@std@@@std@@@?$_Tree_node@PEAVIAuthServiceEvent@ZOOMSDK@@PEAX@std@@SAXAEAV?$allocator@U?$_Tree_node@PEAVIAuthServiceEvent@ZOOMSDK@@PEAX@std@@@1@PEAU01@@Z 000000014002a6d0 f i sdk_util.obj
 0001:000296d0       ??$_Freenode@V?$allocator@U?$_Tree_node@PEAVIMeetingVideoCtrlEvent@ZOOMSDK@@PEAX@std@@@std@@@?$_Tree_node@PEAVIMeetingVideoCtrlEvent@ZOOMSDK@@PEAX@std@@SAXAEAV?$allocator@U?$_Tree_node@PEAVIMeetingVideoCtrlEvent@ZOOMSDK@@PEAX@std@@@1@PEAU01@@Z 000000014002a6d0 f i sdk_util.obj
 0001:000296d0       ??$_Freenode@V?$allocator@U?$_Tree_node@PEAVISDKInMeetingServiceMgrEvent@@PEAX@std@@@std@@@?$_Tree_node@PEAVISDKInMeetingServiceMgrEvent@@PEAX@std@@SAXAEAV?$allocator@U?$_Tree_node@PEAVISDKInMeetingServiceMgrEvent@@PEAX@std@@@1@PEAU01@@Z 000000014002a6d0 f i sdk_util.obj
 0001:00029720       ??$_Get_size_of_n@$0CI@@std@@YA_K_K@Z 000000014002a720 f i sdk_util.obj
 0001:00029760       ??$_Get_unwrapped@AEAV?$_Tree_const_iterator@V?$_Tree_val@U?$_Tree_simple_types@PEAVIClosedCaptionControllerEvent@ZOOMSDK@@@std@@@std@@@std@@@std@@YA?A_TAEAV?$_Tree_const_iterator@V?$_Tree_val@U?$_Tree_simple_types@PEAVIClosedCaptionControllerEvent@ZOOMSDK@@@std@@@std@@@0@@Z 000000014002a760 f i sdk_util.obj
 0001:00029760       ??$_Get_unwrapped@AEAV?$_Tree_const_iterator@V?$_Tree_val@U?$_Tree_simple_types@PEAVISDKInMeetingServiceMgrEvent@@@std@@@std@@@std@@@std@@YA?A_TAEAV?$_Tree_const_iterator@V?$_Tree_val@U?$_Tree_simple_types@PEAVISDKInMeetingServiceMgrEvent@@@std@@@std@@@0@@Z 000000014002a760 f i sdk_util.obj
 0001:00029760       ??$_Get_unwrapped@AEAV?$_Tree_const_iterator@V?$_Tree_val@U?$_Tree_simple_types@PEAVIMeetingChatCtrlEvent@ZOOMSDK@@@std@@@std@@@std@@@std@@YA?A_TAEAV?$_Tree_const_iterator@V?$_Tree_val@U?$_Tree_simple_types@PEAVIMeetingChatCtrlEvent@ZOOMSDK@@@std@@@std@@@0@@Z 000000014002a760 f i sdk_util.obj
 0001:00029760       ??$_Get_unwrapped@AEAV?$_Tree_const_iterator@V?$_Tree_val@U?$_Tree_simple_types@PEAVIAuthServiceEvent@ZOOMSDK@@@std@@@std@@@std@@@std@@YA?A_TAEAV?$_Tree_const_iterator@V?$_Tree_val@U?$_Tree_simple_types@PEAVIAuthServiceEvent@ZOOMSDK@@@std@@@std@@@0@@Z 000000014002a760 f i sdk_util.obj
 0001:00029760       ??$_Get_unwrapped@AEAV?$_Tree_const_iterator@V?$_Tree_val@U?$_Tree_simple_types@PEAVIMeetingParticipantsCtrlEvent@ZOOMSDK@@@std@@@std@@@std@@@std@@YA?A_TAEAV?$_Tree_const_iterator@V?$_Tree_val@U?$_Tree_simple_types@PEAVIMeetingParticipantsCtrlEvent@ZOOMSDK@@@std@@@std@@@0@@Z 000000014002a760 f i sdk_util.obj
 0001:00029760       ??$_Get_unwrapped@AEAV?$_Tree_const_iterator@V?$_Tree_val@U?$_Tree_simple_types@PEAVIMeetingServiceEvent@ZOOMSDK@@@std@@@std@@@std@@@std@@YA?A_TAEAV?$_Tree_const_iterator@V?$_Tree_val@U?$_Tree_simple_types@PEAVIMeetingServiceEvent@ZOOMSDK@@@std@@@std@@@0@@Z 000000014002a760 f i sdk_util.obj
 0001:00029760       ??$_Get_unwrapped@AEAV?$_Tree_const_iterator@V?$_Tree_val@U?$_Tree_simple_types@PEAVIMeetingVideoCtrlEvent@ZOOMSDK@@@std@@@std@@@std@@@std@@YA?A_TAEAV?$_Tree_const_iterator@V?$_Tree_val@U?$_Tree_simple_types@PEAVIMeetingVideoCtrlEvent@ZOOMSDK@@@std@@@std@@@0@@Z 000000014002a760 f i sdk_util.obj
 0001:00029790       ??$_Lower_bound_duplicate@PEAVIClosedCaptionControllerEvent@ZOOMSDK@@@?$_Tree@V?$_Tset_traits@PEAVIClosedCaptionControllerEvent@ZOOMSDK@@U?$less@PEAVIClosedCaptionControllerEvent@ZOOMSDK@@@std@@V?$allocator@PEAVIClosedCaptionControllerEvent@ZOOMSDK@@@4@$0A@@std@@@std@@IEBA_NQEAU?$_Tree_node@PEAVIClosedCaptionControllerEvent@ZOOMSDK@@PEAX@1@AEBQEAVIClosedCaptionControllerEvent@ZOOMSDK@@@Z 000000014002a790 f i sdk_util.obj
 0001:00029790       ??$_Lower_bound_duplicate@PEAVIAuthServiceEvent@ZOOMSDK@@@?$_Tree@V?$_Tset_traits@PEAVIAuthServiceEvent@ZOOMSDK@@U?$less@PEAVIAuthServiceEvent@ZOOMSDK@@@std@@V?$allocator@PEAVIAuthServiceEvent@ZOOMSDK@@@4@$0A@@std@@@std@@IEBA_NQEAU?$_Tree_node@PEAVIAuthServiceEvent@ZOOMSDK@@PEAX@1@AEBQEAVIAuthServiceEvent@ZOOMSDK@@@Z 000000014002a790 f i sdk_util.obj
 0001:00029790       ??$_Lower_bound_duplicate@PEAVIMeetingServiceEvent@ZOOMSDK@@@?$_Tree@V?$_Tset_traits@PEAVIMeetingServiceEvent@ZOOMSDK@@U?$less@PEAVIMeetingServiceEvent@ZOOMSDK@@@std@@V?$allocator@PEAVIMeetingServiceEvent@ZOOMSDK@@@4@$0A@@std@@@std@@IEBA_NQEAU?$_Tree_node@PEAVIMeetingServiceEvent@ZOOMSDK@@PEAX@1@AEBQEAVIMeetingServiceEvent@ZOOMSDK@@@Z 000000014002a790 f i sdk_util.obj
 0001:00029790       ??$_Lower_bound_duplicate@PEAVIMeetingChatCtrlEvent@ZOOMSDK@@@?$_Tree@V?$_Tset_traits@PEAVIMeetingChatCtrlEvent@ZOOMSDK@@U?$less@PEAVIMeetingChatCtrlEvent@ZOOMSDK@@@std@@V?$allocator@PEAVIMeetingChatCtrlEvent@ZOOMSDK@@@4@$0A@@std@@@std@@IEBA_NQEAU?$_Tree_node@PEAVIMeetingChatCtrlEvent@ZOOMSDK@@PEAX@1@AEBQEAVIMeetingChatCtrlEvent@ZOOMSDK@@@Z 000000014002a790 f i sdk_util.obj
 0001:00029790       ??$_Lower_bound_duplicate@PEAVIMeetingParticipantsCtrlEvent@ZOOMSDK@@@?$_Tree@V?$_Tset_traits@PEAVIMeetingParticipantsCtrlEvent@ZOOMSDK@@U?$less@PEAVIMeetingParticipantsCtrlEvent@ZOOMSDK@@@std@@V?$allocator@PEAVIMeetingParticipantsCtrlEvent@ZOOMSDK@@@4@$0A@@std@@@std@@IEBA_NQEAU?$_Tree_node@PEAVIMeetingParticipantsCtrlEvent@ZOOMSDK@@PEAX@1@AEBQEAVIMeetingParticipantsCtrlEvent@ZOOMSDK@@@Z 000000014002a790 f i sdk_util.obj
 0001:00029790       ??$_Lower_bound_duplicate@PEAVIMeetingVideoCtrlEvent@ZOOMSDK@@@?$_Tree@V?$_Tset_traits@PEAVIMeetingVideoCtrlEvent@ZOOMSDK@@U?$less@PEAVIMeetingVideoCtrlEvent@ZOOMSDK@@@std@@V?$allocator@PEAVIMeetingVideoCtrlEvent@ZOOMSDK@@@4@$0A@@std@@@std@@IEBA_NQEAU?$_Tree_node@PEAVIMeetingVideoCtrlEvent@ZOOMSDK@@PEAX@1@AEBQEAVIMeetingVideoCtrlEvent@ZOOMSDK@@@Z 000000014002a790 f i sdk_util.obj
 0001:00029790       ??$_Lower_bound_duplicate@PEAVISDKInMeetingServiceMgrEvent@@@?$_Tree@V?$_Tset_traits@PEAVISDKInMeetingServiceMgrEvent@@U?$less@PEAVISDKInMeetingServiceMgrEvent@@@std@@V?$allocator@PEAVISDKInMeetingServiceMgrEvent@@@3@$0A@@std@@@std@@IEBA_NQEAU?$_Tree_node@PEAVISDKInMeetingServiceMgrEvent@@PEAX@1@AEBQEAVISDKInMeetingServiceMgrEvent@@@Z 000000014002a790 f i sdk_util.obj
 0001:00029810       ??$construct@PEAVIVirtualBGImageInfo@ZOOMSDK@@PEAV12@@?$_Default_allocator_traits@V?$allocator@PEAVIVirtualBGImageInfo@ZOOMSDK@@@std@@@std@@SAXAEAV?$allocator@PEAVIVirtualBGImageInfo@ZOOMSDK@@@1@QEAPEAVIVirtualBGImageInfo@ZOOMSDK@@$$QEAPEAV34@@Z 000000014002a810 f i settings_ui.obj
 0001:00029810       ??$construct@PEAVIMeetingVideoCtrlEvent@ZOOMSDK@@AEBQEAV12@@?$_Default_allocator_traits@V?$allocator@U?$_Tree_node@PEAVIMeetingVideoCtrlEvent@ZOOMSDK@@PEAX@std@@@std@@@std@@SAXAEAV?$allocator@U?$_Tree_node@PEAVIMeetingVideoCtrlEvent@ZOOMSDK@@PEAX@std@@@1@QEAPEAVIMeetingVideoCtrlEvent@ZOOMSDK@@AEBQEAV34@@Z 000000014002a810 f i sdk_util.obj
 0001:00029810       ??$construct@PEAVIClosedCaptionControllerEvent@ZOOMSDK@@AEBQEAV12@@?$_Default_allocator_traits@V?$allocator@U?$_Tree_node@PEAVIClosedCaptionControllerEvent@ZOOMSDK@@PEAX@std@@@std@@@std@@SAXAEAV?$allocator@U?$_Tree_node@PEAVIClosedCaptionControllerEvent@ZOOMSDK@@PEAX@std@@@1@QEAPEAVIClosedCaptionControllerEvent@ZOOMSDK@@AEBQEAV34@@Z 000000014002a810 f i sdk_util.obj
 0001:00029810       ??$construct@PEAVIMeetingParticipantsCtrlEvent@ZOOMSDK@@AEBQEAV12@@?$_Default_allocator_traits@V?$allocator@U?$_Tree_node@PEAVIMeetingParticipantsCtrlEvent@ZOOMSDK@@PEAX@std@@@std@@@std@@SAXAEAV?$allocator@U?$_Tree_node@PEAVIMeetingParticipantsCtrlEvent@ZOOMSDK@@PEAX@std@@@1@QEAPEAVIMeetingParticipantsCtrlEvent@ZOOMSDK@@AEBQEAV34@@Z 000000014002a810 f i sdk_util.obj
 0001:00029810       ??$construct@PEAVIUserInfo@ZOOMSDK@@AEBQEAV12@@?$_Default_allocator_traits@V?$allocator@PEAVIUserInfo@ZOOMSDK@@@std@@@std@@SAXAEAV?$allocator@PEAVIUserInfo@ZOOMSDK@@@1@QEAPEAVIUserInfo@ZOOMSDK@@AEBQEAV34@@Z 000000014002a810 f i user_manager.obj
 0001:00029810       ??$construct@PEAVIUserInfo@ZOOMSDK@@PEAV12@@?$_Default_allocator_traits@V?$allocator@PEAVIUserInfo@ZOOMSDK@@@std@@@std@@SAXAEAV?$allocator@PEAVIUserInfo@ZOOMSDK@@@1@QEAPEAVIUserInfo@ZOOMSDK@@$$QEAPEAV34@@Z 000000014002a810 f i user_manager.obj
 0001:00029810       ??$construct@PEAVIMeetingServiceEvent@ZOOMSDK@@AEBQEAV12@@?$_Default_allocator_traits@V?$allocator@U?$_Tree_node@PEAVIMeetingServiceEvent@ZOOMSDK@@PEAX@std@@@std@@@std@@SAXAEAV?$allocator@U?$_Tree_node@PEAVIMeetingServiceEvent@ZOOMSDK@@PEAX@std@@@1@QEAPEAVIMeetingServiceEvent@ZOOMSDK@@AEBQEAV34@@Z 000000014002a810 f i sdk_util.obj
 0001:00029810       ??$construct@PEAVIAuthServiceEvent@ZOOMSDK@@AEBQEAV12@@?$_Default_allocator_traits@V?$allocator@U?$_Tree_node@PEAVIAuthServiceEvent@ZOOMSDK@@PEAX@std@@@std@@@std@@SAXAEAV?$allocator@U?$_Tree_node@PEAVIAuthServiceEvent@ZOOMSDK@@PEAX@std@@@1@QEAPEAVIAuthServiceEvent@ZOOMSDK@@AEBQEAV34@@Z 000000014002a810 f i sdk_util.obj
 0001:00029810       ??$construct@PEAVIMeetingChatCtrlEvent@ZOOMSDK@@AEBQEAV12@@?$_Default_allocator_traits@V?$allocator@U?$_Tree_node@PEAVIMeetingChatCtrlEvent@ZOOMSDK@@PEAX@std@@@std@@@std@@SAXAEAV?$allocator@U?$_Tree_node@PEAVIMeetingChatCtrlEvent@ZOOMSDK@@PEAX@std@@@1@QEAPEAVIMeetingChatCtrlEvent@ZOOMSDK@@AEBQEAV34@@Z 000000014002a810 f i sdk_util.obj
 0001:00029810       ??$construct@PEAVISDKInMeetingServiceMgrEvent@@AEBQEAV1@@?$_Default_allocator_traits@V?$allocator@U?$_Tree_node@PEAVISDKInMeetingServiceMgrEvent@@PEAX@std@@@std@@@std@@SAXAEAV?$allocator@U?$_Tree_node@PEAVISDKInMeetingServiceMgrEvent@@PEAX@std@@@1@QEAPEAVISDKInMeetingServiceMgrEvent@@AEBQEAV3@@Z 000000014002a810 f i sdk_util.obj
 0001:00029810       ??$construct@PEAVIVirtualBGImageInfo@ZOOMSDK@@AEBQEAV12@@?$_Default_allocator_traits@V?$allocator@PEAVIVirtualBGImageInfo@ZOOMSDK@@@std@@@std@@SAXAEAV?$allocator@PEAVIVirtualBGImageInfo@ZOOMSDK@@@1@QEAPEAVIVirtualBGImageInfo@ZOOMSDK@@AEBQEAV34@@Z 000000014002a810 f i settings_ui.obj
 0001:00029860       ??$distance@V?$_Tree_unchecked_const_iterator@V?$_Tree_val@U?$_Tree_simple_types@PEAVIMeetingChatCtrlEvent@ZOOMSDK@@@std@@@std@@U_Iterator_base0@2@@std@@@std@@YA_JV?$_Tree_unchecked_const_iterator@V?$_Tree_val@U?$_Tree_simple_types@PEAVIMeetingChatCtrlEvent@ZOOMSDK@@@std@@@std@@U_Iterator_base0@2@@0@0@Z 000000014002a860 f i sdk_util.obj
 0001:00029860       ??$distance@V?$_Tree_unchecked_const_iterator@V?$_Tree_val@U?$_Tree_simple_types@PEAVIMeetingServiceEvent@ZOOMSDK@@@std@@@std@@U_Iterator_base0@2@@std@@@std@@YA_JV?$_Tree_unchecked_const_iterator@V?$_Tree_val@U?$_Tree_simple_types@PEAVIMeetingServiceEvent@ZOOMSDK@@@std@@@std@@U_Iterator_base0@2@@0@0@Z 000000014002a860 f i sdk_util.obj
 0001:00029860       ??$distance@V?$_Tree_unchecked_const_iterator@V?$_Tree_val@U?$_Tree_simple_types@PEAVIClosedCaptionControllerEvent@ZOOMSDK@@@std@@@std@@U_Iterator_base0@2@@std@@@std@@YA_JV?$_Tree_unchecked_const_iterator@V?$_Tree_val@U?$_Tree_simple_types@PEAVIClosedCaptionControllerEvent@ZOOMSDK@@@std@@@std@@U_Iterator_base0@2@@0@0@Z 000000014002a860 f i sdk_util.obj
 0001:00029860       ??$distance@V?$_Tree_unchecked_const_iterator@V?$_Tree_val@U?$_Tree_simple_types@PEAVIMeetingParticipantsCtrlEvent@ZOOMSDK@@@std@@@std@@U_Iterator_base0@2@@std@@@std@@YA_JV?$_Tree_unchecked_const_iterator@V?$_Tree_val@U?$_Tree_simple_types@PEAVIMeetingParticipantsCtrlEvent@ZOOMSDK@@@std@@@std@@U_Iterator_base0@2@@0@0@Z 000000014002a860 f i sdk_util.obj
 0001:00029860       ??$distance@V?$_Tree_unchecked_const_iterator@V?$_Tree_val@U?$_Tree_simple_types@PEAVIAuthServiceEvent@ZOOMSDK@@@std@@@std@@U_Iterator_base0@2@@std@@@std@@YA_JV?$_Tree_unchecked_const_iterator@V?$_Tree_val@U?$_Tree_simple_types@PEAVIAuthServiceEvent@ZOOMSDK@@@std@@@std@@U_Iterator_base0@2@@0@0@Z 000000014002a860 f i sdk_util.obj
 0001:00029860       ??$distance@V?$_Tree_unchecked_const_iterator@V?$_Tree_val@U?$_Tree_simple_types@PEAVISDKInMeetingServiceMgrEvent@@@std@@@std@@U_Iterator_base0@2@@std@@@std@@YA_JV?$_Tree_unchecked_const_iterator@V?$_Tree_val@U?$_Tree_simple_types@PEAVISDKInMeetingServiceMgrEvent@@@std@@@std@@U_Iterator_base0@2@@0@0@Z 000000014002a860 f i sdk_util.obj
 0001:00029860       ??$distance@V?$_Tree_unchecked_const_iterator@V?$_Tree_val@U?$_Tree_simple_types@PEAVIMeetingVideoCtrlEvent@ZOOMSDK@@@std@@@std@@U_Iterator_base0@2@@std@@@std@@YA_JV?$_Tree_unchecked_const_iterator@V?$_Tree_val@U?$_Tree_simple_types@PEAVIMeetingVideoCtrlEvent@ZOOMSDK@@@std@@@std@@U_Iterator_base0@2@@0@0@Z 000000014002a860 f i sdk_util.obj
 0001:000298f0       ??$exchange@PEAU?$_Tree_node@PEAVIMeetingChatCtrlEvent@ZOOMSDK@@PEAX@std@@$$T@std@@YAPEAU?$_Tree_node@PEAVIMeetingChatCtrlEvent@ZOOMSDK@@PEAX@0@AEAPEAU10@$$QEA$$T@Z 000000014002a8f0 f i sdk_util.obj
 0001:000298f0       ??$exchange@PEAU?$_Tree_node@PEAVIMeetingParticipantsCtrlEvent@ZOOMSDK@@PEAX@std@@AEAPEAU12@@std@@YAPEAU?$_Tree_node@PEAVIMeetingParticipantsCtrlEvent@ZOOMSDK@@PEAX@0@AEAPEAU10@0@Z 000000014002a8f0 f i sdk_util.obj
 0001:000298f0       ??$exchange@PEAU?$_Tree_node@PEAVIClosedCaptionControllerEvent@ZOOMSDK@@PEAX@std@@AEAPEAU12@@std@@YAPEAU?$_Tree_node@PEAVIClosedCaptionControllerEvent@ZOOMSDK@@PEAX@0@AEAPEAU10@0@Z 000000014002a8f0 f i sdk_util.obj
 0001:000298f0       ??$exchange@PEAU?$_Tree_node@PEAVIMeetingServiceEvent@ZOOMSDK@@PEAX@std@@AEAPEAU12@@std@@YAPEAU?$_Tree_node@PEAVIMeetingServiceEvent@ZOOMSDK@@PEAX@0@AEAPEAU10@0@Z 000000014002a8f0 f i sdk_util.obj
 0001:000298f0       ??$exchange@PEAU?$_Tree_node@U?$pair@$$CBHW4bkItemType@@@std@@PEAX@std@@AEAPEAU12@@std@@YAPEAU?$_Tree_node@U?$pair@$$CBHW4bkItemType@@@std@@PEAX@0@AEAPEAU10@0@Z 000000014002a8f0 f i settings_ui.obj
 0001:000298f0       ??$exchange@PEAU?$_Tree_node@PEAVIMeetingVideoCtrlEvent@ZOOMSDK@@PEAX@std@@$$T@std@@YAPEAU?$_Tree_node@PEAVIMeetingVideoCtrlEvent@ZOOMSDK@@PEAX@0@AEAPEAU10@$$QEA$$T@Z 000000014002a8f0 f i sdk_util.obj
 0001:000298f0       ??$exchange@PEAU?$_Tree_node@PEAVIAuthServiceEvent@ZOOMSDK@@PEAX@std@@$$T@std@@YAPEAU?$_Tree_node@PEAVIAuthServiceEvent@ZOOMSDK@@PEAX@0@AEAPEAU10@$$QEA$$T@Z 000000014002a8f0 f i sdk_util.obj
 0001:000298f0       ??$exchange@PEAU?$_Tree_node@PEAVIMeetingParticipantsCtrlEvent@ZOOMSDK@@PEAX@std@@$$T@std@@YAPEAU?$_Tree_node@PEAVIMeetingParticipantsCtrlEvent@ZOOMSDK@@PEAX@0@AEAPEAU10@$$QEA$$T@Z 000000014002a8f0 f i sdk_util.obj
 0001:000298f0       ??$exchange@PEAU?$_Tree_node@U?$pair@$$CBIPEAVIUserInfo@ZOOMSDK@@@std@@PEAX@std@@AEAPEAU12@@std@@YAPEAU?$_Tree_node@U?$pair@$$CBIPEAVIUserInfo@ZOOMSDK@@@std@@PEAX@0@AEAPEAU10@0@Z 000000014002a8f0 f i user_manager.obj
 0001:000298f0       ??$exchange@PEAU?$_Tree_node@PEAVIMeetingServiceEvent@ZOOMSDK@@PEAX@std@@$$T@std@@YAPEAU?$_Tree_node@PEAVIMeetingServiceEvent@ZOOMSDK@@PEAX@0@AEAPEAU10@$$QEA$$T@Z 000000014002a8f0 f i sdk_util.obj
 0001:000298f0       ??$exchange@PEAU?$_Tree_node@PEAVIAuthServiceEvent@ZOOMSDK@@PEAX@std@@AEAPEAU12@@std@@YAPEAU?$_Tree_node@PEAVIAuthServiceEvent@ZOOMSDK@@PEAX@0@AEAPEAU10@0@Z 000000014002a8f0 f i sdk_util.obj
 0001:000298f0       ??$exchange@PEAU?$_Tree_node@PEAVIClosedCaptionControllerEvent@ZOOMSDK@@PEAX@std@@$$T@std@@YAPEAU?$_Tree_node@PEAVIClosedCaptionControllerEvent@ZOOMSDK@@PEAX@0@AEAPEAU10@$$QEA$$T@Z 000000014002a8f0 f i sdk_util.obj
 0001:000298f0       ??$exchange@PEAU?$_Tree_node@PEAVIMeetingChatCtrlEvent@ZOOMSDK@@PEAX@std@@AEAPEAU12@@std@@YAPEAU?$_Tree_node@PEAVIMeetingChatCtrlEvent@ZOOMSDK@@PEAX@0@AEAPEAU10@0@Z 000000014002a8f0 f i sdk_util.obj
 0001:000298f0       ??$exchange@PEAU?$_Tree_node@PEAVISDKInMeetingServiceMgrEvent@@PEAX@std@@$$T@std@@YAPEAU?$_Tree_node@PEAVISDKInMeetingServiceMgrEvent@@PEAX@0@AEAPEAU10@$$QEA$$T@Z 000000014002a8f0 f i sdk_util.obj
 0001:000298f0       ??$exchange@PEAU?$_Tree_node@U?$pair@$$CBIPEAVIUserInfo@ZOOMSDK@@@std@@PEAX@std@@$$T@std@@YAPEAU?$_Tree_node@U?$pair@$$CBIPEAVIUserInfo@ZOOMSDK@@@std@@PEAX@0@AEAPEAU10@$$QEA$$T@Z 000000014002a8f0 f i user_manager.obj
 0001:000298f0       ??$exchange@PEAU?$_Tree_node@U?$pair@$$CBHW4bkItemType@@@std@@PEAX@std@@$$T@std@@YAPEAU?$_Tree_node@U?$pair@$$CBHW4bkItemType@@@std@@PEAX@0@AEAPEAU10@$$QEA$$T@Z 000000014002a8f0 f i settings_ui.obj
 0001:000298f0       ??$exchange@PEAU?$_Tree_node@PEAVIMeetingVideoCtrlEvent@ZOOMSDK@@PEAX@std@@AEAPEAU12@@std@@YAPEAU?$_Tree_node@PEAVIMeetingVideoCtrlEvent@ZOOMSDK@@PEAX@0@AEAPEAU10@0@Z 000000014002a8f0 f i sdk_util.obj
 0001:000298f0       ??$exchange@PEAU?$_Tree_node@PEAVISDKInMeetingServiceMgrEvent@@PEAX@std@@AEAPEAU12@@std@@YAPEAU?$_Tree_node@PEAVISDKInMeetingServiceMgrEvent@@PEAX@0@AEAPEAU10@0@Z 000000014002a8f0 f i sdk_util.obj
 0001:00029930       ??$insert@$0A@$0A@@?$_Tree@V?$_Tset_traits@PEAVIMeetingParticipantsCtrlEvent@ZOOMSDK@@U?$less@PEAVIMeetingParticipantsCtrlEvent@ZOOMSDK@@@std@@V?$allocator@PEAVIMeetingParticipantsCtrlEvent@ZOOMSDK@@@4@$0A@@std@@@std@@QEAA?AU?$pair@V?$_Tree_const_iterator@V?$_Tree_val@U?$_Tree_simple_types@PEAVIMeetingParticipantsCtrlEvent@ZOOMSDK@@@std@@@std@@@std@@_N@1@AEBQEAVIMeetingParticipantsCtrlEvent@ZOOMSDK@@@Z 000000014002a930 f i sdk_util.obj
 0001:00029930       ??$insert@$0A@$0A@@?$_Tree@V?$_Tset_traits@PEAVIMeetingVideoCtrlEvent@ZOOMSDK@@U?$less@PEAVIMeetingVideoCtrlEvent@ZOOMSDK@@@std@@V?$allocator@PEAVIMeetingVideoCtrlEvent@ZOOMSDK@@@4@$0A@@std@@@std@@QEAA?AU?$pair@V?$_Tree_const_iterator@V?$_Tree_val@U?$_Tree_simple_types@PEAVIMeetingVideoCtrlEvent@ZOOMSDK@@@std@@@std@@@std@@_N@1@AEBQEAVIMeetingVideoCtrlEvent@ZOOMSDK@@@Z 000000014002a930 f i sdk_util.obj
 0001:00029930       ??$insert@$0A@$0A@@?$_Tree@V?$_Tset_traits@PEAVIAuthServiceEvent@ZOOMSDK@@U?$less@PEAVIAuthServiceEvent@ZOOMSDK@@@std@@V?$allocator@PEAVIAuthServiceEvent@ZOOMSDK@@@4@$0A@@std@@@std@@QEAA?AU?$pair@V?$_Tree_const_iterator@V?$_Tree_val@U?$_Tree_simple_types@PEAVIAuthServiceEvent@ZOOMSDK@@@std@@@std@@@std@@_N@1@AEBQEAVIAuthServiceEvent@ZOOMSDK@@@Z 000000014002a930 f i sdk_util.obj
 0001:00029930       ??$insert@$0A@$0A@@?$_Tree@V?$_Tset_traits@PEAVIMeetingServiceEvent@ZOOMSDK@@U?$less@PEAVIMeetingServiceEvent@ZOOMSDK@@@std@@V?$allocator@PEAVIMeetingServiceEvent@ZOOMSDK@@@4@$0A@@std@@@std@@QEAA?AU?$pair@V?$_Tree_const_iterator@V?$_Tree_val@U?$_Tree_simple_types@PEAVIMeetingServiceEvent@ZOOMSDK@@@std@@@std@@@std@@_N@1@AEBQEAVIMeetingServiceEvent@ZOOMSDK@@@Z 000000014002a930 f i sdk_util.obj
 0001:00029930       ??$insert@$0A@$0A@@?$_Tree@V?$_Tset_traits@PEAVISDKInMeetingServiceMgrEvent@@U?$less@PEAVISDKInMeetingServiceMgrEvent@@@std@@V?$allocator@PEAVISDKInMeetingServiceMgrEvent@@@3@$0A@@std@@@std@@QEAA?AU?$pair@V?$_Tree_const_iterator@V?$_Tree_val@U?$_Tree_simple_types@PEAVISDKInMeetingServiceMgrEvent@@@std@@@std@@@std@@_N@1@AEBQEAVISDKInMeetingServiceMgrEvent@@@Z 000000014002a930 f i sdk_util.obj
 0001:00029930       ??$insert@$0A@$0A@@?$_Tree@V?$_Tset_traits@PEAVIMeetingChatCtrlEvent@ZOOMSDK@@U?$less@PEAVIMeetingChatCtrlEvent@ZOOMSDK@@@std@@V?$allocator@PEAVIMeetingChatCtrlEvent@ZOOMSDK@@@4@$0A@@std@@@std@@QEAA?AU?$pair@V?$_Tree_const_iterator@V?$_Tree_val@U?$_Tree_simple_types@PEAVIMeetingChatCtrlEvent@ZOOMSDK@@@std@@@std@@@std@@_N@1@AEBQEAVIMeetingChatCtrlEvent@ZOOMSDK@@@Z 000000014002a930 f i sdk_util.obj
 0001:00029930       ??$insert@$0A@$0A@@?$_Tree@V?$_Tset_traits@PEAVIClosedCaptionControllerEvent@ZOOMSDK@@U?$less@PEAVIClosedCaptionControllerEvent@ZOOMSDK@@@std@@V?$allocator@PEAVIClosedCaptionControllerEvent@ZOOMSDK@@@4@$0A@@std@@@std@@QEAA?AU?$pair@V?$_Tree_const_iterator@V?$_Tree_val@U?$_Tree_simple_types@PEAVIClosedCaptionControllerEvent@ZOOMSDK@@@std@@@std@@@std@@_N@1@AEBQEAVIClosedCaptionControllerEvent@ZOOMSDK@@@Z 000000014002a930 f i sdk_util.obj
 0001:00029990       ??$insert@V?$_Tree_const_iterator@V?$_Tree_val@U?$_Tree_simple_types@PEAVIMeetingChatCtrlEvent@ZOOMSDK@@@std@@@std@@@std@@@?$_Tree@V?$_Tset_traits@PEAVIMeetingChatCtrlEvent@ZOOMSDK@@U?$less@PEAVIMeetingChatCtrlEvent@ZOOMSDK@@@std@@V?$allocator@PEAVIMeetingChatCtrlEvent@ZOOMSDK@@@4@$0A@@std@@@std@@QEAAXV?$_Tree_const_iterator@V?$_Tree_val@U?$_Tree_simple_types@PEAVIMeetingChatCtrlEvent@ZOOMSDK@@@std@@@std@@@1@0@Z 000000014002a990 f i sdk_util.obj
 0001:00029990       ??$insert@V?$_Tree_const_iterator@V?$_Tree_val@U?$_Tree_simple_types@PEAVISDKInMeetingServiceMgrEvent@@@std@@@std@@@std@@@?$_Tree@V?$_Tset_traits@PEAVISDKInMeetingServiceMgrEvent@@U?$less@PEAVISDKInMeetingServiceMgrEvent@@@std@@V?$allocator@PEAVISDKInMeetingServiceMgrEvent@@@3@$0A@@std@@@std@@QEAAXV?$_Tree_const_iterator@V?$_Tree_val@U?$_Tree_simple_types@PEAVISDKInMeetingServiceMgrEvent@@@std@@@std@@@1@0@Z 000000014002a990 f i sdk_util.obj
 0001:00029990       ??$insert@V?$_Tree_const_iterator@V?$_Tree_val@U?$_Tree_simple_types@PEAVIAuthServiceEvent@ZOOMSDK@@@std@@@std@@@std@@@?$_Tree@V?$_Tset_traits@PEAVIAuthServiceEvent@ZOOMSDK@@U?$less@PEAVIAuthServiceEvent@ZOOMSDK@@@std@@V?$allocator@PEAVIAuthServiceEvent@ZOOMSDK@@@4@$0A@@std@@@std@@QEAAXV?$_Tree_const_iterator@V?$_Tree_val@U?$_Tree_simple_types@PEAVIAuthServiceEvent@ZOOMSDK@@@std@@@std@@@1@0@Z 000000014002a990 f i sdk_util.obj
 0001:00029990       ??$insert@V?$_Tree_const_iterator@V?$_Tree_val@U?$_Tree_simple_types@PEAVIMeetingParticipantsCtrlEvent@ZOOMSDK@@@std@@@std@@@std@@@?$_Tree@V?$_Tset_traits@PEAVIMeetingParticipantsCtrlEvent@ZOOMSDK@@U?$less@PEAVIMeetingParticipantsCtrlEvent@ZOOMSDK@@@std@@V?$allocator@PEAVIMeetingParticipantsCtrlEvent@ZOOMSDK@@@4@$0A@@std@@@std@@QEAAXV?$_Tree_const_iterator@V?$_Tree_val@U?$_Tree_simple_types@PEAVIMeetingParticipantsCtrlEvent@ZOOMSDK@@@std@@@std@@@1@0@Z 000000014002a990 f i sdk_util.obj
 0001:00029990       ??$insert@V?$_Tree_const_iterator@V?$_Tree_val@U?$_Tree_simple_types@PEAVIClosedCaptionControllerEvent@ZOOMSDK@@@std@@@std@@@std@@@?$_Tree@V?$_Tset_traits@PEAVIClosedCaptionControllerEvent@ZOOMSDK@@U?$less@PEAVIClosedCaptionControllerEvent@ZOOMSDK@@@std@@V?$allocator@PEAVIClosedCaptionControllerEvent@ZOOMSDK@@@4@$0A@@std@@@std@@QEAAXV?$_Tree_const_iterator@V?$_Tree_val@U?$_Tree_simple_types@PEAVIClosedCaptionControllerEvent@ZOOMSDK@@@std@@@std@@@1@0@Z 000000014002a990 f i sdk_util.obj
 0001:00029990       ??$insert@V?$_Tree_const_iterator@V?$_Tree_val@U?$_Tree_simple_types@PEAVIMeetingVideoCtrlEvent@ZOOMSDK@@@std@@@std@@@std@@@?$_Tree@V?$_Tset_traits@PEAVIMeetingVideoCtrlEvent@ZOOMSDK@@U?$less@PEAVIMeetingVideoCtrlEvent@ZOOMSDK@@@std@@V?$allocator@PEAVIMeetingVideoCtrlEvent@ZOOMSDK@@@4@$0A@@std@@@std@@QEAAXV?$_Tree_const_iterator@V?$_Tree_val@U?$_Tree_simple_types@PEAVIMeetingVideoCtrlEvent@ZOOMSDK@@@std@@@std@@@1@0@Z 000000014002a990 f i sdk_util.obj
 0001:00029990       ??$insert@V?$_Tree_const_iterator@V?$_Tree_val@U?$_Tree_simple_types@PEAVIMeetingServiceEvent@ZOOMSDK@@@std@@@std@@@std@@@?$_Tree@V?$_Tset_traits@PEAVIMeetingServiceEvent@ZOOMSDK@@U?$less@PEAVIMeetingServiceEvent@ZOOMSDK@@@std@@V?$allocator@PEAVIMeetingServiceEvent@ZOOMSDK@@@4@$0A@@std@@@std@@QEAAXV?$_Tree_const_iterator@V?$_Tree_val@U?$_Tree_simple_types@PEAVIMeetingServiceEvent@ZOOMSDK@@@std@@@std@@@1@0@Z 000000014002a990 f i sdk_util.obj
 0001:00029a30       ??$swap@D$0A@@std@@YAXAEAD0@Z 000000014002aa30 f i sdk_util.obj
 0001:00029a80       ??0?$EventSinkPool@VIAuthServiceEvent@ZOOMSDK@@@@QEAA@XZ 000000014002aa80 f i sdk_util.obj
 0001:00029ad0       ??0?$EventSinkPool@VIClosedCaptionControllerEvent@ZOOMSDK@@@@QEAA@XZ 000000014002aad0 f i sdk_util.obj
 0001:00029b20       ??0?$EventSinkPool@VIMeetingChatCtrlEvent@ZOOMSDK@@@@QEAA@XZ 000000014002ab20 f i sdk_util.obj
 0001:00029b70       ??0?$EventSinkPool@VIMeetingParticipantsCtrlEvent@ZOOMSDK@@@@QEAA@XZ 000000014002ab70 f i sdk_util.obj
 0001:00029bc0       ??0?$EventSinkPool@VIMeetingServiceEvent@ZOOMSDK@@@@QEAA@XZ 000000014002abc0 f i sdk_util.obj
 0001:00029c10       ??0?$EventSinkPool@VIMeetingVideoCtrlEvent@ZOOMSDK@@@@QEAA@XZ 000000014002ac10 f i sdk_util.obj
 0001:00029c60       ??0?$EventSinkPool@VISDKInMeetingServiceMgrEvent@@@@QEAA@XZ 000000014002ac60 f i sdk_util.obj
 0001:00029cb0       ??0?$_Tree@V?$_Tset_traits@PEAVIMeetingChatCtrlEvent@ZOOMSDK@@U?$less@PEAVIMeetingChatCtrlEvent@ZOOMSDK@@@std@@V?$allocator@PEAVIMeetingChatCtrlEvent@ZOOMSDK@@@4@$0A@@std@@@std@@QEAA@AEBU?$less@PEAVIMeetingChatCtrlEvent@ZOOMSDK@@@1@@Z 000000014002acb0 f i sdk_util.obj
 0001:00029cb0       ??0?$_Tree@V?$_Tset_traits@PEAVIMeetingServiceEvent@ZOOMSDK@@U?$less@PEAVIMeetingServiceEvent@ZOOMSDK@@@std@@V?$allocator@PEAVIMeetingServiceEvent@ZOOMSDK@@@4@$0A@@std@@@std@@QEAA@AEBU?$less@PEAVIMeetingServiceEvent@ZOOMSDK@@@1@@Z 000000014002acb0 f i sdk_util.obj
 0001:00029cb0       ??0?$_Tree@V?$_Tset_traits@PEAVIAuthServiceEvent@ZOOMSDK@@U?$less@PEAVIAuthServiceEvent@ZOOMSDK@@@std@@V?$allocator@PEAVIAuthServiceEvent@ZOOMSDK@@@4@$0A@@std@@@std@@QEAA@AEBU?$less@PEAVIAuthServiceEvent@ZOOMSDK@@@1@@Z 000000014002acb0 f i sdk_util.obj
 0001:00029cb0       ??0?$_Tree@V?$_Tset_traits@PEAVIMeetingParticipantsCtrlEvent@ZOOMSDK@@U?$less@PEAVIMeetingParticipantsCtrlEvent@ZOOMSDK@@@std@@V?$allocator@PEAVIMeetingParticipantsCtrlEvent@ZOOMSDK@@@4@$0A@@std@@@std@@QEAA@AEBU?$less@PEAVIMeetingParticipantsCtrlEvent@ZOOMSDK@@@1@@Z 000000014002acb0 f i sdk_util.obj
 0001:00029cb0       ??0?$_Tree@V?$_Tset_traits@PEAVIMeetingVideoCtrlEvent@ZOOMSDK@@U?$less@PEAVIMeetingVideoCtrlEvent@ZOOMSDK@@@std@@V?$allocator@PEAVIMeetingVideoCtrlEvent@ZOOMSDK@@@4@$0A@@std@@@std@@QEAA@AEBU?$less@PEAVIMeetingVideoCtrlEvent@ZOOMSDK@@@1@@Z 000000014002acb0 f i sdk_util.obj
 0001:00029cb0       ??0?$_Tree@V?$_Tset_traits@PEAVIClosedCaptionControllerEvent@ZOOMSDK@@U?$less@PEAVIClosedCaptionControllerEvent@ZOOMSDK@@@std@@V?$allocator@PEAVIClosedCaptionControllerEvent@ZOOMSDK@@@4@$0A@@std@@@std@@QEAA@AEBU?$less@PEAVIClosedCaptionControllerEvent@ZOOMSDK@@@1@@Z 000000014002acb0 f i sdk_util.obj
 0001:00029cb0       ??0?$_Tree@V?$_Tset_traits@PEAVISDKInMeetingServiceMgrEvent@@U?$less@PEAVISDKInMeetingServiceMgrEvent@@@std@@V?$allocator@PEAVISDKInMeetingServiceMgrEvent@@@3@$0A@@std@@@std@@QEAA@AEBU?$less@PEAVISDKInMeetingServiceMgrEvent@@@1@@Z 000000014002acb0 f i sdk_util.obj
 0001:00029cf0       ??0?$_Tree_temp_node_alloc@V?$allocator@U?$_Tree_node@PEAVIMeetingServiceEvent@ZOOMSDK@@PEAX@std@@@std@@@std@@QEAA@AEAV?$allocator@U?$_Tree_node@PEAVIMeetingServiceEvent@ZOOMSDK@@PEAX@std@@@1@@Z 000000014002acf0 f i sdk_util.obj
 0001:00029cf0       ??0?$_Tree_temp_node_alloc@V?$allocator@U?$_Tree_node@PEAVIAuthServiceEvent@ZOOMSDK@@PEAX@std@@@std@@@std@@QEAA@AEAV?$allocator@U?$_Tree_node@PEAVIAuthServiceEvent@ZOOMSDK@@PEAX@std@@@1@@Z 000000014002acf0 f i sdk_util.obj
 0001:00029cf0       ??0?$_Tree_temp_node_alloc@V?$allocator@U?$_Tree_node@PEAVIClosedCaptionControllerEvent@ZOOMSDK@@PEAX@std@@@std@@@std@@QEAA@AEAV?$allocator@U?$_Tree_node@PEAVIClosedCaptionControllerEvent@ZOOMSDK@@PEAX@std@@@1@@Z 000000014002acf0 f i sdk_util.obj
 0001:00029cf0       ??0?$_Tree_temp_node_alloc@V?$allocator@U?$_Tree_node@PEAVISDKInMeetingServiceMgrEvent@@PEAX@std@@@std@@@std@@QEAA@AEAV?$allocator@U?$_Tree_node@PEAVISDKInMeetingServiceMgrEvent@@PEAX@std@@@1@@Z 000000014002acf0 f i sdk_util.obj
 0001:00029cf0       ??0?$_Tree_temp_node_alloc@V?$allocator@U?$_Tree_node@PEAVIMeetingChatCtrlEvent@ZOOMSDK@@PEAX@std@@@std@@@std@@QEAA@AEAV?$allocator@U?$_Tree_node@PEAVIMeetingChatCtrlEvent@ZOOMSDK@@PEAX@std@@@1@@Z 000000014002acf0 f i sdk_util.obj
 0001:00029cf0       ??0?$_Tree_temp_node_alloc@V?$allocator@U?$_Tree_node@PEAVIMeetingVideoCtrlEvent@ZOOMSDK@@PEAX@std@@@std@@@std@@QEAA@AEAV?$allocator@U?$_Tree_node@PEAVIMeetingVideoCtrlEvent@ZOOMSDK@@PEAX@std@@@1@@Z 000000014002acf0 f i sdk_util.obj
 0001:00029cf0       ??0?$_Tree_temp_node_alloc@V?$allocator@U?$_Tree_node@PEAVIMeetingParticipantsCtrlEvent@ZOOMSDK@@PEAX@std@@@std@@@std@@QEAA@AEAV?$allocator@U?$_Tree_node@PEAVIMeetingParticipantsCtrlEvent@ZOOMSDK@@PEAX@std@@@1@@Z 000000014002acf0 f i sdk_util.obj
 0001:00029cf0       ??0?$_Tree_temp_node_alloc@V?$allocator@U?$_Tree_node@U?$pair@$$CBHW4bkItemType@@@std@@PEAX@std@@@std@@@std@@QEAA@AEAV?$allocator@U?$_Tree_node@U?$pair@$$CBHW4bkItemType@@@std@@PEAX@std@@@1@@Z 000000014002acf0 f i settings_ui.obj
 0001:00029d30       ??0?$set@PEAVIMeetingServiceEvent@ZOOMSDK@@U?$less@PEAVIMeetingServiceEvent@ZOOMSDK@@@std@@V?$allocator@PEAVIMeetingServiceEvent@ZOOMSDK@@@4@@std@@QEAA@XZ 000000014002ad30 f i sdk_util.obj
 0001:00029d30       ??0?$set@PEAVIMeetingParticipantsCtrlEvent@ZOOMSDK@@U?$less@PEAVIMeetingParticipantsCtrlEvent@ZOOMSDK@@@std@@V?$allocator@PEAVIMeetingParticipantsCtrlEvent@ZOOMSDK@@@4@@std@@QEAA@XZ 000000014002ad30 f i sdk_util.obj
 0001:00029d30       ??0?$set@PEAVIMeetingChatCtrlEvent@ZOOMSDK@@U?$less@PEAVIMeetingChatCtrlEvent@ZOOMSDK@@@std@@V?$allocator@PEAVIMeetingChatCtrlEvent@ZOOMSDK@@@4@@std@@QEAA@XZ 000000014002ad30 f i sdk_util.obj
 0001:00029d30       ??0?$set@PEAVIMeetingVideoCtrlEvent@ZOOMSDK@@U?$less@PEAVIMeetingVideoCtrlEvent@ZOOMSDK@@@std@@V?$allocator@PEAVIMeetingVideoCtrlEvent@ZOOMSDK@@@4@@std@@QEAA@XZ 000000014002ad30 f i sdk_util.obj
 0001:00029d30       ??0?$set@PEAVISDKInMeetingServiceMgrEvent@@U?$less@PEAVISDKInMeetingServiceMgrEvent@@@std@@V?$allocator@PEAVISDKInMeetingServiceMgrEvent@@@3@@std@@QEAA@XZ 000000014002ad30 f i sdk_util.obj
 0001:00029d30       ??0?$set@PEAVIAuthServiceEvent@ZOOMSDK@@U?$less@PEAVIAuthServiceEvent@ZOOMSDK@@@std@@V?$allocator@PEAVIAuthServiceEvent@ZOOMSDK@@@4@@std@@QEAA@XZ 000000014002ad30 f i sdk_util.obj
 0001:00029d30       ??0?$set@PEAVIClosedCaptionControllerEvent@ZOOMSDK@@U?$less@PEAVIClosedCaptionControllerEvent@ZOOMSDK@@@std@@V?$allocator@PEAVIClosedCaptionControllerEvent@ZOOMSDK@@@4@@std@@QEAA@XZ 000000014002ad30 f i sdk_util.obj
 0001:00029d60       ??0CAtlException@ATL@@QEAA@J@Z 000000014002ad60 f i sdk_util.obj
 0001:00029d80       ??0CComAutoCriticalSection@ATL@@QEAA@XZ 000000014002ad80 f i sdk_util.obj
 0001:00029dc0       ??0SDKInterfaceWrap@@AEAA@XZ 000000014002adc0 f   sdk_util.obj
 0001:00029ff0       ??1?$EventSinkPool@VIAuthServiceEvent@ZOOMSDK@@@@UEAA@XZ 000000014002aff0 f i sdk_util.obj
 0001:0002a070       ??1?$EventSinkPool@VIClosedCaptionControllerEvent@ZOOMSDK@@@@UEAA@XZ 000000014002b070 f i sdk_util.obj
 0001:0002a0f0       ??1?$EventSinkPool@VIMeetingChatCtrlEvent@ZOOMSDK@@@@UEAA@XZ 000000014002b0f0 f i sdk_util.obj
 0001:0002a170       ??1?$EventSinkPool@VIMeetingParticipantsCtrlEvent@ZOOMSDK@@@@UEAA@XZ 000000014002b170 f i sdk_util.obj
 0001:0002a1f0       ??1?$EventSinkPool@VIMeetingServiceEvent@ZOOMSDK@@@@UEAA@XZ 000000014002b1f0 f i sdk_util.obj
 0001:0002a270       ??1?$EventSinkPool@VIMeetingVideoCtrlEvent@ZOOMSDK@@@@UEAA@XZ 000000014002b270 f i sdk_util.obj
 0001:0002a2f0       ??1?$EventSinkPool@VISDKInMeetingServiceMgrEvent@@@@UEAA@XZ 000000014002b2f0 f i sdk_util.obj
 0001:0002a370       ??1?$_Alloc_construct_ptr@V?$allocator@U?$_Tree_node@PEAVIMeetingVideoCtrlEvent@ZOOMSDK@@PEAX@std@@@std@@@std@@QEAA@XZ 000000014002b370 f i sdk_util.obj
 0001:0002a370       ??1?$_Alloc_construct_ptr@V?$allocator@U?$_Tree_node@PEAVIAuthServiceEvent@ZOOMSDK@@PEAX@std@@@std@@@std@@QEAA@XZ 000000014002b370 f i sdk_util.obj
 0001:0002a370       ??1?$_Alloc_construct_ptr@V?$allocator@U?$_Tree_node@U?$pair@$$CBHW4bkItemType@@@std@@PEAX@std@@@std@@@std@@QEAA@XZ 000000014002b370 f i settings_ui.obj
 0001:0002a370       ??1?$_Alloc_construct_ptr@V?$allocator@U?$_Tree_node@PEAVIMeetingChatCtrlEvent@ZOOMSDK@@PEAX@std@@@std@@@std@@QEAA@XZ 000000014002b370 f i sdk_util.obj
 0001:0002a370       ??1?$_Alloc_construct_ptr@V?$allocator@U?$_Tree_node@PEAVIMeetingParticipantsCtrlEvent@ZOOMSDK@@PEAX@std@@@std@@@std@@QEAA@XZ 000000014002b370 f i sdk_util.obj
 0001:0002a370       ??1?$_Alloc_construct_ptr@V?$allocator@U?$_Tree_node@PEAVIClosedCaptionControllerEvent@ZOOMSDK@@PEAX@std@@@std@@@std@@QEAA@XZ 000000014002b370 f i sdk_util.obj
 0001:0002a370       ??1?$_Alloc_construct_ptr@V?$allocator@U?$_Tree_node@PEAVIMeetingServiceEvent@ZOOMSDK@@PEAX@std@@@std@@@std@@QEAA@XZ 000000014002b370 f i sdk_util.obj
 0001:0002a370       ??1?$_Alloc_construct_ptr@V?$allocator@U?$_Tree_node@PEAVISDKInMeetingServiceMgrEvent@@PEAX@std@@@std@@@std@@QEAA@XZ 000000014002b370 f i sdk_util.obj
 0001:0002a3b0       ??1?$_Tree@V?$_Tset_traits@PEAVIMeetingVideoCtrlEvent@ZOOMSDK@@U?$less@PEAVIMeetingVideoCtrlEvent@ZOOMSDK@@@std@@V?$allocator@PEAVIMeetingVideoCtrlEvent@ZOOMSDK@@@4@$0A@@std@@@std@@QEAA@XZ 000000014002b3b0 f i sdk_util.obj
 0001:0002a3b0       ??1?$_Tree@V?$_Tset_traits@PEAVIClosedCaptionControllerEvent@ZOOMSDK@@U?$less@PEAVIClosedCaptionControllerEvent@ZOOMSDK@@@std@@V?$allocator@PEAVIClosedCaptionControllerEvent@ZOOMSDK@@@4@$0A@@std@@@std@@QEAA@XZ 000000014002b3b0 f i sdk_util.obj
 0001:0002a3b0       ??1?$_Tree@V?$_Tset_traits@PEAVIMeetingServiceEvent@ZOOMSDK@@U?$less@PEAVIMeetingServiceEvent@ZOOMSDK@@@std@@V?$allocator@PEAVIMeetingServiceEvent@ZOOMSDK@@@4@$0A@@std@@@std@@QEAA@XZ 000000014002b3b0 f i sdk_util.obj
 0001:0002a3b0       ??1?$_Tree@V?$_Tset_traits@PEAVISDKInMeetingServiceMgrEvent@@U?$less@PEAVISDKInMeetingServiceMgrEvent@@@std@@V?$allocator@PEAVISDKInMeetingServiceMgrEvent@@@3@$0A@@std@@@std@@QEAA@XZ 000000014002b3b0 f i sdk_util.obj
 0001:0002a3b0       ??1?$_Tree@V?$_Tset_traits@PEAVIAuthServiceEvent@ZOOMSDK@@U?$less@PEAVIAuthServiceEvent@ZOOMSDK@@@std@@V?$allocator@PEAVIAuthServiceEvent@ZOOMSDK@@@4@$0A@@std@@@std@@QEAA@XZ 000000014002b3b0 f i sdk_util.obj
 0001:0002a3b0       ??1?$_Tree@V?$_Tset_traits@PEAVIMeetingChatCtrlEvent@ZOOMSDK@@U?$less@PEAVIMeetingChatCtrlEvent@ZOOMSDK@@@std@@V?$allocator@PEAVIMeetingChatCtrlEvent@ZOOMSDK@@@4@$0A@@std@@@std@@QEAA@XZ 000000014002b3b0 f i sdk_util.obj
 0001:0002a3b0       ??1?$_Tree@V?$_Tset_traits@PEAVIMeetingParticipantsCtrlEvent@ZOOMSDK@@U?$less@PEAVIMeetingParticipantsCtrlEvent@ZOOMSDK@@@std@@V?$allocator@PEAVIMeetingParticipantsCtrlEvent@ZOOMSDK@@@4@$0A@@std@@@std@@QEAA@XZ 000000014002b3b0 f i sdk_util.obj
 0001:0002a3f0       ??1?$_Tree_temp_node@V?$allocator@U?$_Tree_node@PEAVIMeetingChatCtrlEvent@ZOOMSDK@@PEAX@std@@@std@@@std@@QEAA@XZ 000000014002b3f0 f i sdk_util.obj
 0001:0002a3f0       ??1?$_Tree_temp_node@V?$allocator@U?$_Tree_node@PEAVIMeetingVideoCtrlEvent@ZOOMSDK@@PEAX@std@@@std@@@std@@QEAA@XZ 000000014002b3f0 f i sdk_util.obj
 0001:0002a3f0       ??1?$_Tree_temp_node@V?$allocator@U?$_Tree_node@PEAVIMeetingParticipantsCtrlEvent@ZOOMSDK@@PEAX@std@@@std@@@std@@QEAA@XZ 000000014002b3f0 f i sdk_util.obj
 0001:0002a3f0       ??1?$_Tree_temp_node@V?$allocator@U?$_Tree_node@PEAVIClosedCaptionControllerEvent@ZOOMSDK@@PEAX@std@@@std@@@std@@QEAA@XZ 000000014002b3f0 f i sdk_util.obj
 0001:0002a3f0       ??1?$_Tree_temp_node@V?$allocator@U?$_Tree_node@PEAVIMeetingServiceEvent@ZOOMSDK@@PEAX@std@@@std@@@std@@QEAA@XZ 000000014002b3f0 f i sdk_util.obj
 0001:0002a3f0       ??1?$_Tree_temp_node@V?$allocator@U?$_Tree_node@PEAVISDKInMeetingServiceMgrEvent@@PEAX@std@@@std@@@std@@QEAA@XZ 000000014002b3f0 f i sdk_util.obj
 0001:0002a3f0       ??1?$_Tree_temp_node@V?$allocator@U?$_Tree_node@PEAVIAuthServiceEvent@ZOOMSDK@@PEAX@std@@@std@@@std@@QEAA@XZ 000000014002b3f0 f i sdk_util.obj
 0001:0002a480       ??1?$_Tree_temp_node_alloc@V?$allocator@U?$_Tree_node@PEAVIMeetingChatCtrlEvent@ZOOMSDK@@PEAX@std@@@std@@@std@@QEAA@XZ 000000014002b480 f i sdk_util.obj
 0001:0002a480       ??1?$_Tree_temp_node_alloc@V?$allocator@U?$_Tree_node@PEAVIMeetingServiceEvent@ZOOMSDK@@PEAX@std@@@std@@@std@@QEAA@XZ 000000014002b480 f i sdk_util.obj
 0001:0002a480       ??1?$_Tree_temp_node_alloc@V?$allocator@U?$_Tree_node@PEAVISDKInMeetingServiceMgrEvent@@PEAX@std@@@std@@@std@@QEAA@XZ 000000014002b480 f i sdk_util.obj
 0001:0002a480       ??1?$_Tree_temp_node_alloc@V?$allocator@U?$_Tree_node@PEAVIMeetingVideoCtrlEvent@ZOOMSDK@@PEAX@std@@@std@@@std@@QEAA@XZ 000000014002b480 f i sdk_util.obj
 0001:0002a480       ??1?$_Tree_temp_node_alloc@V?$allocator@U?$_Tree_node@U?$pair@$$CBHW4bkItemType@@@std@@PEAX@std@@@std@@@std@@QEAA@XZ 000000014002b480 f i settings_ui.obj
 0001:0002a480       ??1?$_Tree_temp_node_alloc@V?$allocator@U?$_Tree_node@PEAVIMeetingParticipantsCtrlEvent@ZOOMSDK@@PEAX@std@@@std@@@std@@QEAA@XZ 000000014002b480 f i sdk_util.obj
 0001:0002a480       ??1?$_Tree_temp_node_alloc@V?$allocator@U?$_Tree_node@PEAVIAuthServiceEvent@ZOOMSDK@@PEAX@std@@@std@@@std@@QEAA@XZ 000000014002b480 f i sdk_util.obj
 0001:0002a480       ??1?$_Tree_temp_node_alloc@V?$allocator@U?$_Tree_node@PEAVIClosedCaptionControllerEvent@ZOOMSDK@@PEAX@std@@@std@@@std@@QEAA@XZ 000000014002b480 f i sdk_util.obj
 0001:0002a4a0       ??1?$set@PEAVIClosedCaptionControllerEvent@ZOOMSDK@@U?$less@PEAVIClosedCaptionControllerEvent@ZOOMSDK@@@std@@V?$allocator@PEAVIClosedCaptionControllerEvent@ZOOMSDK@@@4@@std@@QEAA@XZ 000000014002b4a0 f i sdk_util.obj
 0001:0002a4a0       ??1?$set@PEAVISDKInMeetingServiceMgrEvent@@U?$less@PEAVISDKInMeetingServiceMgrEvent@@@std@@V?$allocator@PEAVISDKInMeetingServiceMgrEvent@@@3@@std@@QEAA@XZ 000000014002b4a0 f i sdk_util.obj
 0001:0002a4a0       ??1?$set@PEAVIMeetingParticipantsCtrlEvent@ZOOMSDK@@U?$less@PEAVIMeetingParticipantsCtrlEvent@ZOOMSDK@@@std@@V?$allocator@PEAVIMeetingParticipantsCtrlEvent@ZOOMSDK@@@4@@std@@QEAA@XZ 000000014002b4a0 f i sdk_util.obj
 0001:0002a4a0       ??1?$set@PEAVIAuthServiceEvent@ZOOMSDK@@U?$less@PEAVIAuthServiceEvent@ZOOMSDK@@@std@@V?$allocator@PEAVIAuthServiceEvent@ZOOMSDK@@@4@@std@@QEAA@XZ 000000014002b4a0 f i sdk_util.obj
 0001:0002a4a0       ??1?$set@PEAVIMeetingChatCtrlEvent@ZOOMSDK@@U?$less@PEAVIMeetingChatCtrlEvent@ZOOMSDK@@@std@@V?$allocator@PEAVIMeetingChatCtrlEvent@ZOOMSDK@@@4@@std@@QEAA@XZ 000000014002b4a0 f i sdk_util.obj
 0001:0002a4a0       ??1?$set@PEAVIMeetingServiceEvent@ZOOMSDK@@U?$less@PEAVIMeetingServiceEvent@ZOOMSDK@@@std@@V?$allocator@PEAVIMeetingServiceEvent@ZOOMSDK@@@4@@std@@QEAA@XZ 000000014002b4a0 f i sdk_util.obj
 0001:0002a4a0       ??1?$set@PEAVIMeetingVideoCtrlEvent@ZOOMSDK@@U?$less@PEAVIMeetingVideoCtrlEvent@ZOOMSDK@@@std@@V?$allocator@PEAVIMeetingVideoCtrlEvent@ZOOMSDK@@@4@@std@@QEAA@XZ 000000014002b4a0 f i sdk_util.obj
 0001:0002a4c0       ??1CComAutoCriticalSection@ATL@@QEAA@XZ 000000014002b4c0 f i sdk_util.obj
 0001:0002a4f0       ??1SDKInterfaceWrap@@EEAA@XZ 000000014002b4f0 f   sdk_util.obj
 0001:0002a670       ??D?$_Tree_unchecked_const_iterator@V?$_Tree_val@U?$_Tree_simple_types@PEAVIClosedCaptionControllerEvent@ZOOMSDK@@@std@@@std@@U_Iterator_base0@2@@std@@QEBAAEBQEAVIClosedCaptionControllerEvent@ZOOMSDK@@XZ 000000014002b670 f i sdk_util.obj
 0001:0002a670       ??D?$_Tree_const_iterator@V?$_Tree_val@U?$_Tree_simple_types@PEAVIMeetingVideoCtrlEvent@ZOOMSDK@@@std@@@std@@@std@@QEBAAEBQEAVIMeetingVideoCtrlEvent@ZOOMSDK@@XZ 000000014002b670 f i sdk_util.obj
 0001:0002a670       ??D?$_Tree_const_iterator@V?$_Tree_val@U?$_Tree_simple_types@PEAVIMeetingChatCtrlEvent@ZOOMSDK@@@std@@@std@@@std@@QEBAAEBQEAVIMeetingChatCtrlEvent@ZOOMSDK@@XZ 000000014002b670 f i sdk_util.obj
 0001:0002a670       ??D?$_Tree_unchecked_const_iterator@V?$_Tree_val@U?$_Tree_simple_types@PEAVIAuthServiceEvent@ZOOMSDK@@@std@@@std@@U_Iterator_base0@2@@std@@QEBAAEBQEAVIAuthServiceEvent@ZOOMSDK@@XZ 000000014002b670 f i sdk_util.obj
 0001:0002a670       ??D?$_Tree_const_iterator@V?$_Tree_val@U?$_Tree_simple_types@PEAVIMeetingParticipantsCtrlEvent@ZOOMSDK@@@std@@@std@@@std@@QEBAAEBQEAVIMeetingParticipantsCtrlEvent@ZOOMSDK@@XZ 000000014002b670 f i sdk_util.obj
 0001:0002a670       ??D?$_Tree_const_iterator@V?$_Tree_val@U?$_Tree_simple_types@PEAVIClosedCaptionControllerEvent@ZOOMSDK@@@std@@@std@@@std@@QEBAAEBQEAVIClosedCaptionControllerEvent@ZOOMSDK@@XZ 000000014002b670 f i sdk_util.obj
 0001:0002a670       ??D?$_Tree_unchecked_const_iterator@V?$_Tree_val@U?$_Tree_simple_types@PEAVIMeetingChatCtrlEvent@ZOOMSDK@@@std@@@std@@U_Iterator_base0@2@@std@@QEBAAEBQEAVIMeetingChatCtrlEvent@ZOOMSDK@@XZ 000000014002b670 f i sdk_util.obj
 0001:0002a670       ??D?$_Tree_const_iterator@V?$_Tree_val@U?$_Tree_simple_types@PEAVISDKInMeetingServiceMgrEvent@@@std@@@std@@@std@@QEBAAEBQEAVISDKInMeetingServiceMgrEvent@@XZ 000000014002b670 f i sdk_util.obj
 0001:0002a670       ??D?$_Tree_unchecked_const_iterator@V?$_Tree_val@U?$_Tree_simple_types@PEAVIMeetingVideoCtrlEvent@ZOOMSDK@@@std@@@std@@U_Iterator_base0@2@@std@@QEBAAEBQEAVIMeetingVideoCtrlEvent@ZOOMSDK@@XZ 000000014002b670 f i sdk_util.obj
 0001:0002a670       ??D?$_Tree_unchecked_const_iterator@V?$_Tree_val@U?$_Tree_simple_types@PEAVIMeetingServiceEvent@ZOOMSDK@@@std@@@std@@U_Iterator_base0@2@@std@@QEBAAEBQEAVIMeetingServiceEvent@ZOOMSDK@@XZ 000000014002b670 f i sdk_util.obj
 0001:0002a670       ??D?$_Tree_const_iterator@V?$_Tree_val@U?$_Tree_simple_types@PEAVIAuthServiceEvent@ZOOMSDK@@@std@@@std@@@std@@QEBAAEBQEAVIAuthServiceEvent@ZOOMSDK@@XZ 000000014002b670 f i sdk_util.obj
 0001:0002a670       ??D?$_Tree_unchecked_const_iterator@V?$_Tree_val@U?$_Tree_simple_types@PEAVIMeetingParticipantsCtrlEvent@ZOOMSDK@@@std@@@std@@U_Iterator_base0@2@@std@@QEBAAEBQEAVIMeetingParticipantsCtrlEvent@ZOOMSDK@@XZ 000000014002b670 f i sdk_util.obj
 0001:0002a670       ??D?$_Tree_unchecked_const_iterator@V?$_Tree_val@U?$_Tree_simple_types@PEAVISDKInMeetingServiceMgrEvent@@@std@@@std@@U_Iterator_base0@2@@std@@QEBAAEBQEAVISDKInMeetingServiceMgrEvent@@XZ 000000014002b670 f i sdk_util.obj
 0001:0002a670       ??D?$_Tree_const_iterator@V?$_Tree_val@U?$_Tree_simple_types@PEAVIMeetingServiceEvent@ZOOMSDK@@@std@@@std@@@std@@QEBAAEBQEAVIMeetingServiceEvent@ZOOMSDK@@XZ 000000014002b670 f i sdk_util.obj
 0001:0002a690       ??E?$_Tree_const_iterator@V?$_Tree_val@U?$_Tree_simple_types@PEAVIMeetingChatCtrlEvent@ZOOMSDK@@@std@@@std@@@std@@QEAA?AV01@H@Z 000000014002b690 f i sdk_util.obj
 0001:0002a690       ??E?$_Tree_const_iterator@V?$_Tree_val@U?$_Tree_simple_types@PEAVIClosedCaptionControllerEvent@ZOOMSDK@@@std@@@std@@@std@@QEAA?AV01@H@Z 000000014002b690 f i sdk_util.obj
 0001:0002a690       ??E?$_Tree_const_iterator@V?$_Tree_val@U?$_Tree_simple_types@PEAVIMeetingServiceEvent@ZOOMSDK@@@std@@@std@@@std@@QEAA?AV01@H@Z 000000014002b690 f i sdk_util.obj
 0001:0002a690       ??E?$_Tree_const_iterator@V?$_Tree_val@U?$_Tree_simple_types@PEAVIMeetingParticipantsCtrlEvent@ZOOMSDK@@@std@@@std@@@std@@QEAA?AV01@H@Z 000000014002b690 f i sdk_util.obj
 0001:0002a690       ??E?$_Tree_const_iterator@V?$_Tree_val@U?$_Tree_simple_types@PEAVIMeetingVideoCtrlEvent@ZOOMSDK@@@std@@@std@@@std@@QEAA?AV01@H@Z 000000014002b690 f i sdk_util.obj
 0001:0002a690       ??E?$_Tree_const_iterator@V?$_Tree_val@U?$_Tree_simple_types@PEAVIAuthServiceEvent@ZOOMSDK@@@std@@@std@@@std@@QEAA?AV01@H@Z 000000014002b690 f i sdk_util.obj
 0001:0002a690       ??E?$_Tree_const_iterator@V?$_Tree_val@U?$_Tree_simple_types@PEAVISDKInMeetingServiceMgrEvent@@@std@@@std@@@std@@QEAA?AV01@H@Z 000000014002b690 f i sdk_util.obj
 0001:0002a6e0       ??E?$_Tree_const_iterator@V?$_Tree_val@U?$_Tree_simple_types@PEAVIAuthServiceEvent@ZOOMSDK@@@std@@@std@@@std@@QEAAAEAV01@XZ 000000014002b6e0 f i sdk_util.obj
 0001:0002a6e0       ??E?$_Tree_const_iterator@V?$_Tree_val@U?$_Tree_simple_types@PEAVIMeetingServiceEvent@ZOOMSDK@@@std@@@std@@@std@@QEAAAEAV01@XZ 000000014002b6e0 f i sdk_util.obj
 0001:0002a6e0       ??E?$_Tree_const_iterator@V?$_Tree_val@U?$_Tree_simple_types@PEAVISDKInMeetingServiceMgrEvent@@@std@@@std@@@std@@QEAAAEAV01@XZ 000000014002b6e0 f i sdk_util.obj
 0001:0002a6e0       ??E?$_Tree_const_iterator@V?$_Tree_val@U?$_Tree_simple_types@PEAVIMeetingVideoCtrlEvent@ZOOMSDK@@@std@@@std@@@std@@QEAAAEAV01@XZ 000000014002b6e0 f i sdk_util.obj
 0001:0002a6e0       ??E?$_Tree_const_iterator@V?$_Tree_val@U?$_Tree_simple_types@PEAVIMeetingParticipantsCtrlEvent@ZOOMSDK@@@std@@@std@@@std@@QEAAAEAV01@XZ 000000014002b6e0 f i sdk_util.obj
 0001:0002a6e0       ??E?$_Tree_const_iterator@V?$_Tree_val@U?$_Tree_simple_types@PEAVIClosedCaptionControllerEvent@ZOOMSDK@@@std@@@std@@@std@@QEAAAEAV01@XZ 000000014002b6e0 f i sdk_util.obj
 0001:0002a6e0       ??E?$_Tree_const_iterator@V?$_Tree_val@U?$_Tree_simple_types@PEAVIMeetingChatCtrlEvent@ZOOMSDK@@@std@@@std@@@std@@QEAAAEAV01@XZ 000000014002b6e0 f i sdk_util.obj
 0001:0002a700       ??E?$_Tree_unchecked_const_iterator@V?$_Tree_val@U?$_Tree_simple_types@PEAVIMeetingParticipantsCtrlEvent@ZOOMSDK@@@std@@@std@@U_Iterator_base0@2@@std@@QEAA?AV01@H@Z 000000014002b700 f i sdk_util.obj
 0001:0002a700       ??E?$_Tree_unchecked_const_iterator@V?$_Tree_val@U?$_Tree_simple_types@PEAVIClosedCaptionControllerEvent@ZOOMSDK@@@std@@@std@@U_Iterator_base0@2@@std@@QEAA?AV01@H@Z 000000014002b700 f i sdk_util.obj
 0001:0002a700       ??E?$_Tree_unchecked_const_iterator@V?$_Tree_val@U?$_Tree_simple_types@PEAVISDKInMeetingServiceMgrEvent@@@std@@@std@@U_Iterator_base0@2@@std@@QEAA?AV01@H@Z 000000014002b700 f i sdk_util.obj
 0001:0002a700       ??E?$_Tree_unchecked_const_iterator@V?$_Tree_val@U?$_Tree_simple_types@PEAVIMeetingChatCtrlEvent@ZOOMSDK@@@std@@@std@@U_Iterator_base0@2@@std@@QEAA?AV01@H@Z 000000014002b700 f i sdk_util.obj
 0001:0002a700       ??E?$_Tree_unchecked_const_iterator@V?$_Tree_val@U?$_Tree_simple_types@PEAVIMeetingServiceEvent@ZOOMSDK@@@std@@@std@@U_Iterator_base0@2@@std@@QEAA?AV01@H@Z 000000014002b700 f i sdk_util.obj
 0001:0002a700       ??E?$_Tree_unchecked_const_iterator@V?$_Tree_val@U?$_Tree_simple_types@PEAVIMeetingVideoCtrlEvent@ZOOMSDK@@@std@@@std@@U_Iterator_base0@2@@std@@QEAA?AV01@H@Z 000000014002b700 f i sdk_util.obj
 0001:0002a700       ??E?$_Tree_unchecked_const_iterator@V?$_Tree_val@U?$_Tree_simple_types@U?$pair@$$CBHW4bkItemType@@@std@@@std@@@std@@U_Iterator_base0@2@@std@@QEAA?AV01@H@Z 000000014002b700 f i settings_ui.obj
 0001:0002a700       ??E?$_Tree_unchecked_const_iterator@V?$_Tree_val@U?$_Tree_simple_types@PEAVIAuthServiceEvent@ZOOMSDK@@@std@@@std@@U_Iterator_base0@2@@std@@QEAA?AV01@H@Z 000000014002b700 f i sdk_util.obj
 0001:0002a750       ??E?$_Tree_unchecked_const_iterator@V?$_Tree_val@U?$_Tree_simple_types@PEAVIClosedCaptionControllerEvent@ZOOMSDK@@@std@@@std@@U_Iterator_base0@2@@std@@QEAAAEAV01@XZ 000000014002b750 f i sdk_util.obj
 0001:0002a750       ??E?$_Tree_unchecked_const_iterator@V?$_Tree_val@U?$_Tree_simple_types@PEAVIAuthServiceEvent@ZOOMSDK@@@std@@@std@@U_Iterator_base0@2@@std@@QEAAAEAV01@XZ 000000014002b750 f i sdk_util.obj
 0001:0002a750       ??E?$_Tree_unchecked_const_iterator@V?$_Tree_val@U?$_Tree_simple_types@PEAVISDKInMeetingServiceMgrEvent@@@std@@@std@@U_Iterator_base0@2@@std@@QEAAAEAV01@XZ 000000014002b750 f i sdk_util.obj
 0001:0002a750       ??E?$_Tree_unchecked_const_iterator@V?$_Tree_val@U?$_Tree_simple_types@PEAVIMeetingServiceEvent@ZOOMSDK@@@std@@@std@@U_Iterator_base0@2@@std@@QEAAAEAV01@XZ 000000014002b750 f i sdk_util.obj
 0001:0002a750       ??E?$_Tree_unchecked_const_iterator@V?$_Tree_val@U?$_Tree_simple_types@PEAVIMeetingVideoCtrlEvent@ZOOMSDK@@@std@@@std@@U_Iterator_base0@2@@std@@QEAAAEAV01@XZ 000000014002b750 f i sdk_util.obj
 0001:0002a750       ??E?$_Tree_unchecked_const_iterator@V?$_Tree_val@U?$_Tree_simple_types@U?$pair@$$CBIPEAVIUserInfo@ZOOMSDK@@@std@@@std@@@std@@U_Iterator_base0@2@@std@@QEAAAEAV01@XZ 000000014002b750 f i user_manager.obj
 0001:0002a750       ??E?$_Tree_unchecked_const_iterator@V?$_Tree_val@U?$_Tree_simple_types@PEAVIMeetingChatCtrlEvent@ZOOMSDK@@@std@@@std@@U_Iterator_base0@2@@std@@QEAAAEAV01@XZ 000000014002b750 f i sdk_util.obj
 0001:0002a750       ??E?$_Tree_unchecked_const_iterator@V?$_Tree_val@U?$_Tree_simple_types@U?$pair@$$CBHW4bkItemType@@@std@@@std@@@std@@U_Iterator_base0@2@@std@@QEAAAEAV01@XZ 000000014002b750 f i settings_ui.obj
 0001:0002a750       ??E?$_Tree_unchecked_const_iterator@V?$_Tree_val@U?$_Tree_simple_types@PEAVIMeetingParticipantsCtrlEvent@ZOOMSDK@@@std@@@std@@U_Iterator_base0@2@@std@@QEAAAEAV01@XZ 000000014002b750 f i sdk_util.obj
 0001:0002a7e0       ??F?$_Tree_unchecked_const_iterator@V?$_Tree_val@U?$_Tree_simple_types@PEAVIMeetingVideoCtrlEvent@ZOOMSDK@@@std@@@std@@U_Iterator_base0@2@@std@@QEAAAEAV01@XZ 000000014002b7e0 f i sdk_util.obj
 0001:0002a7e0       ??F?$_Tree_unchecked_const_iterator@V?$_Tree_val@U?$_Tree_simple_types@PEAVIMeetingChatCtrlEvent@ZOOMSDK@@@std@@@std@@U_Iterator_base0@2@@std@@QEAAAEAV01@XZ 000000014002b7e0 f i sdk_util.obj
 0001:0002a7e0       ??F?$_Tree_unchecked_const_iterator@V?$_Tree_val@U?$_Tree_simple_types@PEAVIMeetingServiceEvent@ZOOMSDK@@@std@@@std@@U_Iterator_base0@2@@std@@QEAAAEAV01@XZ 000000014002b7e0 f i sdk_util.obj
 0001:0002a7e0       ??F?$_Tree_unchecked_const_iterator@V?$_Tree_val@U?$_Tree_simple_types@PEAVIMeetingParticipantsCtrlEvent@ZOOMSDK@@@std@@@std@@U_Iterator_base0@2@@std@@QEAAAEAV01@XZ 000000014002b7e0 f i sdk_util.obj
 0001:0002a7e0       ??F?$_Tree_unchecked_const_iterator@V?$_Tree_val@U?$_Tree_simple_types@PEAVIClosedCaptionControllerEvent@ZOOMSDK@@@std@@@std@@U_Iterator_base0@2@@std@@QEAAAEAV01@XZ 000000014002b7e0 f i sdk_util.obj
 0001:0002a7e0       ??F?$_Tree_unchecked_const_iterator@V?$_Tree_val@U?$_Tree_simple_types@PEAVIAuthServiceEvent@ZOOMSDK@@@std@@@std@@U_Iterator_base0@2@@std@@QEAAAEAV01@XZ 000000014002b7e0 f i sdk_util.obj
 0001:0002a7e0       ??F?$_Tree_unchecked_const_iterator@V?$_Tree_val@U?$_Tree_simple_types@PEAVISDKInMeetingServiceMgrEvent@@@std@@@std@@U_Iterator_base0@2@@std@@QEAAAEAV01@XZ 000000014002b7e0 f i sdk_util.obj
 0001:0002a8b0       ??R?$less@PEAVIMeetingVideoCtrlEvent@ZOOMSDK@@@std@@QEBA_NAEBQEAVIMeetingVideoCtrlEvent@ZOOMSDK@@0@Z 000000014002b8b0 f i sdk_util.obj
 0001:0002a8b0       ??R?$less@PEAVIMeetingParticipantsCtrlEvent@ZOOMSDK@@@std@@QEBA_NAEBQEAVIMeetingParticipantsCtrlEvent@ZOOMSDK@@0@Z 000000014002b8b0 f i sdk_util.obj
 0001:0002a8b0       ??R?$less@PEAVIClosedCaptionControllerEvent@ZOOMSDK@@@std@@QEBA_NAEBQEAVIClosedCaptionControllerEvent@ZOOMSDK@@0@Z 000000014002b8b0 f i sdk_util.obj
 0001:0002a8b0       ??R?$less@PEAVIMeetingServiceEvent@ZOOMSDK@@@std@@QEBA_NAEBQEAVIMeetingServiceEvent@ZOOMSDK@@0@Z 000000014002b8b0 f i sdk_util.obj
 0001:0002a8b0       ??R?$less@PEAVISDKInMeetingServiceMgrEvent@@@std@@QEBA_NAEBQEAVISDKInMeetingServiceMgrEvent@@0@Z 000000014002b8b0 f i sdk_util.obj
 0001:0002a8b0       ??R?$less@PEAVIAuthServiceEvent@ZOOMSDK@@@std@@QEBA_NAEBQEAVIAuthServiceEvent@ZOOMSDK@@0@Z 000000014002b8b0 f i sdk_util.obj
 0001:0002a8b0       ??R?$less@PEAVIMeetingChatCtrlEvent@ZOOMSDK@@@std@@QEBA_NAEBQEAVIMeetingChatCtrlEvent@ZOOMSDK@@0@Z 000000014002b8b0 f i sdk_util.obj
 0001:0002a8f0       ??_ESDKInterfaceWrap@@G7EAAPEAXI@Z 000000014002b8f0 f i sdk_util.obj
 0001:0002a8fc       ??_ESDKInterfaceWrap@@GBA@EAAPEAXI@Z 000000014002b8fc f i sdk_util.obj
 0001:0002a908       ??_ESDKInterfaceWrap@@GBI@EAAPEAXI@Z 000000014002b908 f i sdk_util.obj
 0001:0002a914       ??_ESDKInterfaceWrap@@GCA@EAAPEAXI@Z 000000014002b914 f i sdk_util.obj
 0001:0002a920       ??_ESDKInterfaceWrap@@GCI@EAAPEAXI@Z 000000014002b920 f i sdk_util.obj
 0001:0002a92c       ??_ESDKInterfaceWrap@@GDA@EAAPEAXI@Z 000000014002b92c f i sdk_util.obj
 0001:0002a940       ??_E?$EventSinkPool@VIAuthServiceEvent@ZOOMSDK@@@@UEAAPEAXI@Z 000000014002b940 f i sdk_util.obj
 0001:0002a940       ??_G?$EventSinkPool@VIAuthServiceEvent@ZOOMSDK@@@@UEAAPEAXI@Z 000000014002b940 f i sdk_util.obj
 0001:0002a980       ??_E?$EventSinkPool@VIClosedCaptionControllerEvent@ZOOMSDK@@@@UEAAPEAXI@Z 000000014002b980 f i sdk_util.obj
 0001:0002a980       ??_G?$EventSinkPool@VIClosedCaptionControllerEvent@ZOOMSDK@@@@UEAAPEAXI@Z 000000014002b980 f i sdk_util.obj
 0001:0002a9c0       ??_E?$EventSinkPool@VIMeetingChatCtrlEvent@ZOOMSDK@@@@UEAAPEAXI@Z 000000014002b9c0 f i sdk_util.obj
 0001:0002a9c0       ??_G?$EventSinkPool@VIMeetingChatCtrlEvent@ZOOMSDK@@@@UEAAPEAXI@Z 000000014002b9c0 f i sdk_util.obj
 0001:0002aa00       ??_E?$EventSinkPool@VIMeetingParticipantsCtrlEvent@ZOOMSDK@@@@UEAAPEAXI@Z 000000014002ba00 f i sdk_util.obj
 0001:0002aa00       ??_G?$EventSinkPool@VIMeetingParticipantsCtrlEvent@ZOOMSDK@@@@UEAAPEAXI@Z 000000014002ba00 f i sdk_util.obj
 0001:0002aa40       ??_E?$EventSinkPool@VIMeetingServiceEvent@ZOOMSDK@@@@UEAAPEAXI@Z 000000014002ba40 f i sdk_util.obj
 0001:0002aa40       ??_G?$EventSinkPool@VIMeetingServiceEvent@ZOOMSDK@@@@UEAAPEAXI@Z 000000014002ba40 f i sdk_util.obj
 0001:0002aa80       ??_G?$EventSinkPool@VIMeetingVideoCtrlEvent@ZOOMSDK@@@@UEAAPEAXI@Z 000000014002ba80 f i sdk_util.obj
 0001:0002aa80       ??_E?$EventSinkPool@VIMeetingVideoCtrlEvent@ZOOMSDK@@@@UEAAPEAXI@Z 000000014002ba80 f i sdk_util.obj
 0001:0002aac0       ??_E?$EventSinkPool@VISDKInMeetingServiceMgrEvent@@@@UEAAPEAXI@Z 000000014002bac0 f i sdk_util.obj
 0001:0002aac0       ??_G?$EventSinkPool@VISDKInMeetingServiceMgrEvent@@@@UEAAPEAXI@Z 000000014002bac0 f i sdk_util.obj
 0001:0002ab00       ??_GSDKInterfaceWrap@@EEAAPEAXI@Z 000000014002bb00 f i sdk_util.obj
 0001:0002ab00       ??_ESDKInterfaceWrap@@EEAAPEAXI@Z 000000014002bb00 f i sdk_util.obj
 0001:0002ab40       ?ActiveWindowToTop@@YAXPEAUHWND__@@H@Z 000000014002bb40 f   sdk_util.obj
 0001:0002ac70       ?AddListener@?$EventSinkPool@VIAuthServiceEvent@ZOOMSDK@@@@QEAAXPEAVIAuthServiceEvent@ZOOMSDK@@@Z 000000014002bc70 f i sdk_util.obj
 0001:0002ac70       ?AddListener@?$EventSinkPool@VIMeetingVideoCtrlEvent@ZOOMSDK@@@@QEAAXPEAVIMeetingVideoCtrlEvent@ZOOMSDK@@@Z 000000014002bc70 f i sdk_util.obj
 0001:0002ac70       ?AddListener@?$EventSinkPool@VIMeetingServiceEvent@ZOOMSDK@@@@QEAAXPEAVIMeetingServiceEvent@ZOOMSDK@@@Z 000000014002bc70 f i sdk_util.obj
 0001:0002ac70       ?AddListener@?$EventSinkPool@VIMeetingChatCtrlEvent@ZOOMSDK@@@@QEAAXPEAVIMeetingChatCtrlEvent@ZOOMSDK@@@Z 000000014002bc70 f i sdk_util.obj
 0001:0002ac70       ?AddListener@?$EventSinkPool@VIClosedCaptionControllerEvent@ZOOMSDK@@@@QEAAXPEAVIClosedCaptionControllerEvent@ZOOMSDK@@@Z 000000014002bc70 f i sdk_util.obj
 0001:0002ac70       ?AddListener@?$EventSinkPool@VISDKInMeetingServiceMgrEvent@@@@QEAAXPEAVISDKInMeetingServiceMgrEvent@@@Z 000000014002bc70 f i sdk_util.obj
 0001:0002ac70       ?AddListener@?$EventSinkPool@VIMeetingParticipantsCtrlEvent@ZOOMSDK@@@@QEAAXPEAVIMeetingParticipantsCtrlEvent@ZOOMSDK@@@Z 000000014002bc70 f i sdk_util.obj
 0001:0002acd0       ?AtlThrowImpl@ATL@@YAXJ@Z  000000014002bcd0 f i sdk_util.obj
 0001:0002ad00       ?Cleanup@SDKInterfaceWrap@@QEAA?AW4SDKError@ZOOMSDK@@XZ 000000014002bd00 f   sdk_util.obj
 0001:0002ae30       ?GetAuthService@SDKInterfaceWrap@@QEAAPEAVIAuthService@ZOOMSDK@@XZ 000000014002be30 f   sdk_util.obj
 0001:0002aeb0       ?GetCloseCaptionController@SDKInterfaceWrap@@QEAAPEAVIClosedCaptionController@ZOOMSDK@@XZ 000000014002beb0 f   sdk_util.obj
 0001:0002af80       ?GetCustomizedAnnotationController@SDKInterfaceWrap@@QEAAPEAVICustomizedAnnotationController@ZOOMSDK@@PEAVICustomizedShareRender@3@@Z 000000014002bf80 f   sdk_util.obj
 0001:0002b010       ?GetInst@SDKInterfaceWrap@@SAAEAV1@XZ 000000014002c010 f   sdk_util.obj
 0001:0002b080       ?GetLastError@SDKInterfaceWrap@@QEAAPEBVIZoomLastError@ZOOMSDK@@XZ 000000014002c080 f   sdk_util.obj
 0001:0002b0d0       ?GetMeetingChatController@SDKInterfaceWrap@@QEAAPEAVIMeetingChatController@ZOOMSDK@@XZ 000000014002c0d0 f   sdk_util.obj
 0001:0002b1a0       ?GetMeetingParticipantsController@SDKInterfaceWrap@@QEAAPEAVIMeetingParticipantsController@ZOOMSDK@@XZ 000000014002c1a0 f   sdk_util.obj
 0001:0002b270       ?GetMeetingRemoteController@SDKInterfaceWrap@@QEAAPEAVIMeetingRemoteController@ZOOMSDK@@XZ 000000014002c270 f   sdk_util.obj
 0001:0002b2d0       ?GetMeetingService@SDKInterfaceWrap@@QEAAPEAVIMeetingService@ZOOMSDK@@XZ 000000014002c2d0 f   sdk_util.obj
 0001:0002b390       ?GetMeetingVideoController@SDKInterfaceWrap@@QEAAPEAVIMeetingVideoController@ZOOMSDK@@XZ 000000014002c390 f   sdk_util.obj
 0001:0002b460       ?GetNetworkConnectionHelper@SDKInterfaceWrap@@QEAAPEAVINetworkConnectionHelper@ZOOMSDK@@XZ 000000014002c460 f   sdk_util.obj
 0001:0002b4b0       ?GetSettingService@SDKInterfaceWrap@@QEAAPEAVISettingService@ZOOMSDK@@XZ 000000014002c4b0 f   sdk_util.obj
 0001:0002b500       ?Init@SDKInterfaceWrap@@QEAA?AW4SDKError@ZOOMSDK@@AEAUtagInitParam@3@@Z 000000014002c500 f   sdk_util.obj
 0001:0002b590       ?ListenAuthServiceEvent@SDKInterfaceWrap@@QEAAXPEAVIAuthServiceEvent@ZOOMSDK@@@Z 000000014002c590 f   sdk_util.obj
 0001:0002b5e0       ?ListenChatServiceMgrEvent@SDKInterfaceWrap@@QEAAXPEAVIMeetingChatCtrlEvent@ZOOMSDK@@@Z 000000014002c5e0 f   sdk_util.obj
 0001:0002b610       ?ListenCloseCaptionEvent@SDKInterfaceWrap@@QEAAXPEAVIClosedCaptionControllerEvent@ZOOMSDK@@@Z 000000014002c610 f   sdk_util.obj
 0001:0002b640       ?ListenInMeetingServiceMgrEvent@SDKInterfaceWrap@@QEAAXPEAVISDKInMeetingServiceMgrEvent@@@Z 000000014002c640 f   sdk_util.obj
 0001:0002b670       ?ListenMeetingParticipantsCtrEvent@SDKInterfaceWrap@@QEAAXPEAVIMeetingParticipantsCtrlEvent@ZOOMSDK@@@Z 000000014002c670 f   sdk_util.obj
 0001:0002b6a0       ?ListenMeetingServiceEvent@SDKInterfaceWrap@@QEAAXPEAVIMeetingServiceEvent@ZOOMSDK@@@Z 000000014002c6a0 f   sdk_util.obj
 0001:0002b6d0       ?ListenMeetingVideoCtrEvent@SDKInterfaceWrap@@QEAAXPEAVIMeetingVideoCtrlEvent@ZOOMSDK@@@Z 000000014002c6d0 f   sdk_util.obj
 0001:0002b700       ?Lock@CComCriticalSection@ATL@@QEAAJXZ 000000014002c700 f i sdk_util.obj
 0001:0002b720       ?OnMicSpkVolumnChanged@SDKInterfaceWrap@@UEAAXII@Z 000000014002c720 f i sdk_util.obj
 0001:0002b860       ?OnNoAudioDeviceIsUseful@SDKInterfaceWrap@@UEAAX_N@Z 000000014002c860 f i sdk_util.obj
 0001:0002b990       ?OnNoVideoDeviceIsUseful@SDKInterfaceWrap@@UEAAXXZ 000000014002c990 f i sdk_util.obj
 0001:0002bab0       ?OnNoWindowToShowPreview@SDKInterfaceWrap@@UEAAXXZ 000000014002cab0 f i sdk_util.obj
 0001:0002bbd0       ?OnSelectedAudioDeviceIsChanged@SDKInterfaceWrap@@UEAAXXZ 000000014002cbd0 f i sdk_util.obj
 0001:0002bcf0       ?OnSelectedVideoDeviceIsChanged@SDKInterfaceWrap@@UEAAXXZ 000000014002ccf0 f i sdk_util.obj
 0001:0002be10       ?OnTestMicStatusChanged@SDKInterfaceWrap@@UEAAXW4SDK_TESTMIC_STATUS@ZOOMSDK@@AEA_N@Z 000000014002ce10 f i sdk_util.obj
 0001:0002bf50       ?RemoveListener@?$EventSinkPool@VIMeetingParticipantsCtrlEvent@ZOOMSDK@@@@QEAAXPEAVIMeetingParticipantsCtrlEvent@ZOOMSDK@@@Z 000000014002cf50 f i sdk_util.obj
 0001:0002bf50       ?RemoveListener@?$EventSinkPool@VIMeetingServiceEvent@ZOOMSDK@@@@QEAAXPEAVIMeetingServiceEvent@ZOOMSDK@@@Z 000000014002cf50 f i sdk_util.obj
 0001:0002bf50       ?RemoveListener@?$EventSinkPool@VIMeetingChatCtrlEvent@ZOOMSDK@@@@QEAAXPEAVIMeetingChatCtrlEvent@ZOOMSDK@@@Z 000000014002cf50 f i sdk_util.obj
 0001:0002bf50       ?RemoveListener@?$EventSinkPool@VIAuthServiceEvent@ZOOMSDK@@@@QEAAXPEAVIAuthServiceEvent@ZOOMSDK@@@Z 000000014002cf50 f i sdk_util.obj
 0001:0002bf50       ?RemoveListener@?$EventSinkPool@VISDKInMeetingServiceMgrEvent@@@@QEAAXPEAVISDKInMeetingServiceMgrEvent@@@Z 000000014002cf50 f i sdk_util.obj
 0001:0002bf50       ?RemoveListener@?$EventSinkPool@VIMeetingVideoCtrlEvent@ZOOMSDK@@@@QEAAXPEAVIMeetingVideoCtrlEvent@ZOOMSDK@@@Z 000000014002cf50 f i sdk_util.obj
 0001:0002bf50       ?RemoveListener@?$EventSinkPool@VIClosedCaptionControllerEvent@ZOOMSDK@@@@QEAAXPEAVIClosedCaptionControllerEvent@ZOOMSDK@@@Z 000000014002cf50 f i sdk_util.obj
 0001:0002bfb0       ?SetDataToClipboard@@YA_NPEB_WPEAUHWND__@@@Z 000000014002cfb0 f   sdk_util.obj
 0001:0002c0d0       ?UnListenAuthServiceEvent@SDKInterfaceWrap@@QEAAXPEAVIAuthServiceEvent@ZOOMSDK@@@Z 000000014002d0d0 f   sdk_util.obj
 0001:0002c100       ?UnListenChatServiceMgrEvent@SDKInterfaceWrap@@QEAAXPEAVIMeetingChatCtrlEvent@ZOOMSDK@@@Z 000000014002d100 f   sdk_util.obj
 0001:0002c130       ?UnListenCloseCaptionEvent@SDKInterfaceWrap@@QEAAXPEAVIClosedCaptionControllerEvent@ZOOMSDK@@@Z 000000014002d130 f   sdk_util.obj
 0001:0002c160       ?UnListenInMeetingServiceMgrEvent@SDKInterfaceWrap@@QEAAXPEAVISDKInMeetingServiceMgrEvent@@@Z 000000014002d160 f   sdk_util.obj
 0001:0002c190       ?UnListenMeetingParticipantsCtrEvent@SDKInterfaceWrap@@QEAAXPEAVIMeetingParticipantsCtrlEvent@ZOOMSDK@@@Z 000000014002d190 f   sdk_util.obj
 0001:0002c1c0       ?UnListenMeetingServiceEvent@SDKInterfaceWrap@@QEAAXPEAVIMeetingServiceEvent@ZOOMSDK@@@Z 000000014002d1c0 f   sdk_util.obj
 0001:0002c1f0       ?UnListenMeetingVideoCtrEvent@SDKInterfaceWrap@@QEAAXPEAVIMeetingVideoCtrlEvent@ZOOMSDK@@@Z 000000014002d1f0 f   sdk_util.obj
 0001:0002c220       ?Unlock@CComCriticalSection@ATL@@QEAAJXZ 000000014002d220 f i sdk_util.obj
 0001:0002c240       ?_Alloc_sentinel_and_proxy@?$_Tree@V?$_Tset_traits@PEAVIMeetingVideoCtrlEvent@ZOOMSDK@@U?$less@PEAVIMeetingVideoCtrlEvent@ZOOMSDK@@@std@@V?$allocator@PEAVIMeetingVideoCtrlEvent@ZOOMSDK@@@4@$0A@@std@@@std@@IEAAXXZ 000000014002d240 f i sdk_util.obj
 0001:0002c240       ?_Alloc_sentinel_and_proxy@?$_Tree@V?$_Tset_traits@PEAVIClosedCaptionControllerEvent@ZOOMSDK@@U?$less@PEAVIClosedCaptionControllerEvent@ZOOMSDK@@@std@@V?$allocator@PEAVIClosedCaptionControllerEvent@ZOOMSDK@@@4@$0A@@std@@@std@@IEAAXXZ 000000014002d240 f i sdk_util.obj
 0001:0002c240       ?_Alloc_sentinel_and_proxy@?$_Tree@V?$_Tset_traits@PEAVIMeetingParticipantsCtrlEvent@ZOOMSDK@@U?$less@PEAVIMeetingParticipantsCtrlEvent@ZOOMSDK@@@std@@V?$allocator@PEAVIMeetingParticipantsCtrlEvent@ZOOMSDK@@@4@$0A@@std@@@std@@IEAAXXZ 000000014002d240 f i sdk_util.obj
 0001:0002c240       ?_Alloc_sentinel_and_proxy@?$_Tree@V?$_Tset_traits@PEAVISDKInMeetingServiceMgrEvent@@U?$less@PEAVISDKInMeetingServiceMgrEvent@@@std@@V?$allocator@PEAVISDKInMeetingServiceMgrEvent@@@3@$0A@@std@@@std@@IEAAXXZ 000000014002d240 f i sdk_util.obj
 0001:0002c240       ?_Alloc_sentinel_and_proxy@?$_Tree@V?$_Tset_traits@PEAVIAuthServiceEvent@ZOOMSDK@@U?$less@PEAVIAuthServiceEvent@ZOOMSDK@@@std@@V?$allocator@PEAVIAuthServiceEvent@ZOOMSDK@@@4@$0A@@std@@@std@@IEAAXXZ 000000014002d240 f i sdk_util.obj
 0001:0002c240       ?_Alloc_sentinel_and_proxy@?$_Tree@V?$_Tset_traits@PEAVIMeetingChatCtrlEvent@ZOOMSDK@@U?$less@PEAVIMeetingChatCtrlEvent@ZOOMSDK@@@std@@V?$allocator@PEAVIMeetingChatCtrlEvent@ZOOMSDK@@@4@$0A@@std@@@std@@IEAAXXZ 000000014002d240 f i sdk_util.obj
 0001:0002c240       ?_Alloc_sentinel_and_proxy@?$_Tree@V?$_Tset_traits@PEAVIMeetingServiceEvent@ZOOMSDK@@U?$less@PEAVIMeetingServiceEvent@ZOOMSDK@@@std@@V?$allocator@PEAVIMeetingServiceEvent@ZOOMSDK@@@4@$0A@@std@@@std@@IEAAXXZ 000000014002d240 f i sdk_util.obj
 0001:0002c2b0       ?_Allocate@?$_Alloc_construct_ptr@V?$allocator@U?$_Tree_node@PEAVIClosedCaptionControllerEvent@ZOOMSDK@@PEAX@std@@@std@@@std@@QEAAXXZ 000000014002d2b0 f i sdk_util.obj
 0001:0002c2b0       ?_Allocate@?$_Alloc_construct_ptr@V?$allocator@U?$_Tree_node@PEAVIAuthServiceEvent@ZOOMSDK@@PEAX@std@@@std@@@std@@QEAAXXZ 000000014002d2b0 f i sdk_util.obj
 0001:0002c2b0       ?_Allocate@?$_Alloc_construct_ptr@V?$allocator@U?$_Tree_node@PEAVIMeetingVideoCtrlEvent@ZOOMSDK@@PEAX@std@@@std@@@std@@QEAAXXZ 000000014002d2b0 f i sdk_util.obj
 0001:0002c2b0       ?_Allocate@?$_Alloc_construct_ptr@V?$allocator@U?$_Tree_node@PEAVIMeetingServiceEvent@ZOOMSDK@@PEAX@std@@@std@@@std@@QEAAXXZ 000000014002d2b0 f i sdk_util.obj
 0001:0002c2b0       ?_Allocate@?$_Alloc_construct_ptr@V?$allocator@U?$_Tree_node@U?$pair@$$CBHW4bkItemType@@@std@@PEAX@std@@@std@@@std@@QEAAXXZ 000000014002d2b0 f i settings_ui.obj
 0001:0002c2b0       ?_Allocate@?$_Alloc_construct_ptr@V?$allocator@U?$_Tree_node@PEAVIMeetingParticipantsCtrlEvent@ZOOMSDK@@PEAX@std@@@std@@@std@@QEAAXXZ 000000014002d2b0 f i sdk_util.obj
 0001:0002c2b0       ?_Allocate@?$_Alloc_construct_ptr@V?$allocator@U?$_Tree_node@PEAVIMeetingChatCtrlEvent@ZOOMSDK@@PEAX@std@@@std@@@std@@QEAAXXZ 000000014002d2b0 f i sdk_util.obj
 0001:0002c2b0       ?_Allocate@?$_Alloc_construct_ptr@V?$allocator@U?$_Tree_node@PEAVISDKInMeetingServiceMgrEvent@@PEAX@std@@@std@@@std@@QEAAXXZ 000000014002d2b0 f i sdk_util.obj
 0001:0002c2f0       ?_Check_grow_by_1@?$_Tree@V?$_Tmap_traits@HW4bkItemType@@U?$less@H@std@@V?$allocator@U?$pair@$$CBHW4bkItemType@@@std@@@3@$0A@@std@@@std@@IEAAXXZ 000000014002d2f0 f i settings_ui.obj
 0001:0002c2f0       ?_Check_grow_by_1@?$_Tree@V?$_Tset_traits@PEAVIMeetingParticipantsCtrlEvent@ZOOMSDK@@U?$less@PEAVIMeetingParticipantsCtrlEvent@ZOOMSDK@@@std@@V?$allocator@PEAVIMeetingParticipantsCtrlEvent@ZOOMSDK@@@4@$0A@@std@@@std@@IEAAXXZ 000000014002d2f0 f i sdk_util.obj
 0001:0002c2f0       ?_Check_grow_by_1@?$_Tree@V?$_Tset_traits@PEAVIClosedCaptionControllerEvent@ZOOMSDK@@U?$less@PEAVIClosedCaptionControllerEvent@ZOOMSDK@@@std@@V?$allocator@PEAVIClosedCaptionControllerEvent@ZOOMSDK@@@4@$0A@@std@@@std@@IEAAXXZ 000000014002d2f0 f i sdk_util.obj
 0001:0002c2f0       ?_Check_grow_by_1@?$_Tree@V?$_Tset_traits@PEAVIMeetingChatCtrlEvent@ZOOMSDK@@U?$less@PEAVIMeetingChatCtrlEvent@ZOOMSDK@@@std@@V?$allocator@PEAVIMeetingChatCtrlEvent@ZOOMSDK@@@4@$0A@@std@@@std@@IEAAXXZ 000000014002d2f0 f i sdk_util.obj
 0001:0002c2f0       ?_Check_grow_by_1@?$_Tree@V?$_Tset_traits@PEAVIMeetingVideoCtrlEvent@ZOOMSDK@@U?$less@PEAVIMeetingVideoCtrlEvent@ZOOMSDK@@@std@@V?$allocator@PEAVIMeetingVideoCtrlEvent@ZOOMSDK@@@4@$0A@@std@@@std@@IEAAXXZ 000000014002d2f0 f i sdk_util.obj
 0001:0002c2f0       ?_Check_grow_by_1@?$_Tree@V?$_Tset_traits@PEAVISDKInMeetingServiceMgrEvent@@U?$less@PEAVISDKInMeetingServiceMgrEvent@@@std@@V?$allocator@PEAVISDKInMeetingServiceMgrEvent@@@3@$0A@@std@@@std@@IEAAXXZ 000000014002d2f0 f i sdk_util.obj
 0001:0002c2f0       ?_Check_grow_by_1@?$_Tree@V?$_Tset_traits@PEAVIMeetingServiceEvent@ZOOMSDK@@U?$less@PEAVIMeetingServiceEvent@ZOOMSDK@@@std@@V?$allocator@PEAVIMeetingServiceEvent@ZOOMSDK@@@4@$0A@@std@@@std@@IEAAXXZ 000000014002d2f0 f i sdk_util.obj
 0001:0002c2f0       ?_Check_grow_by_1@?$_Tree@V?$_Tset_traits@PEAVIAuthServiceEvent@ZOOMSDK@@U?$less@PEAVIAuthServiceEvent@ZOOMSDK@@@std@@V?$allocator@PEAVIAuthServiceEvent@ZOOMSDK@@@4@$0A@@std@@@std@@IEAAXXZ 000000014002d2f0 f i sdk_util.obj
 0001:0002c330       ?_Erase_unchecked@?$_Tree@V?$_Tset_traits@PEAVIMeetingChatCtrlEvent@ZOOMSDK@@U?$less@PEAVIMeetingChatCtrlEvent@ZOOMSDK@@@std@@V?$allocator@PEAVIMeetingChatCtrlEvent@ZOOMSDK@@@4@$0A@@std@@@std@@AEAAPEAU?$_Tree_node@PEAVIMeetingChatCtrlEvent@ZOOMSDK@@PEAX@2@V?$_Tree_unchecked_const_iterator@V?$_Tree_val@U?$_Tree_simple_types@PEAVIMeetingChatCtrlEvent@ZOOMSDK@@@std@@@std@@U_Iterator_base0@2@@2@0@Z 000000014002d330 f i sdk_util.obj
 0001:0002c330       ?_Erase_unchecked@?$_Tree@V?$_Tset_traits@PEAVIMeetingServiceEvent@ZOOMSDK@@U?$less@PEAVIMeetingServiceEvent@ZOOMSDK@@@std@@V?$allocator@PEAVIMeetingServiceEvent@ZOOMSDK@@@4@$0A@@std@@@std@@AEAAPEAU?$_Tree_node@PEAVIMeetingServiceEvent@ZOOMSDK@@PEAX@2@V?$_Tree_unchecked_const_iterator@V?$_Tree_val@U?$_Tree_simple_types@PEAVIMeetingServiceEvent@ZOOMSDK@@@std@@@std@@U_Iterator_base0@2@@2@0@Z 000000014002d330 f i sdk_util.obj
 0001:0002c330       ?_Erase_unchecked@?$_Tree@V?$_Tset_traits@PEAVIMeetingVideoCtrlEvent@ZOOMSDK@@U?$less@PEAVIMeetingVideoCtrlEvent@ZOOMSDK@@@std@@V?$allocator@PEAVIMeetingVideoCtrlEvent@ZOOMSDK@@@4@$0A@@std@@@std@@AEAAPEAU?$_Tree_node@PEAVIMeetingVideoCtrlEvent@ZOOMSDK@@PEAX@2@V?$_Tree_unchecked_const_iterator@V?$_Tree_val@U?$_Tree_simple_types@PEAVIMeetingVideoCtrlEvent@ZOOMSDK@@@std@@@std@@U_Iterator_base0@2@@2@0@Z 000000014002d330 f i sdk_util.obj
 0001:0002c330       ?_Erase_unchecked@?$_Tree@V?$_Tset_traits@PEAVIClosedCaptionControllerEvent@ZOOMSDK@@U?$less@PEAVIClosedCaptionControllerEvent@ZOOMSDK@@@std@@V?$allocator@PEAVIClosedCaptionControllerEvent@ZOOMSDK@@@4@$0A@@std@@@std@@AEAAPEAU?$_Tree_node@PEAVIClosedCaptionControllerEvent@ZOOMSDK@@PEAX@2@V?$_Tree_unchecked_const_iterator@V?$_Tree_val@U?$_Tree_simple_types@PEAVIClosedCaptionControllerEvent@ZOOMSDK@@@std@@@std@@U_Iterator_base0@2@@2@0@Z 000000014002d330 f i sdk_util.obj
 0001:0002c330       ?_Erase_unchecked@?$_Tree@V?$_Tset_traits@PEAVIMeetingParticipantsCtrlEvent@ZOOMSDK@@U?$less@PEAVIMeetingParticipantsCtrlEvent@ZOOMSDK@@@std@@V?$allocator@PEAVIMeetingParticipantsCtrlEvent@ZOOMSDK@@@4@$0A@@std@@@std@@AEAAPEAU?$_Tree_node@PEAVIMeetingParticipantsCtrlEvent@ZOOMSDK@@PEAX@2@V?$_Tree_unchecked_const_iterator@V?$_Tree_val@U?$_Tree_simple_types@PEAVIMeetingParticipantsCtrlEvent@ZOOMSDK@@@std@@@std@@U_Iterator_base0@2@@2@0@Z 000000014002d330 f i sdk_util.obj
 0001:0002c330       ?_Erase_unchecked@?$_Tree@V?$_Tset_traits@PEAVIAuthServiceEvent@ZOOMSDK@@U?$less@PEAVIAuthServiceEvent@ZOOMSDK@@@std@@V?$allocator@PEAVIAuthServiceEvent@ZOOMSDK@@@4@$0A@@std@@@std@@AEAAPEAU?$_Tree_node@PEAVIAuthServiceEvent@ZOOMSDK@@PEAX@2@V?$_Tree_unchecked_const_iterator@V?$_Tree_val@U?$_Tree_simple_types@PEAVIAuthServiceEvent@ZOOMSDK@@@std@@@std@@U_Iterator_base0@2@@2@0@Z 000000014002d330 f i sdk_util.obj
 0001:0002c330       ?_Erase_unchecked@?$_Tree@V?$_Tset_traits@PEAVISDKInMeetingServiceMgrEvent@@U?$less@PEAVISDKInMeetingServiceMgrEvent@@@std@@V?$allocator@PEAVISDKInMeetingServiceMgrEvent@@@3@$0A@@std@@@std@@AEAAPEAU?$_Tree_node@PEAVISDKInMeetingServiceMgrEvent@@PEAX@2@V?$_Tree_unchecked_const_iterator@V?$_Tree_val@U?$_Tree_simple_types@PEAVISDKInMeetingServiceMgrEvent@@@std@@@std@@U_Iterator_base0@2@@2@0@Z 000000014002d330 f i sdk_util.obj
 0001:0002c3d0       ?_Erase_unchecked@?$_Tree@V?$_Tset_traits@PEAVIMeetingParticipantsCtrlEvent@ZOOMSDK@@U?$less@PEAVIMeetingParticipantsCtrlEvent@ZOOMSDK@@@std@@V?$allocator@PEAVIMeetingParticipantsCtrlEvent@ZOOMSDK@@@4@$0A@@std@@@std@@AEAAPEAU?$_Tree_node@PEAVIMeetingParticipantsCtrlEvent@ZOOMSDK@@PEAX@2@V?$_Tree_unchecked_const_iterator@V?$_Tree_val@U?$_Tree_simple_types@PEAVIMeetingParticipantsCtrlEvent@ZOOMSDK@@@std@@@std@@U_Iterator_base0@2@@2@@Z 000000014002d3d0 f i sdk_util.obj
 0001:0002c3d0       ?_Erase_unchecked@?$_Tree@V?$_Tset_traits@PEAVIMeetingVideoCtrlEvent@ZOOMSDK@@U?$less@PEAVIMeetingVideoCtrlEvent@ZOOMSDK@@@std@@V?$allocator@PEAVIMeetingVideoCtrlEvent@ZOOMSDK@@@4@$0A@@std@@@std@@AEAAPEAU?$_Tree_node@PEAVIMeetingVideoCtrlEvent@ZOOMSDK@@PEAX@2@V?$_Tree_unchecked_const_iterator@V?$_Tree_val@U?$_Tree_simple_types@PEAVIMeetingVideoCtrlEvent@ZOOMSDK@@@std@@@std@@U_Iterator_base0@2@@2@@Z 000000014002d3d0 f i sdk_util.obj
 0001:0002c3d0       ?_Erase_unchecked@?$_Tree@V?$_Tset_traits@PEAVIMeetingServiceEvent@ZOOMSDK@@U?$less@PEAVIMeetingServiceEvent@ZOOMSDK@@@std@@V?$allocator@PEAVIMeetingServiceEvent@ZOOMSDK@@@4@$0A@@std@@@std@@AEAAPEAU?$_Tree_node@PEAVIMeetingServiceEvent@ZOOMSDK@@PEAX@2@V?$_Tree_unchecked_const_iterator@V?$_Tree_val@U?$_Tree_simple_types@PEAVIMeetingServiceEvent@ZOOMSDK@@@std@@@std@@U_Iterator_base0@2@@2@@Z 000000014002d3d0 f i sdk_util.obj
 0001:0002c3d0       ?_Erase_unchecked@?$_Tree@V?$_Tset_traits@PEAVIClosedCaptionControllerEvent@ZOOMSDK@@U?$less@PEAVIClosedCaptionControllerEvent@ZOOMSDK@@@std@@V?$allocator@PEAVIClosedCaptionControllerEvent@ZOOMSDK@@@4@$0A@@std@@@std@@AEAAPEAU?$_Tree_node@PEAVIClosedCaptionControllerEvent@ZOOMSDK@@PEAX@2@V?$_Tree_unchecked_const_iterator@V?$_Tree_val@U?$_Tree_simple_types@PEAVIClosedCaptionControllerEvent@ZOOMSDK@@@std@@@std@@U_Iterator_base0@2@@2@@Z 000000014002d3d0 f i sdk_util.obj
 0001:0002c3d0       ?_Erase_unchecked@?$_Tree@V?$_Tset_traits@PEAVISDKInMeetingServiceMgrEvent@@U?$less@PEAVISDKInMeetingServiceMgrEvent@@@std@@V?$allocator@PEAVISDKInMeetingServiceMgrEvent@@@3@$0A@@std@@@std@@AEAAPEAU?$_Tree_node@PEAVISDKInMeetingServiceMgrEvent@@PEAX@2@V?$_Tree_unchecked_const_iterator@V?$_Tree_val@U?$_Tree_simple_types@PEAVISDKInMeetingServiceMgrEvent@@@std@@@std@@U_Iterator_base0@2@@2@@Z 000000014002d3d0 f i sdk_util.obj
 0001:0002c3d0       ?_Erase_unchecked@?$_Tree@V?$_Tset_traits@PEAVIMeetingChatCtrlEvent@ZOOMSDK@@U?$less@PEAVIMeetingChatCtrlEvent@ZOOMSDK@@@std@@V?$allocator@PEAVIMeetingChatCtrlEvent@ZOOMSDK@@@4@$0A@@std@@@std@@AEAAPEAU?$_Tree_node@PEAVIMeetingChatCtrlEvent@ZOOMSDK@@PEAX@2@V?$_Tree_unchecked_const_iterator@V?$_Tree_val@U?$_Tree_simple_types@PEAVIMeetingChatCtrlEvent@ZOOMSDK@@@std@@@std@@U_Iterator_base0@2@@2@@Z 000000014002d3d0 f i sdk_util.obj
 0001:0002c3d0       ?_Erase_unchecked@?$_Tree@V?$_Tset_traits@PEAVIAuthServiceEvent@ZOOMSDK@@U?$less@PEAVIAuthServiceEvent@ZOOMSDK@@@std@@V?$allocator@PEAVIAuthServiceEvent@ZOOMSDK@@@4@$0A@@std@@@std@@AEAAPEAU?$_Tree_node@PEAVIAuthServiceEvent@ZOOMSDK@@PEAX@2@V?$_Tree_unchecked_const_iterator@V?$_Tree_val@U?$_Tree_simple_types@PEAVIAuthServiceEvent@ZOOMSDK@@@std@@@std@@U_Iterator_base0@2@@2@@Z 000000014002d3d0 f i sdk_util.obj
 0001:0002c450       ?_Extract@?$_Tree_val@U?$_Tree_simple_types@PEAVIMeetingVideoCtrlEvent@ZOOMSDK@@@std@@@std@@QEAAPEAU?$_Tree_node@PEAVIMeetingVideoCtrlEvent@ZOOMSDK@@PEAX@2@V?$_Tree_unchecked_const_iterator@V?$_Tree_val@U?$_Tree_simple_types@PEAVIMeetingVideoCtrlEvent@ZOOMSDK@@@std@@@std@@U_Iterator_base0@2@@2@@Z 000000014002d450 f i sdk_util.obj
 0001:0002c450       ?_Extract@?$_Tree_val@U?$_Tree_simple_types@PEAVISDKInMeetingServiceMgrEvent@@@std@@@std@@QEAAPEAU?$_Tree_node@PEAVISDKInMeetingServiceMgrEvent@@PEAX@2@V?$_Tree_unchecked_const_iterator@V?$_Tree_val@U?$_Tree_simple_types@PEAVISDKInMeetingServiceMgrEvent@@@std@@@std@@U_Iterator_base0@2@@2@@Z 000000014002d450 f i sdk_util.obj
 0001:0002c450       ?_Extract@?$_Tree_val@U?$_Tree_simple_types@PEAVIClosedCaptionControllerEvent@ZOOMSDK@@@std@@@std@@QEAAPEAU?$_Tree_node@PEAVIClosedCaptionControllerEvent@ZOOMSDK@@PEAX@2@V?$_Tree_unchecked_const_iterator@V?$_Tree_val@U?$_Tree_simple_types@PEAVIClosedCaptionControllerEvent@ZOOMSDK@@@std@@@std@@U_Iterator_base0@2@@2@@Z 000000014002d450 f i sdk_util.obj
 0001:0002c450       ?_Extract@?$_Tree_val@U?$_Tree_simple_types@PEAVIMeetingChatCtrlEvent@ZOOMSDK@@@std@@@std@@QEAAPEAU?$_Tree_node@PEAVIMeetingChatCtrlEvent@ZOOMSDK@@PEAX@2@V?$_Tree_unchecked_const_iterator@V?$_Tree_val@U?$_Tree_simple_types@PEAVIMeetingChatCtrlEvent@ZOOMSDK@@@std@@@std@@U_Iterator_base0@2@@2@@Z 000000014002d450 f i sdk_util.obj
 0001:0002c450       ?_Extract@?$_Tree_val@U?$_Tree_simple_types@PEAVIMeetingServiceEvent@ZOOMSDK@@@std@@@std@@QEAAPEAU?$_Tree_node@PEAVIMeetingServiceEvent@ZOOMSDK@@PEAX@2@V?$_Tree_unchecked_const_iterator@V?$_Tree_val@U?$_Tree_simple_types@PEAVIMeetingServiceEvent@ZOOMSDK@@@std@@@std@@U_Iterator_base0@2@@2@@Z 000000014002d450 f i sdk_util.obj
 0001:0002c450       ?_Extract@?$_Tree_val@U?$_Tree_simple_types@U?$pair@$$CBIPEAVIUserInfo@ZOOMSDK@@@std@@@std@@@std@@QEAAPEAU?$_Tree_node@U?$pair@$$CBIPEAVIUserInfo@ZOOMSDK@@@std@@PEAX@2@V?$_Tree_unchecked_const_iterator@V?$_Tree_val@U?$_Tree_simple_types@U?$pair@$$CBIPEAVIUserInfo@ZOOMSDK@@@std@@@std@@@std@@U_Iterator_base0@2@@2@@Z 000000014002d450 f i user_manager.obj
 0001:0002c450       ?_Extract@?$_Tree_val@U?$_Tree_simple_types@U?$pair@$$CBHW4bkItemType@@@std@@@std@@@std@@QEAAPEAU?$_Tree_node@U?$pair@$$CBHW4bkItemType@@@std@@PEAX@2@V?$_Tree_unchecked_const_iterator@V?$_Tree_val@U?$_Tree_simple_types@U?$pair@$$CBHW4bkItemType@@@std@@@std@@@std@@U_Iterator_base0@2@@2@@Z 000000014002d450 f i settings_ui.obj
 0001:0002c450       ?_Extract@?$_Tree_val@U?$_Tree_simple_types@PEAVIAuthServiceEvent@ZOOMSDK@@@std@@@std@@QEAAPEAU?$_Tree_node@PEAVIAuthServiceEvent@ZOOMSDK@@PEAX@2@V?$_Tree_unchecked_const_iterator@V?$_Tree_val@U?$_Tree_simple_types@PEAVIAuthServiceEvent@ZOOMSDK@@@std@@@std@@U_Iterator_base0@2@@2@@Z 000000014002d450 f i sdk_util.obj
 0001:0002c450       ?_Extract@?$_Tree_val@U?$_Tree_simple_types@PEAVIMeetingParticipantsCtrlEvent@ZOOMSDK@@@std@@@std@@QEAAPEAU?$_Tree_node@PEAVIMeetingParticipantsCtrlEvent@ZOOMSDK@@PEAX@2@V?$_Tree_unchecked_const_iterator@V?$_Tree_val@U?$_Tree_simple_types@PEAVIMeetingParticipantsCtrlEvent@ZOOMSDK@@@std@@@std@@U_Iterator_base0@2@@2@@Z 000000014002d450 f i sdk_util.obj
 0001:0002c9f0       ?OnControlInfoChanged@CActiveXCtrl@DuiLib@@UEAAJXZ 000000014002d9f0 f i DuiLib64:UIActiveX.obj
 0001:0002c9f0       ?GetSuperClassName@CWindowWnd@DuiLib@@MEBAPEB_WXZ 000000014002d9f0 f i DuiLib64:UIBase.obj
 0001:0002c9f0       ?CanInPlaceActivate@CActiveXCtrl@DuiLib@@UEAAJXZ 000000014002d9f0 f i DuiLib64:UIActiveX.obj
 0001:0002c9f0       ?GetClassStyle@CWindowWnd@DuiLib@@MEBAIXZ 000000014002d9f0 f i DuiLib64:UIBase.obj
 0001:0002c9f0       ?TxImmGetContext@CTxtWinHost@DuiLib@@UEAAPEAUHIMC__@@XZ 000000014002d9f0 f i DuiLib64:UIRichEdit.obj
 0001:0002c9f0       ?_Getcont@_Iterator_base0@std@@QEBAPEBU_Container_base0@2@XZ 000000014002d9f0 f i sdk_util.obj
 0001:0002c9f0       ?CanWindowlessActivate@CActiveXCtrl@DuiLib@@UEAAJXZ 000000014002d9f0 f i DuiLib64:UIActiveX.obj
 0001:0002c9f0       ?RequestUIActivate@CActiveXCtrl@DuiLib@@UEAAJXZ 000000014002d9f0 f i DuiLib64:UIActiveX.obj
 0001:0002c9f0       ?GetControlFlags@CControlUI@DuiLib@@UEBAIXZ 000000014002d9f0 f i DuiLib64:UIControl.obj
 0001:0002c9f0       ?GetNativeWindow@CControlUI@DuiLib@@UEBAPEAUHWND__@@XZ 000000014002d9f0 f i DuiLib64:UIControl.obj
 0001:0002ca00       ?_Insert_node@?$_Tree_val@U?$_Tree_simple_types@PEAVIMeetingVideoCtrlEvent@ZOOMSDK@@@std@@@std@@QEAAPEAU?$_Tree_node@PEAVIMeetingVideoCtrlEvent@ZOOMSDK@@PEAX@2@U?$_Tree_id@PEAU?$_Tree_node@PEAVIMeetingVideoCtrlEvent@ZOOMSDK@@PEAX@std@@@2@QEAU32@@Z 000000014002da00 f i sdk_util.obj
 0001:0002ca00       ?_Insert_node@?$_Tree_val@U?$_Tree_simple_types@U?$pair@$$CBIPEAVIUserInfo@ZOOMSDK@@@std@@@std@@@std@@QEAAPEAU?$_Tree_node@U?$pair@$$CBIPEAVIUserInfo@ZOOMSDK@@@std@@PEAX@2@U?$_Tree_id@PEAU?$_Tree_node@U?$pair@$$CBIPEAVIUserInfo@ZOOMSDK@@@std@@PEAX@std@@@2@QEAU32@@Z 000000014002da00 f i user_manager.obj
 0001:0002ca00       ?_Insert_node@?$_Tree_val@U?$_Tree_simple_types@PEAVISDKInMeetingServiceMgrEvent@@@std@@@std@@QEAAPEAU?$_Tree_node@PEAVISDKInMeetingServiceMgrEvent@@PEAX@2@U?$_Tree_id@PEAU?$_Tree_node@PEAVISDKInMeetingServiceMgrEvent@@PEAX@std@@@2@QEAU32@@Z 000000014002da00 f i sdk_util.obj
 0001:0002ca00       ?_Insert_node@?$_Tree_val@U?$_Tree_simple_types@PEAVIAuthServiceEvent@ZOOMSDK@@@std@@@std@@QEAAPEAU?$_Tree_node@PEAVIAuthServiceEvent@ZOOMSDK@@PEAX@2@U?$_Tree_id@PEAU?$_Tree_node@PEAVIAuthServiceEvent@ZOOMSDK@@PEAX@std@@@2@QEAU32@@Z 000000014002da00 f i sdk_util.obj
 0001:0002ca00       ?_Insert_node@?$_Tree_val@U?$_Tree_simple_types@PEAVIMeetingParticipantsCtrlEvent@ZOOMSDK@@@std@@@std@@QEAAPEAU?$_Tree_node@PEAVIMeetingParticipantsCtrlEvent@ZOOMSDK@@PEAX@2@U?$_Tree_id@PEAU?$_Tree_node@PEAVIMeetingParticipantsCtrlEvent@ZOOMSDK@@PEAX@std@@@2@QEAU32@@Z 000000014002da00 f i sdk_util.obj
 0001:0002ca00       ?_Insert_node@?$_Tree_val@U?$_Tree_simple_types@PEAVIClosedCaptionControllerEvent@ZOOMSDK@@@std@@@std@@QEAAPEAU?$_Tree_node@PEAVIClosedCaptionControllerEvent@ZOOMSDK@@PEAX@2@U?$_Tree_id@PEAU?$_Tree_node@PEAVIClosedCaptionControllerEvent@ZOOMSDK@@PEAX@std@@@2@QEAU32@@Z 000000014002da00 f i sdk_util.obj
 0001:0002ca00       ?_Insert_node@?$_Tree_val@U?$_Tree_simple_types@PEAVIMeetingChatCtrlEvent@ZOOMSDK@@@std@@@std@@QEAAPEAU?$_Tree_node@PEAVIMeetingChatCtrlEvent@ZOOMSDK@@PEAX@2@U?$_Tree_id@PEAU?$_Tree_node@PEAVIMeetingChatCtrlEvent@ZOOMSDK@@PEAX@std@@@2@QEAU32@@Z 000000014002da00 f i sdk_util.obj
 0001:0002ca00       ?_Insert_node@?$_Tree_val@U?$_Tree_simple_types@PEAVIMeetingServiceEvent@ZOOMSDK@@@std@@@std@@QEAAPEAU?$_Tree_node@PEAVIMeetingServiceEvent@ZOOMSDK@@PEAX@2@U?$_Tree_id@PEAU?$_Tree_node@PEAVIMeetingServiceEvent@ZOOMSDK@@PEAX@std@@@2@QEAU32@@Z 000000014002da00 f i sdk_util.obj
 0001:0002ca00       ?_Insert_node@?$_Tree_val@U?$_Tree_simple_types@U?$pair@$$CBHW4bkItemType@@@std@@@std@@@std@@QEAAPEAU?$_Tree_node@U?$pair@$$CBHW4bkItemType@@@std@@PEAX@2@U?$_Tree_id@PEAU?$_Tree_node@U?$pair@$$CBHW4bkItemType@@@std@@PEAX@std@@@2@QEAU32@@Z 000000014002da00 f i settings_ui.obj
 0001:0002ccf0       ?_Lrotate@?$_Tree_val@U?$_Tree_simple_types@PEAVIMeetingChatCtrlEvent@ZOOMSDK@@@std@@@std@@QEAAXPEAU?$_Tree_node@PEAVIMeetingChatCtrlEvent@ZOOMSDK@@PEAX@2@@Z 000000014002dcf0 f i sdk_util.obj
 0001:0002ccf0       ?_Lrotate@?$_Tree_val@U?$_Tree_simple_types@U?$pair@$$CBIPEAVIUserInfo@ZOOMSDK@@@std@@@std@@@std@@QEAAXPEAU?$_Tree_node@U?$pair@$$CBIPEAVIUserInfo@ZOOMSDK@@@std@@PEAX@2@@Z 000000014002dcf0 f i user_manager.obj
 0001:0002ccf0       ?_Lrotate@?$_Tree_val@U?$_Tree_simple_types@PEAVISDKInMeetingServiceMgrEvent@@@std@@@std@@QEAAXPEAU?$_Tree_node@PEAVISDKInMeetingServiceMgrEvent@@PEAX@2@@Z 000000014002dcf0 f i sdk_util.obj
 0001:0002ccf0       ?_Lrotate@?$_Tree_val@U?$_Tree_simple_types@PEAVIAuthServiceEvent@ZOOMSDK@@@std@@@std@@QEAAXPEAU?$_Tree_node@PEAVIAuthServiceEvent@ZOOMSDK@@PEAX@2@@Z 000000014002dcf0 f i sdk_util.obj
 0001:0002ccf0       ?_Lrotate@?$_Tree_val@U?$_Tree_simple_types@PEAVIMeetingServiceEvent@ZOOMSDK@@@std@@@std@@QEAAXPEAU?$_Tree_node@PEAVIMeetingServiceEvent@ZOOMSDK@@PEAX@2@@Z 000000014002dcf0 f i sdk_util.obj
 0001:0002ccf0       ?_Lrotate@?$_Tree_val@U?$_Tree_simple_types@PEAVIMeetingVideoCtrlEvent@ZOOMSDK@@@std@@@std@@QEAAXPEAU?$_Tree_node@PEAVIMeetingVideoCtrlEvent@ZOOMSDK@@PEAX@2@@Z 000000014002dcf0 f i sdk_util.obj
 0001:0002ccf0       ?_Lrotate@?$_Tree_val@U?$_Tree_simple_types@U?$pair@$$CBHW4bkItemType@@@std@@@std@@@std@@QEAAXPEAU?$_Tree_node@U?$pair@$$CBHW4bkItemType@@@std@@PEAX@2@@Z 000000014002dcf0 f i settings_ui.obj
 0001:0002ccf0       ?_Lrotate@?$_Tree_val@U?$_Tree_simple_types@PEAVIMeetingParticipantsCtrlEvent@ZOOMSDK@@@std@@@std@@QEAAXPEAU?$_Tree_node@PEAVIMeetingParticipantsCtrlEvent@ZOOMSDK@@PEAX@2@@Z 000000014002dcf0 f i sdk_util.obj
 0001:0002ccf0       ?_Lrotate@?$_Tree_val@U?$_Tree_simple_types@PEAVIClosedCaptionControllerEvent@ZOOMSDK@@@std@@@std@@QEAAXPEAU?$_Tree_node@PEAVIClosedCaptionControllerEvent@ZOOMSDK@@PEAX@2@@Z 000000014002dcf0 f i sdk_util.obj
 0001:0002cdd0       ?_Max@?$_Tree_val@U?$_Tree_simple_types@PEAVIAuthServiceEvent@ZOOMSDK@@@std@@@std@@SAPEAU?$_Tree_node@PEAVIAuthServiceEvent@ZOOMSDK@@PEAX@2@PEAU32@@Z 000000014002ddd0 f i sdk_util.obj
 0001:0002cdd0       ?_Max@?$_Tree_val@U?$_Tree_simple_types@PEAVIMeetingServiceEvent@ZOOMSDK@@@std@@@std@@SAPEAU?$_Tree_node@PEAVIMeetingServiceEvent@ZOOMSDK@@PEAX@2@PEAU32@@Z 000000014002ddd0 f i sdk_util.obj
 0001:0002cdd0       ?_Max@?$_Tree_val@U?$_Tree_simple_types@PEAVIMeetingParticipantsCtrlEvent@ZOOMSDK@@@std@@@std@@SAPEAU?$_Tree_node@PEAVIMeetingParticipantsCtrlEvent@ZOOMSDK@@PEAX@2@PEAU32@@Z 000000014002ddd0 f i sdk_util.obj
 0001:0002cdd0       ?_Max@?$_Tree_val@U?$_Tree_simple_types@U?$pair@$$CBHW4bkItemType@@@std@@@std@@@std@@SAPEAU?$_Tree_node@U?$pair@$$CBHW4bkItemType@@@std@@PEAX@2@PEAU32@@Z 000000014002ddd0 f i settings_ui.obj
 0001:0002cdd0       ?_Max@?$_Tree_val@U?$_Tree_simple_types@PEAVIMeetingVideoCtrlEvent@ZOOMSDK@@@std@@@std@@SAPEAU?$_Tree_node@PEAVIMeetingVideoCtrlEvent@ZOOMSDK@@PEAX@2@PEAU32@@Z 000000014002ddd0 f i sdk_util.obj
 0001:0002cdd0       ?_Max@?$_Tree_val@U?$_Tree_simple_types@PEAVISDKInMeetingServiceMgrEvent@@@std@@@std@@SAPEAU?$_Tree_node@PEAVISDKInMeetingServiceMgrEvent@@PEAX@2@PEAU32@@Z 000000014002ddd0 f i sdk_util.obj
 0001:0002cdd0       ?_Max@?$_Tree_val@U?$_Tree_simple_types@PEAVIMeetingChatCtrlEvent@ZOOMSDK@@@std@@@std@@SAPEAU?$_Tree_node@PEAVIMeetingChatCtrlEvent@ZOOMSDK@@PEAX@2@PEAU32@@Z 000000014002ddd0 f i sdk_util.obj
 0001:0002cdd0       ?_Max@?$_Tree_val@U?$_Tree_simple_types@U?$pair@$$CBIPEAVIUserInfo@ZOOMSDK@@@std@@@std@@@std@@SAPEAU?$_Tree_node@U?$pair@$$CBIPEAVIUserInfo@ZOOMSDK@@@std@@PEAX@2@PEAU32@@Z 000000014002ddd0 f i user_manager.obj
 0001:0002cdd0       ?_Max@?$_Tree_val@U?$_Tree_simple_types@PEAVIClosedCaptionControllerEvent@ZOOMSDK@@@std@@@std@@SAPEAU?$_Tree_node@PEAVIClosedCaptionControllerEvent@ZOOMSDK@@PEAX@2@PEAU32@@Z 000000014002ddd0 f i sdk_util.obj
 0001:0002ce00       ?_Min@?$_Tree_val@U?$_Tree_simple_types@U?$pair@$$CBIPEAVIUserInfo@ZOOMSDK@@@std@@@std@@@std@@SAPEAU?$_Tree_node@U?$pair@$$CBIPEAVIUserInfo@ZOOMSDK@@@std@@PEAX@2@PEAU32@@Z 000000014002de00 f i user_manager.obj
 0001:0002ce00       ?_Min@?$_Tree_val@U?$_Tree_simple_types@PEAVIClosedCaptionControllerEvent@ZOOMSDK@@@std@@@std@@SAPEAU?$_Tree_node@PEAVIClosedCaptionControllerEvent@ZOOMSDK@@PEAX@2@PEAU32@@Z 000000014002de00 f i sdk_util.obj
 0001:0002ce00       ?_Min@?$_Tree_val@U?$_Tree_simple_types@PEAVISDKInMeetingServiceMgrEvent@@@std@@@std@@SAPEAU?$_Tree_node@PEAVISDKInMeetingServiceMgrEvent@@PEAX@2@PEAU32@@Z 000000014002de00 f i sdk_util.obj
 0001:0002ce00       ?_Min@?$_Tree_val@U?$_Tree_simple_types@U?$pair@$$CBHW4bkItemType@@@std@@@std@@@std@@SAPEAU?$_Tree_node@U?$pair@$$CBHW4bkItemType@@@std@@PEAX@2@PEAU32@@Z 000000014002de00 f i settings_ui.obj
 0001:0002ce00       ?_Min@?$_Tree_val@U?$_Tree_simple_types@PEAVIMeetingParticipantsCtrlEvent@ZOOMSDK@@@std@@@std@@SAPEAU?$_Tree_node@PEAVIMeetingParticipantsCtrlEvent@ZOOMSDK@@PEAX@2@PEAU32@@Z 000000014002de00 f i sdk_util.obj
 0001:0002ce00       ?_Min@?$_Tree_val@U?$_Tree_simple_types@PEAVIMeetingServiceEvent@ZOOMSDK@@@std@@@std@@SAPEAU?$_Tree_node@PEAVIMeetingServiceEvent@ZOOMSDK@@PEAX@2@PEAU32@@Z 000000014002de00 f i sdk_util.obj
 0001:0002ce00       ?_Min@?$_Tree_val@U?$_Tree_simple_types@PEAVIAuthServiceEvent@ZOOMSDK@@@std@@@std@@SAPEAU?$_Tree_node@PEAVIAuthServiceEvent@ZOOMSDK@@PEAX@2@PEAU32@@Z 000000014002de00 f i sdk_util.obj
 0001:0002ce00       ?_Min@?$_Tree_val@U?$_Tree_simple_types@PEAVIMeetingChatCtrlEvent@ZOOMSDK@@@std@@@std@@SAPEAU?$_Tree_node@PEAVIMeetingChatCtrlEvent@ZOOMSDK@@PEAX@2@PEAU32@@Z 000000014002de00 f i sdk_util.obj
 0001:0002ce00       ?_Min@?$_Tree_val@U?$_Tree_simple_types@PEAVIMeetingVideoCtrlEvent@ZOOMSDK@@@std@@@std@@SAPEAU?$_Tree_node@PEAVIMeetingVideoCtrlEvent@ZOOMSDK@@PEAX@2@PEAU32@@Z 000000014002de00 f i sdk_util.obj
 0001:0002ce30       ?_Release@?$_Alloc_construct_ptr@V?$allocator@U?$_Tree_node@PEAVIMeetingParticipantsCtrlEvent@ZOOMSDK@@PEAX@std@@@std@@@std@@QEAAPEAU?$_Tree_node@PEAVIMeetingParticipantsCtrlEvent@ZOOMSDK@@PEAX@2@XZ 000000014002de30 f i sdk_util.obj
 0001:0002ce30       ?_Release@?$_Alloc_construct_ptr@V?$allocator@U?$_Tree_node@PEAVISDKInMeetingServiceMgrEvent@@PEAX@std@@@std@@@std@@QEAAPEAU?$_Tree_node@PEAVISDKInMeetingServiceMgrEvent@@PEAX@2@XZ 000000014002de30 f i sdk_util.obj
 0001:0002ce30       ?_Release@?$_Alloc_construct_ptr@V?$allocator@U?$_Tree_node@PEAVIClosedCaptionControllerEvent@ZOOMSDK@@PEAX@std@@@std@@@std@@QEAAPEAU?$_Tree_node@PEAVIClosedCaptionControllerEvent@ZOOMSDK@@PEAX@2@XZ 000000014002de30 f i sdk_util.obj
 0001:0002ce30       ?_Release@?$_Alloc_construct_ptr@V?$allocator@U?$_Tree_node@PEAVIMeetingVideoCtrlEvent@ZOOMSDK@@PEAX@std@@@std@@@std@@QEAAPEAU?$_Tree_node@PEAVIMeetingVideoCtrlEvent@ZOOMSDK@@PEAX@2@XZ 000000014002de30 f i sdk_util.obj
 0001:0002ce30       ?_Release@?$_Alloc_construct_ptr@V?$allocator@U?$_Tree_node@PEAVIMeetingChatCtrlEvent@ZOOMSDK@@PEAX@std@@@std@@@std@@QEAAPEAU?$_Tree_node@PEAVIMeetingChatCtrlEvent@ZOOMSDK@@PEAX@2@XZ 000000014002de30 f i sdk_util.obj
 0001:0002ce30       ?_Release@?$_Alloc_construct_ptr@V?$allocator@U?$_Tree_node@PEAVIAuthServiceEvent@ZOOMSDK@@PEAX@std@@@std@@@std@@QEAAPEAU?$_Tree_node@PEAVIAuthServiceEvent@ZOOMSDK@@PEAX@2@XZ 000000014002de30 f i sdk_util.obj
 0001:0002ce30       ?_Release@?$_Alloc_construct_ptr@V?$allocator@U?$_Tree_node@U?$pair@$$CBHW4bkItemType@@@std@@PEAX@std@@@std@@@std@@QEAAPEAU?$_Tree_node@U?$pair@$$CBHW4bkItemType@@@std@@PEAX@2@XZ 000000014002de30 f i settings_ui.obj
 0001:0002ce30       ?_Release@?$_Alloc_construct_ptr@V?$allocator@U?$_Tree_node@U?$pair@$$CBIPEAVIUserInfo@ZOOMSDK@@@std@@PEAX@std@@@std@@@std@@QEAAPEAU?$_Tree_node@U?$pair@$$CBIPEAVIUserInfo@ZOOMSDK@@@std@@PEAX@2@XZ 000000014002de30 f i user_manager.obj
 0001:0002ce30       ?_Release@?$_Alloc_construct_ptr@V?$allocator@U?$_Tree_node@PEAVIMeetingServiceEvent@ZOOMSDK@@PEAX@std@@@std@@@std@@QEAAPEAU?$_Tree_node@PEAVIMeetingServiceEvent@ZOOMSDK@@PEAX@2@XZ 000000014002de30 f i sdk_util.obj
 0001:0002ce60       ?_Rrotate@?$_Tree_val@U?$_Tree_simple_types@U?$pair@$$CBIPEAVIUserInfo@ZOOMSDK@@@std@@@std@@@std@@QEAAXPEAU?$_Tree_node@U?$pair@$$CBIPEAVIUserInfo@ZOOMSDK@@@std@@PEAX@2@@Z 000000014002de60 f i user_manager.obj
 0001:0002ce60       ?_Rrotate@?$_Tree_val@U?$_Tree_simple_types@U?$pair@$$CBHW4bkItemType@@@std@@@std@@@std@@QEAAXPEAU?$_Tree_node@U?$pair@$$CBHW4bkItemType@@@std@@PEAX@2@@Z 000000014002de60 f i settings_ui.obj
 0001:0002ce60       ?_Rrotate@?$_Tree_val@U?$_Tree_simple_types@PEAVIMeetingServiceEvent@ZOOMSDK@@@std@@@std@@QEAAXPEAU?$_Tree_node@PEAVIMeetingServiceEvent@ZOOMSDK@@PEAX@2@@Z 000000014002de60 f i sdk_util.obj
 0001:0002ce60       ?_Rrotate@?$_Tree_val@U?$_Tree_simple_types@PEAVIMeetingVideoCtrlEvent@ZOOMSDK@@@std@@@std@@QEAAXPEAU?$_Tree_node@PEAVIMeetingVideoCtrlEvent@ZOOMSDK@@PEAX@2@@Z 000000014002de60 f i sdk_util.obj
 0001:0002ce60       ?_Rrotate@?$_Tree_val@U?$_Tree_simple_types@PEAVIMeetingParticipantsCtrlEvent@ZOOMSDK@@@std@@@std@@QEAAXPEAU?$_Tree_node@PEAVIMeetingParticipantsCtrlEvent@ZOOMSDK@@PEAX@2@@Z 000000014002de60 f i sdk_util.obj
 0001:0002ce60       ?_Rrotate@?$_Tree_val@U?$_Tree_simple_types@PEAVIClosedCaptionControllerEvent@ZOOMSDK@@@std@@@std@@QEAAXPEAU?$_Tree_node@PEAVIClosedCaptionControllerEvent@ZOOMSDK@@PEAX@2@@Z 000000014002de60 f i sdk_util.obj
 0001:0002ce60       ?_Rrotate@?$_Tree_val@U?$_Tree_simple_types@PEAVISDKInMeetingServiceMgrEvent@@@std@@@std@@QEAAXPEAU?$_Tree_node@PEAVISDKInMeetingServiceMgrEvent@@PEAX@2@@Z 000000014002de60 f i sdk_util.obj
 0001:0002ce60       ?_Rrotate@?$_Tree_val@U?$_Tree_simple_types@PEAVIAuthServiceEvent@ZOOMSDK@@@std@@@std@@QEAAXPEAU?$_Tree_node@PEAVIAuthServiceEvent@ZOOMSDK@@PEAX@2@@Z 000000014002de60 f i sdk_util.obj
 0001:0002ce60       ?_Rrotate@?$_Tree_val@U?$_Tree_simple_types@PEAVIMeetingChatCtrlEvent@ZOOMSDK@@@std@@@std@@QEAAXPEAU?$_Tree_node@PEAVIMeetingChatCtrlEvent@ZOOMSDK@@PEAX@2@@Z 000000014002de60 f i sdk_util.obj
 0001:0002cf40       ?_Throw_tree_length_error@std@@YAXXZ 000000014002df40 f i sdk_util.obj
 0001:0002cf60       ?_Unchecked_begin@?$_Tree@V?$_Tset_traits@PEAVIMeetingParticipantsCtrlEvent@ZOOMSDK@@U?$less@PEAVIMeetingParticipantsCtrlEvent@ZOOMSDK@@@std@@V?$allocator@PEAVIMeetingParticipantsCtrlEvent@ZOOMSDK@@@4@$0A@@std@@@std@@QEAA?AV?$_Tree_unchecked_const_iterator@V?$_Tree_val@U?$_Tree_simple_types@PEAVIMeetingParticipantsCtrlEvent@ZOOMSDK@@@std@@@std@@U_Iterator_base0@2@@2@XZ 000000014002df60 f i sdk_util.obj
 0001:0002cf60       ?_Unchecked_begin@?$_Tree@V?$_Tset_traits@PEAVIClosedCaptionControllerEvent@ZOOMSDK@@U?$less@PEAVIClosedCaptionControllerEvent@ZOOMSDK@@@std@@V?$allocator@PEAVIClosedCaptionControllerEvent@ZOOMSDK@@@4@$0A@@std@@@std@@QEAA?AV?$_Tree_unchecked_const_iterator@V?$_Tree_val@U?$_Tree_simple_types@PEAVIClosedCaptionControllerEvent@ZOOMSDK@@@std@@@std@@U_Iterator_base0@2@@2@XZ 000000014002df60 f i sdk_util.obj
 0001:0002cf60       ?_Unchecked_begin@?$_Tree@V?$_Tset_traits@PEAVIMeetingChatCtrlEvent@ZOOMSDK@@U?$less@PEAVIMeetingChatCtrlEvent@ZOOMSDK@@@std@@V?$allocator@PEAVIMeetingChatCtrlEvent@ZOOMSDK@@@4@$0A@@std@@@std@@QEAA?AV?$_Tree_unchecked_const_iterator@V?$_Tree_val@U?$_Tree_simple_types@PEAVIMeetingChatCtrlEvent@ZOOMSDK@@@std@@@std@@U_Iterator_base0@2@@2@XZ 000000014002df60 f i sdk_util.obj
 0001:0002cf60       ?_Unchecked_begin@?$_Tree@V?$_Tset_traits@PEAVISDKInMeetingServiceMgrEvent@@U?$less@PEAVISDKInMeetingServiceMgrEvent@@@std@@V?$allocator@PEAVISDKInMeetingServiceMgrEvent@@@3@$0A@@std@@@std@@QEAA?AV?$_Tree_unchecked_const_iterator@V?$_Tree_val@U?$_Tree_simple_types@PEAVISDKInMeetingServiceMgrEvent@@@std@@@std@@U_Iterator_base0@2@@2@XZ 000000014002df60 f i sdk_util.obj
 0001:0002cf60       ?_Unchecked_begin@?$_Tree@V?$_Tset_traits@PEAVIMeetingServiceEvent@ZOOMSDK@@U?$less@PEAVIMeetingServiceEvent@ZOOMSDK@@@std@@V?$allocator@PEAVIMeetingServiceEvent@ZOOMSDK@@@4@$0A@@std@@@std@@QEAA?AV?$_Tree_unchecked_const_iterator@V?$_Tree_val@U?$_Tree_simple_types@PEAVIMeetingServiceEvent@ZOOMSDK@@@std@@@std@@U_Iterator_base0@2@@2@XZ 000000014002df60 f i sdk_util.obj
 0001:0002cf60       ?_Unchecked_begin@?$_Tree@V?$_Tset_traits@PEAVIMeetingVideoCtrlEvent@ZOOMSDK@@U?$less@PEAVIMeetingVideoCtrlEvent@ZOOMSDK@@@std@@V?$allocator@PEAVIMeetingVideoCtrlEvent@ZOOMSDK@@@4@$0A@@std@@@std@@QEAA?AV?$_Tree_unchecked_const_iterator@V?$_Tree_val@U?$_Tree_simple_types@PEAVIMeetingVideoCtrlEvent@ZOOMSDK@@@std@@@std@@U_Iterator_base0@2@@2@XZ 000000014002df60 f i sdk_util.obj
 0001:0002cf60       ?_Unchecked_begin@?$_Tree@V?$_Tset_traits@PEAVIAuthServiceEvent@ZOOMSDK@@U?$less@PEAVIAuthServiceEvent@ZOOMSDK@@@std@@V?$allocator@PEAVIAuthServiceEvent@ZOOMSDK@@@4@$0A@@std@@@std@@QEAA?AV?$_Tree_unchecked_const_iterator@V?$_Tree_val@U?$_Tree_simple_types@PEAVIAuthServiceEvent@ZOOMSDK@@@std@@@std@@U_Iterator_base0@2@@2@XZ 000000014002df60 f i sdk_util.obj
 0001:0002cfa0       ?_Unwrapped@?$_Tree_const_iterator@V?$_Tree_val@U?$_Tree_simple_types@PEAVIAuthServiceEvent@ZOOMSDK@@@std@@@std@@@std@@QEBA?AV?$_Tree_unchecked_const_iterator@V?$_Tree_val@U?$_Tree_simple_types@PEAVIAuthServiceEvent@ZOOMSDK@@@std@@@std@@U_Iterator_base0@2@@2@XZ 000000014002dfa0 f i sdk_util.obj
 0001:0002cfa0       ?_Unwrapped@?$_Tree_const_iterator@V?$_Tree_val@U?$_Tree_simple_types@PEAVISDKInMeetingServiceMgrEvent@@@std@@@std@@@std@@QEBA?AV?$_Tree_unchecked_const_iterator@V?$_Tree_val@U?$_Tree_simple_types@PEAVISDKInMeetingServiceMgrEvent@@@std@@@std@@U_Iterator_base0@2@@2@XZ 000000014002dfa0 f i sdk_util.obj
 0001:0002cfa0       ?_Unwrapped@?$_Tree_const_iterator@V?$_Tree_val@U?$_Tree_simple_types@PEAVIMeetingChatCtrlEvent@ZOOMSDK@@@std@@@std@@@std@@QEBA?AV?$_Tree_unchecked_const_iterator@V?$_Tree_val@U?$_Tree_simple_types@PEAVIMeetingChatCtrlEvent@ZOOMSDK@@@std@@@std@@U_Iterator_base0@2@@2@XZ 000000014002dfa0 f i sdk_util.obj
 0001:0002cfa0       ?_Unwrapped@?$_Tree_const_iterator@V?$_Tree_val@U?$_Tree_simple_types@PEAVIMeetingServiceEvent@ZOOMSDK@@@std@@@std@@@std@@QEBA?AV?$_Tree_unchecked_const_iterator@V?$_Tree_val@U?$_Tree_simple_types@PEAVIMeetingServiceEvent@ZOOMSDK@@@std@@@std@@U_Iterator_base0@2@@2@XZ 000000014002dfa0 f i sdk_util.obj
 0001:0002cfa0       ?_Unwrapped@?$_Tree_const_iterator@V?$_Tree_val@U?$_Tree_simple_types@PEAVIClosedCaptionControllerEvent@ZOOMSDK@@@std@@@std@@@std@@QEBA?AV?$_Tree_unchecked_const_iterator@V?$_Tree_val@U?$_Tree_simple_types@PEAVIClosedCaptionControllerEvent@ZOOMSDK@@@std@@@std@@U_Iterator_base0@2@@2@XZ 000000014002dfa0 f i sdk_util.obj
 0001:0002cfa0       ?_Unwrapped@?$_Tree_const_iterator@V?$_Tree_val@U?$_Tree_simple_types@PEAVIMeetingVideoCtrlEvent@ZOOMSDK@@@std@@@std@@@std@@QEBA?AV?$_Tree_unchecked_const_iterator@V?$_Tree_val@U?$_Tree_simple_types@PEAVIMeetingVideoCtrlEvent@ZOOMSDK@@@std@@@std@@U_Iterator_base0@2@@2@XZ 000000014002dfa0 f i sdk_util.obj
 0001:0002cfa0       ?_Unwrapped@?$_Tree_const_iterator@V?$_Tree_val@U?$_Tree_simple_types@PEAVIMeetingParticipantsCtrlEvent@ZOOMSDK@@@std@@@std@@@std@@QEBA?AV?$_Tree_unchecked_const_iterator@V?$_Tree_val@U?$_Tree_simple_types@PEAVIMeetingParticipantsCtrlEvent@ZOOMSDK@@@std@@@std@@U_Iterator_base0@2@@2@XZ 000000014002dfa0 f i sdk_util.obj
 0001:0002cfa0       ?_Unwrapped@?$_Tree_const_iterator@V?$_Tree_val@U?$_Tree_simple_types@U?$pair@$$CBHW4bkItemType@@@std@@@std@@@std@@@std@@QEBA?AV?$_Tree_unchecked_const_iterator@V?$_Tree_val@U?$_Tree_simple_types@U?$pair@$$CBHW4bkItemType@@@std@@@std@@@std@@U_Iterator_base0@2@@2@XZ 000000014002dfa0 f i settings_ui.obj
 0001:0002cfe0       ?allocate@?$allocator@U?$_Tree_node@PEAVIMeetingServiceEvent@ZOOMSDK@@PEAX@std@@@std@@QEAAPEAU?$_Tree_node@PEAVIMeetingServiceEvent@ZOOMSDK@@PEAX@2@_K@Z 000000014002dfe0 f i sdk_util.obj
 0001:0002cfe0       ?allocate@?$allocator@U?$_Tree_node@PEAVIMeetingVideoCtrlEvent@ZOOMSDK@@PEAX@std@@@std@@QEAAPEAU?$_Tree_node@PEAVIMeetingVideoCtrlEvent@ZOOMSDK@@PEAX@2@_K@Z 000000014002dfe0 f i sdk_util.obj
 0001:0002cfe0       ?allocate@?$allocator@U?$_Tree_node@U?$pair@$$CBHW4bkItemType@@@std@@PEAX@std@@@std@@QEAAPEAU?$_Tree_node@U?$pair@$$CBHW4bkItemType@@@std@@PEAX@2@_K@Z 000000014002dfe0 f i settings_ui.obj
 0001:0002cfe0       ?allocate@?$allocator@U?$_Tree_node@PEAVIMeetingParticipantsCtrlEvent@ZOOMSDK@@PEAX@std@@@std@@QEAAPEAU?$_Tree_node@PEAVIMeetingParticipantsCtrlEvent@ZOOMSDK@@PEAX@2@_K@Z 000000014002dfe0 f i sdk_util.obj
 0001:0002cfe0       ?allocate@?$allocator@U?$_Tree_node@PEAVISDKInMeetingServiceMgrEvent@@PEAX@std@@@std@@QEAAPEAU?$_Tree_node@PEAVISDKInMeetingServiceMgrEvent@@PEAX@2@_K@Z 000000014002dfe0 f i sdk_util.obj
 0001:0002cfe0       ?allocate@?$allocator@U?$_Tree_node@PEAVIClosedCaptionControllerEvent@ZOOMSDK@@PEAX@std@@@std@@QEAAPEAU?$_Tree_node@PEAVIClosedCaptionControllerEvent@ZOOMSDK@@PEAX@2@_K@Z 000000014002dfe0 f i sdk_util.obj
 0001:0002cfe0       ?allocate@?$allocator@U?$_Tree_node@PEAVIMeetingChatCtrlEvent@ZOOMSDK@@PEAX@std@@@std@@QEAAPEAU?$_Tree_node@PEAVIMeetingChatCtrlEvent@ZOOMSDK@@PEAX@2@_K@Z 000000014002dfe0 f i sdk_util.obj
 0001:0002cfe0       ?allocate@?$allocator@U?$_Tree_node@PEAVIAuthServiceEvent@ZOOMSDK@@PEAX@std@@@std@@QEAAPEAU?$_Tree_node@PEAVIAuthServiceEvent@ZOOMSDK@@PEAX@2@_K@Z 000000014002dfe0 f i sdk_util.obj
 0001:0002d010       ?begin@?$_Tree@V?$_Tset_traits@PEAVIMeetingChatCtrlEvent@ZOOMSDK@@U?$less@PEAVIMeetingChatCtrlEvent@ZOOMSDK@@@std@@V?$allocator@PEAVIMeetingChatCtrlEvent@ZOOMSDK@@@4@$0A@@std@@@std@@QEAA?AV?$_Tree_const_iterator@V?$_Tree_val@U?$_Tree_simple_types@PEAVIMeetingChatCtrlEvent@ZOOMSDK@@@std@@@std@@@2@XZ 000000014002e010 f i sdk_util.obj
 0001:0002d010       ?begin@?$_Tree@V?$_Tset_traits@PEAVIAuthServiceEvent@ZOOMSDK@@U?$less@PEAVIAuthServiceEvent@ZOOMSDK@@@std@@V?$allocator@PEAVIAuthServiceEvent@ZOOMSDK@@@4@$0A@@std@@@std@@QEAA?AV?$_Tree_const_iterator@V?$_Tree_val@U?$_Tree_simple_types@PEAVIAuthServiceEvent@ZOOMSDK@@@std@@@std@@@2@XZ 000000014002e010 f i sdk_util.obj
 0001:0002d010       ?begin@?$_Tree@V?$_Tset_traits@PEAVIMeetingVideoCtrlEvent@ZOOMSDK@@U?$less@PEAVIMeetingVideoCtrlEvent@ZOOMSDK@@@std@@V?$allocator@PEAVIMeetingVideoCtrlEvent@ZOOMSDK@@@4@$0A@@std@@@std@@QEAA?AV?$_Tree_const_iterator@V?$_Tree_val@U?$_Tree_simple_types@PEAVIMeetingVideoCtrlEvent@ZOOMSDK@@@std@@@std@@@2@XZ 000000014002e010 f i sdk_util.obj
 0001:0002d010       ?begin@?$_Tree@V?$_Tset_traits@PEAVIMeetingParticipantsCtrlEvent@ZOOMSDK@@U?$less@PEAVIMeetingParticipantsCtrlEvent@ZOOMSDK@@@std@@V?$allocator@PEAVIMeetingParticipantsCtrlEvent@ZOOMSDK@@@4@$0A@@std@@@std@@QEAA?AV?$_Tree_const_iterator@V?$_Tree_val@U?$_Tree_simple_types@PEAVIMeetingParticipantsCtrlEvent@ZOOMSDK@@@std@@@std@@@2@XZ 000000014002e010 f i sdk_util.obj
 0001:0002d010       ?begin@?$_Tree@V?$_Tset_traits@PEAVIMeetingServiceEvent@ZOOMSDK@@U?$less@PEAVIMeetingServiceEvent@ZOOMSDK@@@std@@V?$allocator@PEAVIMeetingServiceEvent@ZOOMSDK@@@4@$0A@@std@@@std@@QEAA?AV?$_Tree_const_iterator@V?$_Tree_val@U?$_Tree_simple_types@PEAVIMeetingServiceEvent@ZOOMSDK@@@std@@@std@@@2@XZ 000000014002e010 f i sdk_util.obj
 0001:0002d010       ?begin@?$_Tree@V?$_Tset_traits@PEAVISDKInMeetingServiceMgrEvent@@U?$less@PEAVISDKInMeetingServiceMgrEvent@@@std@@V?$allocator@PEAVISDKInMeetingServiceMgrEvent@@@3@$0A@@std@@@std@@QEAA?AV?$_Tree_const_iterator@V?$_Tree_val@U?$_Tree_simple_types@PEAVISDKInMeetingServiceMgrEvent@@@std@@@std@@@2@XZ 000000014002e010 f i sdk_util.obj
 0001:0002d010       ?begin@?$_Tree@V?$_Tset_traits@PEAVIClosedCaptionControllerEvent@ZOOMSDK@@U?$less@PEAVIClosedCaptionControllerEvent@ZOOMSDK@@@std@@V?$allocator@PEAVIClosedCaptionControllerEvent@ZOOMSDK@@@4@$0A@@std@@@std@@QEAA?AV?$_Tree_const_iterator@V?$_Tree_val@U?$_Tree_simple_types@PEAVIClosedCaptionControllerEvent@ZOOMSDK@@@std@@@std@@@2@XZ 000000014002e010 f i sdk_util.obj
 0001:0002d060       ?clear@?$_Tree@V?$_Tset_traits@PEAVIMeetingChatCtrlEvent@ZOOMSDK@@U?$less@PEAVIMeetingChatCtrlEvent@ZOOMSDK@@@std@@V?$allocator@PEAVIMeetingChatCtrlEvent@ZOOMSDK@@@4@$0A@@std@@@std@@QEAAXXZ 000000014002e060 f i sdk_util.obj
 0001:0002d060       ?clear@?$_Tree@V?$_Tset_traits@PEAVIMeetingParticipantsCtrlEvent@ZOOMSDK@@U?$less@PEAVIMeetingParticipantsCtrlEvent@ZOOMSDK@@@std@@V?$allocator@PEAVIMeetingParticipantsCtrlEvent@ZOOMSDK@@@4@$0A@@std@@@std@@QEAAXXZ 000000014002e060 f i sdk_util.obj
 0001:0002d060       ?clear@?$_Tree@V?$_Tset_traits@PEAVIAuthServiceEvent@ZOOMSDK@@U?$less@PEAVIAuthServiceEvent@ZOOMSDK@@@std@@V?$allocator@PEAVIAuthServiceEvent@ZOOMSDK@@@4@$0A@@std@@@std@@QEAAXXZ 000000014002e060 f i sdk_util.obj
 0001:0002d060       ?clear@?$_Tree@V?$_Tset_traits@PEAVIMeetingVideoCtrlEvent@ZOOMSDK@@U?$less@PEAVIMeetingVideoCtrlEvent@ZOOMSDK@@@std@@V?$allocator@PEAVIMeetingVideoCtrlEvent@ZOOMSDK@@@4@$0A@@std@@@std@@QEAAXXZ 000000014002e060 f i sdk_util.obj
 0001:0002d060       ?clear@?$_Tree@V?$_Tset_traits@PEAVISDKInMeetingServiceMgrEvent@@U?$less@PEAVISDKInMeetingServiceMgrEvent@@@std@@V?$allocator@PEAVISDKInMeetingServiceMgrEvent@@@3@$0A@@std@@@std@@QEAAXXZ 000000014002e060 f i sdk_util.obj
 0001:0002d060       ?clear@?$_Tree@V?$_Tset_traits@PEAVIClosedCaptionControllerEvent@ZOOMSDK@@U?$less@PEAVIClosedCaptionControllerEvent@ZOOMSDK@@@std@@V?$allocator@PEAVIClosedCaptionControllerEvent@ZOOMSDK@@@4@$0A@@std@@@std@@QEAAXXZ 000000014002e060 f i sdk_util.obj
 0001:0002d060       ?clear@?$_Tree@V?$_Tset_traits@PEAVIMeetingServiceEvent@ZOOMSDK@@U?$less@PEAVIMeetingServiceEvent@ZOOMSDK@@@std@@V?$allocator@PEAVIMeetingServiceEvent@ZOOMSDK@@@4@$0A@@std@@@std@@QEAAXXZ 000000014002e060 f i sdk_util.obj
 0001:0002d0f0       ?deallocate@?$allocator@U?$_Tree_node@PEAVISDKInMeetingServiceMgrEvent@@PEAX@std@@@std@@QEAAXQEAU?$_Tree_node@PEAVISDKInMeetingServiceMgrEvent@@PEAX@2@_K@Z 000000014002e0f0 f i sdk_util.obj
 0001:0002d0f0       ?deallocate@?$_Default_allocator_traits@V?$allocator@U?$_Tree_node@PEAVIMeetingParticipantsCtrlEvent@ZOOMSDK@@PEAX@std@@@std@@@std@@SAXAEAV?$allocator@U?$_Tree_node@PEAVIMeetingParticipantsCtrlEvent@ZOOMSDK@@PEAX@std@@@2@QEAU?$_Tree_node@PEAVIMeetingParticipantsCtrlEvent@ZOOMSDK@@PEAX@2@_K@Z 000000014002e0f0 f i sdk_util.obj
 0001:0002d0f0       ?deallocate@?$allocator@U?$_Tree_node@U?$pair@$$CBHW4bkItemType@@@std@@PEAX@std@@@std@@QEAAXQEAU?$_Tree_node@U?$pair@$$CBHW4bkItemType@@@std@@PEAX@2@_K@Z 000000014002e0f0 f i settings_ui.obj
 0001:0002d0f0       ?deallocate@?$_Default_allocator_traits@V?$allocator@U?$_Tree_node@PEAVIMeetingChatCtrlEvent@ZOOMSDK@@PEAX@std@@@std@@@std@@SAXAEAV?$allocator@U?$_Tree_node@PEAVIMeetingChatCtrlEvent@ZOOMSDK@@PEAX@std@@@2@QEAU?$_Tree_node@PEAVIMeetingChatCtrlEvent@ZOOMSDK@@PEAX@2@_K@Z 000000014002e0f0 f i sdk_util.obj
 0001:0002d0f0       ?deallocate@?$_Default_allocator_traits@V?$allocator@U?$_Tree_node@PEAVISDKInMeetingServiceMgrEvent@@PEAX@std@@@std@@@std@@SAXAEAV?$allocator@U?$_Tree_node@PEAVISDKInMeetingServiceMgrEvent@@PEAX@std@@@2@QEAU?$_Tree_node@PEAVISDKInMeetingServiceMgrEvent@@PEAX@2@_K@Z 000000014002e0f0 f i sdk_util.obj
 0001:0002d0f0       ?deallocate@?$allocator@U?$_Tree_node@PEAVIAuthServiceEvent@ZOOMSDK@@PEAX@std@@@std@@QEAAXQEAU?$_Tree_node@PEAVIAuthServiceEvent@ZOOMSDK@@PEAX@2@_K@Z 000000014002e0f0 f i sdk_util.obj
 0001:0002d0f0       ?deallocate@?$allocator@U?$_Tree_node@PEAVIMeetingChatCtrlEvent@ZOOMSDK@@PEAX@std@@@std@@QEAAXQEAU?$_Tree_node@PEAVIMeetingChatCtrlEvent@ZOOMSDK@@PEAX@2@_K@Z 000000014002e0f0 f i sdk_util.obj
 0001:0002d0f0       ?deallocate@?$allocator@U?$_Tree_node@PEAVIMeetingParticipantsCtrlEvent@ZOOMSDK@@PEAX@std@@@std@@QEAAXQEAU?$_Tree_node@PEAVIMeetingParticipantsCtrlEvent@ZOOMSDK@@PEAX@2@_K@Z 000000014002e0f0 f i sdk_util.obj
 0001:0002d0f0       ?deallocate@?$_Default_allocator_traits@V?$allocator@U?$_Tree_node@PEAVIMeetingVideoCtrlEvent@ZOOMSDK@@PEAX@std@@@std@@@std@@SAXAEAV?$allocator@U?$_Tree_node@PEAVIMeetingVideoCtrlEvent@ZOOMSDK@@PEAX@std@@@2@QEAU?$_Tree_node@PEAVIMeetingVideoCtrlEvent@ZOOMSDK@@PEAX@2@_K@Z 000000014002e0f0 f i sdk_util.obj
 0001:0002d0f0       ?deallocate@?$_Default_allocator_traits@V?$allocator@U?$_Tree_node@U?$pair@$$CBHW4bkItemType@@@std@@PEAX@std@@@std@@@std@@SAXAEAV?$allocator@U?$_Tree_node@U?$pair@$$CBHW4bkItemType@@@std@@PEAX@std@@@2@QEAU?$_Tree_node@U?$pair@$$CBHW4bkItemType@@@std@@PEAX@2@_K@Z 000000014002e0f0 f i settings_ui.obj
 0001:0002d0f0       ?deallocate@?$_Default_allocator_traits@V?$allocator@U?$_Tree_node@PEAVIAuthServiceEvent@ZOOMSDK@@PEAX@std@@@std@@@std@@SAXAEAV?$allocator@U?$_Tree_node@PEAVIAuthServiceEvent@ZOOMSDK@@PEAX@std@@@2@QEAU?$_Tree_node@PEAVIAuthServiceEvent@ZOOMSDK@@PEAX@2@_K@Z 000000014002e0f0 f i sdk_util.obj
 0001:0002d0f0       ?deallocate@?$allocator@U?$_Tree_node@PEAVIClosedCaptionControllerEvent@ZOOMSDK@@PEAX@std@@@std@@QEAAXQEAU?$_Tree_node@PEAVIClosedCaptionControllerEvent@ZOOMSDK@@PEAX@2@_K@Z 000000014002e0f0 f i sdk_util.obj
 0001:0002d0f0       ?deallocate@?$_Default_allocator_traits@V?$allocator@U?$_Tree_node@PEAVIClosedCaptionControllerEvent@ZOOMSDK@@PEAX@std@@@std@@@std@@SAXAEAV?$allocator@U?$_Tree_node@PEAVIClosedCaptionControllerEvent@ZOOMSDK@@PEAX@std@@@2@QEAU?$_Tree_node@PEAVIClosedCaptionControllerEvent@ZOOMSDK@@PEAX@2@_K@Z 000000014002e0f0 f i sdk_util.obj
 0001:0002d0f0       ?deallocate@?$allocator@U?$_Tree_node@PEAVIMeetingServiceEvent@ZOOMSDK@@PEAX@std@@@std@@QEAAXQEAU?$_Tree_node@PEAVIMeetingServiceEvent@ZOOMSDK@@PEAX@2@_K@Z 000000014002e0f0 f i sdk_util.obj
 0001:0002d0f0       ?deallocate@?$allocator@U?$_Tree_node@PEAVIMeetingVideoCtrlEvent@ZOOMSDK@@PEAX@std@@@std@@QEAAXQEAU?$_Tree_node@PEAVIMeetingVideoCtrlEvent@ZOOMSDK@@PEAX@2@_K@Z 000000014002e0f0 f i sdk_util.obj
 0001:0002d0f0       ?deallocate@?$_Default_allocator_traits@V?$allocator@U?$_Tree_node@PEAVIMeetingServiceEvent@ZOOMSDK@@PEAX@std@@@std@@@std@@SAXAEAV?$allocator@U?$_Tree_node@PEAVIMeetingServiceEvent@ZOOMSDK@@PEAX@std@@@2@QEAU?$_Tree_node@PEAVIMeetingServiceEvent@ZOOMSDK@@PEAX@2@_K@Z 000000014002e0f0 f i sdk_util.obj
 0001:0002d120       ?end@?$_Tree@V?$_Tset_traits@PEAVIClosedCaptionControllerEvent@ZOOMSDK@@U?$less@PEAVIClosedCaptionControllerEvent@ZOOMSDK@@@std@@V?$allocator@PEAVIClosedCaptionControllerEvent@ZOOMSDK@@@4@$0A@@std@@@std@@QEAA?AV?$_Tree_const_iterator@V?$_Tree_val@U?$_Tree_simple_types@PEAVIClosedCaptionControllerEvent@ZOOMSDK@@@std@@@std@@@2@XZ 000000014002e120 f i sdk_util.obj
 0001:0002d120       ?end@?$_Tree@V?$_Tset_traits@PEAVIAuthServiceEvent@ZOOMSDK@@U?$less@PEAVIAuthServiceEvent@ZOOMSDK@@@std@@V?$allocator@PEAVIAuthServiceEvent@ZOOMSDK@@@4@$0A@@std@@@std@@QEAA?AV?$_Tree_const_iterator@V?$_Tree_val@U?$_Tree_simple_types@PEAVIAuthServiceEvent@ZOOMSDK@@@std@@@std@@@2@XZ 000000014002e120 f i sdk_util.obj
 0001:0002d120       ?end@?$_Tree@V?$_Tset_traits@PEAVISDKInMeetingServiceMgrEvent@@U?$less@PEAVISDKInMeetingServiceMgrEvent@@@std@@V?$allocator@PEAVISDKInMeetingServiceMgrEvent@@@3@$0A@@std@@@std@@QEAA?AV?$_Tree_const_iterator@V?$_Tree_val@U?$_Tree_simple_types@PEAVISDKInMeetingServiceMgrEvent@@@std@@@std@@@2@XZ 000000014002e120 f i sdk_util.obj
 0001:0002d120       ?end@?$_Tree@V?$_Tset_traits@PEAVIMeetingVideoCtrlEvent@ZOOMSDK@@U?$less@PEAVIMeetingVideoCtrlEvent@ZOOMSDK@@@std@@V?$allocator@PEAVIMeetingVideoCtrlEvent@ZOOMSDK@@@4@$0A@@std@@@std@@QEAA?AV?$_Tree_const_iterator@V?$_Tree_val@U?$_Tree_simple_types@PEAVIMeetingVideoCtrlEvent@ZOOMSDK@@@std@@@std@@@2@XZ 000000014002e120 f i sdk_util.obj
 0001:0002d120       ?end@?$_Tree@V?$_Tset_traits@PEAVIMeetingChatCtrlEvent@ZOOMSDK@@U?$less@PEAVIMeetingChatCtrlEvent@ZOOMSDK@@@std@@V?$allocator@PEAVIMeetingChatCtrlEvent@ZOOMSDK@@@4@$0A@@std@@@std@@QEAA?AV?$_Tree_const_iterator@V?$_Tree_val@U?$_Tree_simple_types@PEAVIMeetingChatCtrlEvent@ZOOMSDK@@@std@@@std@@@2@XZ 000000014002e120 f i sdk_util.obj
 0001:0002d120       ?end@?$_Tree@V?$_Tset_traits@PEAVIMeetingServiceEvent@ZOOMSDK@@U?$less@PEAVIMeetingServiceEvent@ZOOMSDK@@@std@@V?$allocator@PEAVIMeetingServiceEvent@ZOOMSDK@@@4@$0A@@std@@@std@@QEAA?AV?$_Tree_const_iterator@V?$_Tree_val@U?$_Tree_simple_types@PEAVIMeetingServiceEvent@ZOOMSDK@@@std@@@std@@@2@XZ 000000014002e120 f i sdk_util.obj
 0001:0002d120       ?end@?$_Tree@V?$_Tset_traits@PEAVIMeetingParticipantsCtrlEvent@ZOOMSDK@@U?$less@PEAVIMeetingParticipantsCtrlEvent@ZOOMSDK@@@std@@V?$allocator@PEAVIMeetingParticipantsCtrlEvent@ZOOMSDK@@@4@$0A@@std@@@std@@QEAA?AV?$_Tree_const_iterator@V?$_Tree_val@U?$_Tree_simple_types@PEAVIMeetingParticipantsCtrlEvent@ZOOMSDK@@@std@@@std@@@2@XZ 000000014002e120 f i sdk_util.obj
 0001:0002d160       ?erase@?$_Tree@V?$_Tset_traits@PEAVIMeetingVideoCtrlEvent@ZOOMSDK@@U?$less@PEAVIMeetingVideoCtrlEvent@ZOOMSDK@@@std@@V?$allocator@PEAVIMeetingVideoCtrlEvent@ZOOMSDK@@@4@$0A@@std@@@std@@QEAA_KAEBQEAVIMeetingVideoCtrlEvent@ZOOMSDK@@@Z 000000014002e160 f i sdk_util.obj
 0001:0002d160       ?erase@?$_Tree@V?$_Tset_traits@PEAVISDKInMeetingServiceMgrEvent@@U?$less@PEAVISDKInMeetingServiceMgrEvent@@@std@@V?$allocator@PEAVISDKInMeetingServiceMgrEvent@@@3@$0A@@std@@@std@@QEAA_KAEBQEAVISDKInMeetingServiceMgrEvent@@@Z 000000014002e160 f i sdk_util.obj
 0001:0002d160       ?erase@?$_Tree@V?$_Tset_traits@PEAVIAuthServiceEvent@ZOOMSDK@@U?$less@PEAVIAuthServiceEvent@ZOOMSDK@@@std@@V?$allocator@PEAVIAuthServiceEvent@ZOOMSDK@@@4@$0A@@std@@@std@@QEAA_KAEBQEAVIAuthServiceEvent@ZOOMSDK@@@Z 000000014002e160 f i sdk_util.obj
 0001:0002d160       ?erase@?$_Tree@V?$_Tset_traits@PEAVIClosedCaptionControllerEvent@ZOOMSDK@@U?$less@PEAVIClosedCaptionControllerEvent@ZOOMSDK@@@std@@V?$allocator@PEAVIClosedCaptionControllerEvent@ZOOMSDK@@@4@$0A@@std@@@std@@QEAA_KAEBQEAVIClosedCaptionControllerEvent@ZOOMSDK@@@Z 000000014002e160 f i sdk_util.obj
 0001:0002d160       ?erase@?$_Tree@V?$_Tset_traits@PEAVIMeetingChatCtrlEvent@ZOOMSDK@@U?$less@PEAVIMeetingChatCtrlEvent@ZOOMSDK@@@std@@V?$allocator@PEAVIMeetingChatCtrlEvent@ZOOMSDK@@@4@$0A@@std@@@std@@QEAA_KAEBQEAVIMeetingChatCtrlEvent@ZOOMSDK@@@Z 000000014002e160 f i sdk_util.obj
 0001:0002d160       ?erase@?$_Tree@V?$_Tset_traits@PEAVIMeetingServiceEvent@ZOOMSDK@@U?$less@PEAVIMeetingServiceEvent@ZOOMSDK@@@std@@V?$allocator@PEAVIMeetingServiceEvent@ZOOMSDK@@@4@$0A@@std@@@std@@QEAA_KAEBQEAVIMeetingServiceEvent@ZOOMSDK@@@Z 000000014002e160 f i sdk_util.obj
 0001:0002d160       ?erase@?$_Tree@V?$_Tset_traits@PEAVIMeetingParticipantsCtrlEvent@ZOOMSDK@@U?$less@PEAVIMeetingParticipantsCtrlEvent@ZOOMSDK@@@std@@V?$allocator@PEAVIMeetingParticipantsCtrlEvent@ZOOMSDK@@@4@$0A@@std@@@std@@QEAA_KAEBQEAVIMeetingParticipantsCtrlEvent@ZOOMSDK@@@Z 000000014002e160 f i sdk_util.obj
 0001:0002d1e0       ?max_size@?$_Default_allocator_traits@V?$allocator@U?$_Tree_node@PEAVIMeetingServiceEvent@ZOOMSDK@@PEAX@std@@@std@@@std@@SA_KAEBV?$allocator@U?$_Tree_node@PEAVIMeetingServiceEvent@ZOOMSDK@@PEAX@std@@@2@@Z 000000014002e1e0 f i sdk_util.obj
 0001:0002d1e0       ?max_size@?$_Default_allocator_traits@V?$allocator@U?$_Tree_node@PEAVIClosedCaptionControllerEvent@ZOOMSDK@@PEAX@std@@@std@@@std@@SA_KAEBV?$allocator@U?$_Tree_node@PEAVIClosedCaptionControllerEvent@ZOOMSDK@@PEAX@std@@@2@@Z 000000014002e1e0 f i sdk_util.obj
 0001:0002d1e0       ?max_size@?$_Default_allocator_traits@V?$allocator@U?$_Tree_node@PEAVIMeetingChatCtrlEvent@ZOOMSDK@@PEAX@std@@@std@@@std@@SA_KAEBV?$allocator@U?$_Tree_node@PEAVIMeetingChatCtrlEvent@ZOOMSDK@@PEAX@std@@@2@@Z 000000014002e1e0 f i sdk_util.obj
 0001:0002d1e0       ?max_size@?$_Default_allocator_traits@V?$allocator@U?$_Tree_node@PEAVIAuthServiceEvent@ZOOMSDK@@PEAX@std@@@std@@@std@@SA_KAEBV?$allocator@U?$_Tree_node@PEAVIAuthServiceEvent@ZOOMSDK@@PEAX@std@@@2@@Z 000000014002e1e0 f i sdk_util.obj
 0001:0002d1e0       ?max_size@?$_Default_allocator_traits@V?$allocator@U?$_Tree_node@PEAVIMeetingVideoCtrlEvent@ZOOMSDK@@PEAX@std@@@std@@@std@@SA_KAEBV?$allocator@U?$_Tree_node@PEAVIMeetingVideoCtrlEvent@ZOOMSDK@@PEAX@std@@@2@@Z 000000014002e1e0 f i sdk_util.obj
 0001:0002d1e0       ?max_size@?$_Default_allocator_traits@V?$allocator@U?$_Tree_node@PEAVISDKInMeetingServiceMgrEvent@@PEAX@std@@@std@@@std@@SA_KAEBV?$allocator@U?$_Tree_node@PEAVISDKInMeetingServiceMgrEvent@@PEAX@std@@@2@@Z 000000014002e1e0 f i sdk_util.obj
 0001:0002d1e0       ?max_size@?$_Default_allocator_traits@V?$allocator@U?$_Tree_node@PEAVIMeetingParticipantsCtrlEvent@ZOOMSDK@@PEAX@std@@@std@@@std@@SA_KAEBV?$allocator@U?$_Tree_node@PEAVIMeetingParticipantsCtrlEvent@ZOOMSDK@@PEAX@std@@@2@@Z 000000014002e1e0 f i sdk_util.obj
 0001:0002d1e0       ?max_size@?$_Default_allocator_traits@V?$allocator@U?$_Tree_node@U?$pair@$$CBHW4bkItemType@@@std@@PEAX@std@@@std@@@std@@SA_KAEBV?$allocator@U?$_Tree_node@U?$pair@$$CBHW4bkItemType@@@std@@PEAX@std@@@2@@Z 000000014002e1e0 f i settings_ui.obj
 0001:0002d1f0       ?max_size@?$_Tree@V?$_Tset_traits@PEAVIClosedCaptionControllerEvent@ZOOMSDK@@U?$less@PEAVIClosedCaptionControllerEvent@ZOOMSDK@@@std@@V?$allocator@PEAVIClosedCaptionControllerEvent@ZOOMSDK@@@4@$0A@@std@@@std@@QEBA_KXZ 000000014002e1f0 f i sdk_util.obj
 0001:0002d1f0       ?max_size@?$_Tree@V?$_Tset_traits@PEAVIMeetingParticipantsCtrlEvent@ZOOMSDK@@U?$less@PEAVIMeetingParticipantsCtrlEvent@ZOOMSDK@@@std@@V?$allocator@PEAVIMeetingParticipantsCtrlEvent@ZOOMSDK@@@4@$0A@@std@@@std@@QEBA_KXZ 000000014002e1f0 f i sdk_util.obj
 0001:0002d1f0       ?max_size@?$_Tree@V?$_Tset_traits@PEAVIMeetingChatCtrlEvent@ZOOMSDK@@U?$less@PEAVIMeetingChatCtrlEvent@ZOOMSDK@@@std@@V?$allocator@PEAVIMeetingChatCtrlEvent@ZOOMSDK@@@4@$0A@@std@@@std@@QEBA_KXZ 000000014002e1f0 f i sdk_util.obj
 0001:0002d1f0       ?max_size@?$_Tree@V?$_Tset_traits@PEAVIMeetingVideoCtrlEvent@ZOOMSDK@@U?$less@PEAVIMeetingVideoCtrlEvent@ZOOMSDK@@@std@@V?$allocator@PEAVIMeetingVideoCtrlEvent@ZOOMSDK@@@4@$0A@@std@@@std@@QEBA_KXZ 000000014002e1f0 f i sdk_util.obj
 0001:0002d1f0       ?max_size@?$_Tree@V?$_Tset_traits@PEAVIAuthServiceEvent@ZOOMSDK@@U?$less@PEAVIAuthServiceEvent@ZOOMSDK@@@std@@V?$allocator@PEAVIAuthServiceEvent@ZOOMSDK@@@4@$0A@@std@@@std@@QEBA_KXZ 000000014002e1f0 f i sdk_util.obj
 0001:0002d1f0       ?max_size@?$_Tree@V?$_Tset_traits@PEAVISDKInMeetingServiceMgrEvent@@U?$less@PEAVISDKInMeetingServiceMgrEvent@@@std@@V?$allocator@PEAVISDKInMeetingServiceMgrEvent@@@3@$0A@@std@@@std@@QEBA_KXZ 000000014002e1f0 f i sdk_util.obj
 0001:0002d1f0       ?max_size@?$_Tree@V?$_Tset_traits@PEAVIMeetingServiceEvent@ZOOMSDK@@U?$less@PEAVIMeetingServiceEvent@ZOOMSDK@@@std@@V?$allocator@PEAVIMeetingServiceEvent@ZOOMSDK@@@4@$0A@@std@@@std@@QEBA_KXZ 000000014002e1f0 f i sdk_util.obj
 0001:0002d1f0       ?max_size@?$_Tree@V?$_Tmap_traits@HW4bkItemType@@U?$less@H@std@@V?$allocator@U?$pair@$$CBHW4bkItemType@@@std@@@3@$0A@@std@@@std@@QEBA_KXZ 000000014002e1f0 f i settings_ui.obj
 0001:0002d240       ?onActiveSpeakerVideoUserChanged@SDKInterfaceWrap@@UEAAXI@Z 000000014002e240 f i sdk_util.obj
 0001:0002d490       ?onActiveVideoUserChanged@SDKInterfaceWrap@@UEAAXI@Z 000000014002e490 f i sdk_util.obj
 0001:0002d6e0       ?onAssignedToSendCC@SDKInterfaceWrap@@UEAAX_N@Z 000000014002e6e0 f i sdk_util.obj
 0001:0002d810       ?onAudioBtnClicked@SDKInterfaceWrap@@UEAAXUtagAudioBtnClickedCallbackInfo@ZOOMSDK@@@Z 000000014002e810 f i sdk_util.obj
 0001:0002d940       ?onAudioMenuBtnClicked@SDKInterfaceWrap@@UEAAXXZ 000000014002e940 f i sdk_util.obj
 0001:0002da60       ?onAuthenticationReturn@SDKInterfaceWrap@@UEAAXW4AuthResult@ZOOMSDK@@@Z 000000014002ea60 f i sdk_util.obj
 0001:0002db80       ?onCCBTNClicked@SDKInterfaceWrap@@UEAAXXZ 000000014002eb80 f i sdk_util.obj
 0001:0002dca0       ?onChatMsgDeleteNotification@SDKInterfaceWrap@@UEAAXPEB_WW4SDKChatMessageDeleteType@ZOOMSDK@@@Z 000000014002eca0 f i sdk_util.obj
 0001:0002dde0       ?onChatMsgNotifcation@SDKInterfaceWrap@@UEAAXPEAVIChatMsgInfo@ZOOMSDK@@PEB_W@Z 000000014002ede0 f i sdk_util.obj
 0001:0002df20       ?onChatStautsChangedNotification@SDKInterfaceWrap@@UEAAXPEAUtagChatStatus@ZOOMSDK@@@Z 000000014002ef20 f i sdk_util.obj
 0001:0002e050       ?onClosedCaptionMsgReceived@SDKInterfaceWrap@@UEAAXPEB_WI_J@Z 000000014002f050 f i sdk_util.obj
 0001:0002e1a0       ?onCloudRecordingStatus@SDKInterfaceWrap@@UEAAXW4RecordingStatus@ZOOMSDK@@@Z 000000014002f1a0 f i sdk_util.obj
 0001:0002e2d0       ?onCoHostChangeNotification@SDKInterfaceWrap@@UEAAXI_N@Z 000000014002f2d0 f i sdk_util.obj
 0001:0002e540       ?onCustomLiveStreamMenuClicked@SDKInterfaceWrap@@UEAAXXZ 000000014002f540 f i sdk_util.obj
 0001:0002e660       ?onCustomizedLocalRecordingSourceNotification@SDKInterfaceWrap@@UEAAXPEAVICustomizedLocalRecordingLayoutHelper@ZOOMSDK@@@Z 000000014002f660 f i sdk_util.obj
 0001:0002e790       ?onEndMeetingBtnClicked@SDKInterfaceWrap@@UEAAXXZ 000000014002f790 f i sdk_util.obj
 0001:0002e8b0       ?onHostChangeNotification@SDKInterfaceWrap@@UEAAXI@Z 000000014002f8b0 f i sdk_util.obj
 0001:0002eb00       ?onHostRequestStartAudio@SDKInterfaceWrap@@UEAAXPEAVIRequestStartAudioHandler@ZOOMSDK@@@Z 000000014002fb00 f i sdk_util.obj
 0001:0002ec30       ?onHostRequestStartVideo@SDKInterfaceWrap@@UEAAXPEAVIRequestStartVideoHandler@ZOOMSDK@@@Z 000000014002fc30 f i sdk_util.obj
 0001:0002ee90       ?onInviteBtnClicked@SDKInterfaceWrap@@UEAAXAEA_N@Z 000000014002fe90 f i sdk_util.obj
 0001:0002efc0       ?onLockShareStatus@SDKInterfaceWrap@@UEAAX_N@Z 000000014002ffc0 f i sdk_util.obj
 0001:0002f0f0       ?onLoginReturnWithReason@SDKInterfaceWrap@@UEAAXW4LOGINSTATUS@ZOOMSDK@@PEAVIAccountInfo@3@W4LoginFailReason@3@@Z 00000001400300f0 f i sdk_util.obj
 0001:0002f230       ?onLogout@SDKInterfaceWrap@@UEAAXXZ 0000000140030230 f i sdk_util.obj
 0001:0002f340       ?onLowOrRaiseHandStatusChanged@SDKInterfaceWrap@@UEAAX_NI@Z 0000000140030340 f i sdk_util.obj
 0001:0002f5b0       ?onMeetingParameterNotification@SDKInterfaceWrap@@UEAAXPEBUtagMeetingParameter@ZOOMSDK@@@Z 00000001400305b0 f i sdk_util.obj
 0001:0002f800       ?onMeetingStatisticsWarningNotification@SDKInterfaceWrap@@UEAAXW4StatisticsWarningType@ZOOMSDK@@@Z 0000000140030800 f i sdk_util.obj
 0001:0002fa50       ?onMeetingStatusChanged@SDKInterfaceWrap@@UEAAXW4MeetingStatus@ZOOMSDK@@H@Z 0000000140030a50 f i sdk_util.obj
 0001:0002fcb0       ?onParticipantListBtnClicked@SDKInterfaceWrap@@UEAAXXZ 0000000140030cb0 f i sdk_util.obj
 0001:0002fdd0       ?onRecordPriviligeChanged@SDKInterfaceWrap@@UEAAX_N@Z 0000000140030dd0 f i sdk_util.obj
 0001:0002ff00       ?onRecording2MP4Done@SDKInterfaceWrap@@UEAAX_NHPEB_W@Z 0000000140030f00 f i sdk_util.obj
 0001:00030050       ?onRecording2MP4Processing@SDKInterfaceWrap@@UEAAXH@Z 0000000140031050 f i sdk_util.obj
 0001:00030180       ?onRecordingStatus@SDKInterfaceWrap@@UEAAXW4RecordingStatus@ZOOMSDK@@@Z 0000000140031180 f i sdk_util.obj
 0001:000302b0       ?onRemoteControlStatus@SDKInterfaceWrap@@UEAAXW4RemoteControlStatus@ZOOMSDK@@I@Z 00000001400312b0 f i sdk_util.obj
 0001:000303f0       ?onShareContentNotification@SDKInterfaceWrap@@UEAAXAEAUtagShareInfo@ZOOMSDK@@@Z 00000001400313f0 f i sdk_util.obj
 0001:00030520       ?onShareMeetingChatStatusChanged@SDKInterfaceWrap@@UEAAX_N@Z 0000000140031520 f i sdk_util.obj
 0001:00030650       ?onSharingStatus@SDKInterfaceWrap@@UEAAXW4SharingStatus@ZOOMSDK@@I@Z 0000000140031650 f i sdk_util.obj
 0001:00030790       ?onStartShareBtnClicked@SDKInterfaceWrap@@UEAAXXZ 0000000140031790 f i sdk_util.obj
 0001:000308b0       ?onUserActiveAudioChange@SDKInterfaceWrap@@UEAAXPEAV?$IList@I@ZOOMSDK@@@Z 00000001400318b0 f i sdk_util.obj
 0001:000309e0       ?onUserAudioStatusChange@SDKInterfaceWrap@@UEAAXPEAV?$IList@PEAVIUserAudioStatus@ZOOMSDK@@@ZOOMSDK@@PEB_W@Z 00000001400319e0 f i sdk_util.obj
 0001:00030b20       ?onUserJoin@SDKInterfaceWrap@@UEAAXPEAV?$IList@I@ZOOMSDK@@PEB_W@Z 0000000140031b20 f i sdk_util.obj
 0001:00030d90       ?onUserLeft@SDKInterfaceWrap@@UEAAXPEAV?$IList@I@ZOOMSDK@@PEB_W@Z 0000000140031d90 f i sdk_util.obj
 0001:00031000       ?onUserNameChanged@SDKInterfaceWrap@@UEAAXIPEB_W@Z 0000000140032000 f i sdk_util.obj
 0001:00031270       ?onUserNamesChanged@SDKInterfaceWrap@@UEAAXPEAV?$IList@I@ZOOMSDK@@@Z 0000000140032270 f i sdk_util.obj
 0001:000313a0       ?onUserVideoStatusChange@SDKInterfaceWrap@@UEAAXIW4VideoStatus@ZOOMSDK@@@Z 00000001400323a0 f i sdk_util.obj
 0001:00031610       ?onZoomAuthIdentityExpired@SDKInterfaceWrap@@UEAAXXZ 0000000140032610 f i sdk_util.obj
 0001:00031720       ?onZoomIdentityExpired@SDKInterfaceWrap@@UEAAXXZ 0000000140032720 f i sdk_util.obj
 0001:00031830       ?onZoomInviteDialogFailed@SDKInterfaceWrap@@UEAAXXZ 0000000140032830 f i sdk_util.obj
 0001:00031a90       ??0CSDKAudioSettingsWorkFlow@@QEAA@XZ 0000000140032a90 f   SETTINGS_audio_workflow.obj
 0001:00031b20       ??0IAudioSettingContextEvent@ZOOMSDK@@QEAA@XZ 0000000140032b20 f i SETTINGS_audio_workflow.obj
 0001:00031b40       ??1CSDKAudioSettingsWorkFlow@@UEAA@XZ 0000000140032b40 f   SETTINGS_audio_workflow.obj
 0001:00031bc0       ??1IAudioSettingContextEvent@ZOOMSDK@@UEAA@XZ 0000000140032bc0 f i SETTINGS_audio_workflow.obj
 0001:00031bd8       ??_ECSDKAudioSettingsWorkFlow@@W7EAAPEAXI@Z 0000000140032bd8 f i SETTINGS_audio_workflow.obj
 0001:00031bf0       ??_GCSDKAudioSettingsWorkFlow@@UEAAPEAXI@Z 0000000140032bf0 f i SETTINGS_audio_workflow.obj
 0001:00031bf0       ??_ECSDKAudioSettingsWorkFlow@@UEAAPEAXI@Z 0000000140032bf0 f i SETTINGS_audio_workflow.obj
 0001:00031c30       ??_EIAudioSettingContextEvent@ZOOMSDK@@UEAAPEAXI@Z 0000000140032c30 f i SETTINGS_audio_workflow.obj
 0001:00031c30       ??_GIAudioSettingContextEvent@ZOOMSDK@@UEAAPEAXI@Z 0000000140032c30 f i SETTINGS_audio_workflow.obj
 0001:00031c70       ?DisableEchoCancellation@CSDKAudioSettingsWorkFlow@@QEAA?AW4SDKError@ZOOMSDK@@_N@Z 0000000140032c70 f   SETTINGS_audio_workflow.obj
 0001:00031cd0       ?EnableAlwaysMuteMicWhenJoinVoip@CSDKAudioSettingsWorkFlow@@QEAA?AW4SDKError@ZOOMSDK@@_N@Z 0000000140032cd0 f   SETTINGS_audio_workflow.obj
 0001:00031d30       ?EnableAutoAdjustMic@CSDKAudioSettingsWorkFlow@@QEAA?AW4SDKError@ZOOMSDK@@_N@Z 0000000140032d30 f   SETTINGS_audio_workflow.obj
 0001:00031d90       ?EnableAutoJoinAudio@CSDKAudioSettingsWorkFlow@@QEAA?AW4SDKError@ZOOMSDK@@_N@Z 0000000140032d90 f   SETTINGS_audio_workflow.obj
 0001:00031d90       ?EnableFaceBeautyEffect@CSDKVideoSettingsWorkFlow@@QEAA?AW4SDKError@ZOOMSDK@@_N@Z 0000000140032d90 f   SETTINGS_video_workflow.obj
 0001:00031df0       ?EnableHighFidelityMusicMode@CSDKAudioSettingsWorkFlow@@QEAA?AW4SDKError@ZOOMSDK@@_N@Z 0000000140032df0 f   SETTINGS_audio_workflow.obj
 0001:00031e50       ?EnableHDVideo@CSDKVideoSettingsWorkFlow@@QEAA?AW4SDKError@ZOOMSDK@@_N@Z 0000000140032e50 f   SETTINGS_video_workflow.obj
 0001:00031e50       ?EnableHoldSpaceKeyToSpeak@CSDKAudioSettingsWorkFlow@@QEAA?AW4SDKError@ZOOMSDK@@_N@Z 0000000140032e50 f   SETTINGS_audio_workflow.obj
 0001:00031eb0       ?EnableMicOriginalInput@CSDKAudioSettingsWorkFlow@@QEAA?AW4SDKError@ZOOMSDK@@_N@Z 0000000140032eb0 f   SETTINGS_audio_workflow.obj
 0001:00031f10       ?EnableStereoAudio@CSDKAudioSettingsWorkFlow@@QEAA?AW4SDKError@ZOOMSDK@@_N@Z 0000000140032f10 f   SETTINGS_audio_workflow.obj
 0001:00031f70       ?EnableTemporalDeNoise@CSDKVideoSettingsWorkFlow@@QEAA?AW4SDKError@ZOOMSDK@@_N@Z 0000000140032f70 f   SETTINGS_video_workflow.obj
 0001:00031f70       ?EnableSuppressAudioNotify@CSDKAudioSettingsWorkFlow@@QEAA?AW4SDKError@ZOOMSDK@@_N@Z 0000000140032f70 f   SETTINGS_audio_workflow.obj
 0001:00031fd0       ?GetMicList@CSDKAudioSettingsWorkFlow@@QEAAPEAV?$IList@PEAVIMicInfo@ZOOMSDK@@@ZOOMSDK@@XZ 0000000140032fd0 f   SETTINGS_audio_workflow.obj
 0001:00031fd0       ?GetCameraList@CSDKVideoSettingsWorkFlow@@QEAAPEAV?$IList@PEAVICameraInfo@ZOOMSDK@@@ZOOMSDK@@XZ 0000000140032fd0 f   SETTINGS_video_workflow.obj
 0001:00032020       ?GetMicVol@CSDKAudioSettingsWorkFlow@@QEAA?AW4SDKError@ZOOMSDK@@AEAM@Z 0000000140033020 f   SETTINGS_audio_workflow.obj
 0001:00032080       ?GetSpeakerList@CSDKAudioSettingsWorkFlow@@QEAAPEAV?$IList@PEAVISpeakerInfo@ZOOMSDK@@@ZOOMSDK@@XZ 0000000140033080 f   SETTINGS_audio_workflow.obj
 0001:000320d0       ?GetSpeakerVol@CSDKAudioSettingsWorkFlow@@QEAA?AW4SDKError@ZOOMSDK@@AEAM@Z 00000001400330d0 f   SETTINGS_audio_workflow.obj
 0001:00032130       ?Init@CSDKAudioSettingsWorkFlow@@QEAA?AW4SDKError@ZOOMSDK@@XZ 0000000140033130 f   SETTINGS_audio_workflow.obj
 0001:00032270       ?IsAlwaysMuteMicWhenJoinVoipEnabled@CSDKAudioSettingsWorkFlow@@QEAA_NXZ 0000000140033270 f   SETTINGS_audio_workflow.obj
 0001:000322b0       ?IsAutoAdjustMicEnabled@CSDKAudioSettingsWorkFlow@@QEAA_NXZ 00000001400332b0 f   SETTINGS_audio_workflow.obj
 0001:000322f0       ?IsAutoJoinAudioEnabled@CSDKAudioSettingsWorkFlow@@QEAA_NXZ 00000001400332f0 f   SETTINGS_audio_workflow.obj
 0001:000322f0       ?IsFaceBeautyEffectEnabled@CSDKVideoSettingsWorkFlow@@QEAA_NXZ 00000001400332f0 f   SETTINGS_video_workflow.obj
 0001:00032330       ?IsEchoCancellationDisabled@CSDKAudioSettingsWorkFlow@@QEAA_NXZ 0000000140033330 f   SETTINGS_audio_workflow.obj
 0001:00032380       ?IsHighFidelityMusicModeDisabled@CSDKAudioSettingsWorkFlow@@QEAA_NXZ 0000000140033380 f   SETTINGS_audio_workflow.obj
 0001:000323d0       ?IsHoldSpaceKeyToSpeakEnabled@CSDKAudioSettingsWorkFlow@@QEAA_NXZ 00000001400333d0 f   SETTINGS_audio_workflow.obj
 0001:000323d0       ?IsHDVideoEnabled@CSDKVideoSettingsWorkFlow@@QEAA_NXZ 00000001400333d0 f   SETTINGS_video_workflow.obj
 0001:00032410       ?IsMicOriginalInputEnable@CSDKAudioSettingsWorkFlow@@QEAA_NXZ 0000000140033410 f   SETTINGS_audio_workflow.obj
 0001:00032450       ?IsStereoAudioEnable@CSDKAudioSettingsWorkFlow@@QEAA_NXZ 0000000140033450 f   SETTINGS_audio_workflow.obj
 0001:00032490       ?IsSuppressAudioNotifyEnabled@CSDKAudioSettingsWorkFlow@@QEAA_NXZ 0000000140033490 f   SETTINGS_audio_workflow.obj
 0001:00032490       ?IsTemporlDeNoiseEnabled@CSDKVideoSettingsWorkFlow@@QEAA_NXZ 0000000140033490 f   SETTINGS_video_workflow.obj
 0001:000324e0       ?OnNoAudioDeviceIsUseful@CSDKAudioSettingsWorkFlow@@UEAAX_N@Z 00000001400334e0 f   SETTINGS_audio_workflow.obj
 0001:00032520       ?OnSelectedAudioDeviceIsChanged@CSDKAudioSettingsWorkFlow@@UEAAXXZ 0000000140033520 f   SETTINGS_audio_workflow.obj
 0001:00032560       ?OnTestMicStatusChanged@CSDKAudioSettingsWorkFlow@@UEAAXW4SDK_TESTMIC_STATUS@ZOOMSDK@@AEA_N@Z 0000000140033560 f   SETTINGS_audio_workflow.obj
 0001:000325b0       ?SelectMic@CSDKAudioSettingsWorkFlow@@QEAA?AW4SDKError@ZOOMSDK@@PEB_W0@Z 00000001400335b0 f   SETTINGS_audio_workflow.obj
 0001:00032610       ?SelectSpeaker@CSDKAudioSettingsWorkFlow@@QEAA?AW4SDKError@ZOOMSDK@@PEB_W0@Z 0000000140033610 f   SETTINGS_audio_workflow.obj
 0001:00032670       ?SetMicVol@CSDKAudioSettingsWorkFlow@@QEAA?AW4SDKError@ZOOMSDK@@AEAM@Z 0000000140033670 f   SETTINGS_audio_workflow.obj
 0001:000326d0       ?SetSpeakerVol@CSDKAudioSettingsWorkFlow@@QEAA?AW4SDKError@ZOOMSDK@@AEAM@Z 00000001400336d0 f   SETTINGS_audio_workflow.obj
 0001:00032730       ?TestMicPlayRecording@CSDKAudioSettingsWorkFlow@@QEAA?AW4SDKError@ZOOMSDK@@XZ 0000000140033730 f   SETTINGS_audio_workflow.obj
 0001:00032730       ?TestVideoStopPreview@CSDKVideoSettingsWorkFlow@@QEAA?AW4SDKError@ZOOMSDK@@XZ 0000000140033730 f   SETTINGS_video_workflow.obj
 0001:00032780       ?TestMicStartRecording@CSDKAudioSettingsWorkFlow@@QEAA?AW4SDKError@ZOOMSDK@@PEB_W@Z 0000000140033780 f   SETTINGS_audio_workflow.obj
 0001:000327e0       ?TestMicStopTesting@CSDKAudioSettingsWorkFlow@@QEAA?AW4SDKError@ZOOMSDK@@XZ 00000001400337e0 f   SETTINGS_audio_workflow.obj
 0001:00032830       ?TestSpeakerStartPlaying@CSDKAudioSettingsWorkFlow@@QEAA?AW4SDKError@ZOOMSDK@@PEB_W@Z 0000000140033830 f   SETTINGS_audio_workflow.obj
 0001:00032890       ?TestSpeakerStopPlaying@CSDKAudioSettingsWorkFlow@@QEAA?AW4SDKError@ZOOMSDK@@XZ 0000000140033890 f   SETTINGS_audio_workflow.obj
 0001:000328e0       ?onComputerMicDeviceChanged@CSDKAudioSettingsWorkFlow@@UEAAXPEAV?$IList@PEAVIMicInfo@ZOOMSDK@@@ZOOMSDK@@@Z 00000001400338e0 f   SETTINGS_audio_workflow.obj
 0001:00032920       ?onComputerSpeakerDeviceChanged@CSDKAudioSettingsWorkFlow@@UEAAXPEAV?$IList@PEAVISpeakerInfo@ZOOMSDK@@@ZOOMSDK@@@Z 0000000140033920 f   SETTINGS_audio_workflow.obj
 0001:00032960       ??0CSDKFeatureCustomSettingsWorkFlow@@QEAA@XZ 0000000140033960 f   SETTINGS_feature_custom_workflow.obj
 0001:000329c0       ??1CSDKFeatureCustomSettingsWorkFlow@@UEAA@XZ 00000001400339c0 f   SETTINGS_feature_custom_workflow.obj
 0001:00032a00       ??_ECSDKFeatureCustomSettingsWorkFlow@@UEAAPEAXI@Z 0000000140033a00 f i SETTINGS_feature_custom_workflow.obj
 0001:00032a00       ??_GCSDKFeatureCustomSettingsWorkFlow@@UEAAPEAXI@Z 0000000140033a00 f i SETTINGS_feature_custom_workflow.obj
 0001:00032a40       ?BackToMeeting@CSDKFeatureCustomSettingsWorkFlow@@QEAA?AW4SDKError@ZOOMSDK@@XZ 0000000140033a40 f   SETTINGS_feature_custom_workflow.obj
 0001:00032a90       ?DisableSplitScreenModeUIElements@CSDKFeatureCustomSettingsWorkFlow@@QEAAX_N@Z 0000000140033a90 f   SETTINGS_feature_custom_workflow.obj
 0001:00032ad0       ?EnableAutoAdjustMicVolumeWhenJoinAudio@CSDKFeatureCustomSettingsWorkFlow@@QEAAX_N@Z 0000000140033ad0 f   SETTINGS_feature_custom_workflow.obj
 0001:00032b10       ?EnableAutoAdjustSpeakerVolumeWhenJoinAudio@CSDKFeatureCustomSettingsWorkFlow@@QEAAX_N@Z 0000000140033b10 f   SETTINGS_feature_custom_workflow.obj
 0001:00032b50       ?EnableAutoEndOtherMeetingWhenStartMeeting@CSDKFeatureCustomSettingsWorkFlow@@QEAAX_N@Z 0000000140033b50 f   SETTINGS_feature_custom_workflow.obj
 0001:00032b90       ?EnableClaimHostFeature@CSDKFeatureCustomSettingsWorkFlow@@QEAAX_N@Z 0000000140033b90 f   SETTINGS_feature_custom_workflow.obj
 0001:00032bd0       ?EnableForceAutoStartMyVideoWhenJoinMeeting@CSDKFeatureCustomSettingsWorkFlow@@QEAAX_N@Z 0000000140033bd0 f   SETTINGS_feature_custom_workflow.obj
 0001:00032c10       ?EnableForceAutoStopMyVideoWhenJoinMeeting@CSDKFeatureCustomSettingsWorkFlow@@QEAAX_N@Z 0000000140033c10 f   SETTINGS_feature_custom_workflow.obj
 0001:00032c50       ?EnableGrabShareWithoutReminder@CSDKFeatureCustomSettingsWorkFlow@@QEAA?AW4SDKError@ZOOMSDK@@_N@Z 0000000140033c50 f   SETTINGS_feature_custom_workflow.obj
 0001:00032c50       ?EnableAnnotateHardwareAcceleration@CSDKShareSettingsWorkFlow@@QEAA?AW4SDKError@ZOOMSDK@@_N@Z 0000000140033c50 f   SETTINGS_share_workflow.obj
 0001:00032cb0       ?EnableLButtonDBClick4SwitchFullScreenMode@CSDKFeatureCustomSettingsWorkFlow@@QEAAX_N@Z 0000000140033cb0 f   SETTINGS_feature_custom_workflow.obj
 0001:00032cf0       ?EnableShareIOSDevice@CSDKFeatureCustomSettingsWorkFlow@@QEAAX_N@Z 0000000140033cf0 f   SETTINGS_feature_custom_workflow.obj
 0001:00032d30       ?EnableShareWhiteBoard@CSDKFeatureCustomSettingsWorkFlow@@QEAAX_N@Z 0000000140033d30 f   SETTINGS_feature_custom_workflow.obj
 0001:00032d70       ?EnterFullScreen@CSDKFeatureCustomSettingsWorkFlow@@QEAA?AW4SDKError@ZOOMSDK@@_N0@Z 0000000140033d70 f   SETTINGS_feature_custom_workflow.obj
 0001:00032dd0       ?ExitFullScreen@CSDKFeatureCustomSettingsWorkFlow@@QEAA?AW4SDKError@ZOOMSDK@@_N0@Z 0000000140033dd0 f   SETTINGS_feature_custom_workflow.obj
 0001:00032e30       ?ForceDisableMultiShare@CSDKFeatureCustomSettingsWorkFlow@@QEAAX_N@Z 0000000140033e30 f   SETTINGS_feature_custom_workflow.obj
 0001:00032e70       ?HideChatDlg@CSDKFeatureCustomSettingsWorkFlow@@QEAA?AW4SDKError@ZOOMSDK@@XZ 0000000140033e70 f   SETTINGS_feature_custom_workflow.obj
 0001:00032ec0       ?Init@CSDKUICustomSettingsWorkFlow@@QEAA?AW4SDKError@ZOOMSDK@@XZ 0000000140033ec0 f   SETTINGS_ui_custom_workflow.obj
 0001:00032ec0       ?Init@CSDKFeatureCustomSettingsWorkFlow@@QEAA?AW4SDKError@ZOOMSDK@@XZ 0000000140033ec0 f   SETTINGS_feature_custom_workflow.obj
 0001:00032f60       ?MoveFloatVideoWnd@CSDKFeatureCustomSettingsWorkFlow@@QEAA?AW4SDKError@ZOOMSDK@@HH@Z 0000000140033f60 f   SETTINGS_feature_custom_workflow.obj
 0001:00032fc0       ?PrePopulateWebinarRegistrationInfo@CSDKFeatureCustomSettingsWorkFlow@@QEAAXPEB_W0@Z 0000000140033fc0 f   SETTINGS_feature_custom_workflow.obj
 0001:00033010       ?SetFloatVideoPos@CSDKFeatureCustomSettingsWorkFlow@@QEAAXUtagWndPosition@ZOOMSDK@@@Z 0000000140034010 f   SETTINGS_feature_custom_workflow.obj
 0001:00033070       ?SetMeetingUIPos@CSDKFeatureCustomSettingsWorkFlow@@QEAAXUtagWndPosition@ZOOMSDK@@@Z 0000000140034070 f   SETTINGS_feature_custom_workflow.obj
 0001:000330d0       ?ShowChatDlg@CSDKFeatureCustomSettingsWorkFlow@@QEAA?AW4SDKError@ZOOMSDK@@AEAUtagShowChatDlgParam@3@@Z 00000001400340d0 f   SETTINGS_feature_custom_workflow.obj
 0001:00033130       ?ShowParticipantsListWnd@CSDKFeatureCustomSettingsWorkFlow@@QEAA?AW4SDKError@ZOOMSDK@@_NAEAPEAUHWND__@@@Z 0000000140034130 f   SETTINGS_feature_custom_workflow.obj
 0001:00033190       ?ShowPreOrNextPageVideo@CSDKFeatureCustomSettingsWorkFlow@@QEAA?AW4SDKError@ZOOMSDK@@_N@Z 0000000140034190 f   SETTINGS_feature_custom_workflow.obj
 0001:000331f0       ?SwitchSplitScreenMode@CSDKFeatureCustomSettingsWorkFlow@@QEAA?AW4SDKError@ZOOMSDK@@_N@Z 00000001400341f0 f   SETTINGS_feature_custom_workflow.obj
 0001:00033250       ?SwitchToVideoWall@CSDKFeatureCustomSettingsWorkFlow@@QEAA?AW4SDKError@ZOOMSDK@@XZ 0000000140034250 f   SETTINGS_feature_custom_workflow.obj
 0001:000332a0       ?SwtichToAcitveSpeaker@CSDKFeatureCustomSettingsWorkFlow@@QEAA?AW4SDKError@ZOOMSDK@@XZ 00000001400342a0 f   SETTINGS_feature_custom_workflow.obj
 0001:000332f0       ??0CSDKGeneralSettingsWorkFlow@@QEAA@XZ 00000001400342f0 f   SETTINGS_general_workflow.obj
 0001:00033340       ??1CSDKGeneralSettingsWorkFlow@@UEAA@XZ 0000000140034340 f   SETTINGS_general_workflow.obj
 0001:00033370       ??_ECSDKGeneralSettingsWorkFlow@@UEAAPEAXI@Z 0000000140034370 f i SETTINGS_general_workflow.obj
 0001:00033370       ??_GCSDKGeneralSettingsWorkFlow@@UEAAPEAXI@Z 0000000140034370 f i SETTINGS_general_workflow.obj
 0001:000333b0       ?EnableAutoFullScreenVideoWhenJoinMeeting@CSDKGeneralSettingsWorkFlow@@QEAA?AW4SDKError@ZOOMSDK@@_N@Z 00000001400343b0 f   SETTINGS_general_workflow.obj
 0001:000333b0       ?EnableTCPConnectionWhenSharing@CSDKShareSettingsWorkFlow@@QEAA?AW4SDKError@ZOOMSDK@@_N@Z 00000001400343b0 f   SETTINGS_share_workflow.obj
 0001:000333b0       ?SetUsingGreenScreen@CSDKVirtualBGSettingsWorkFlow@@QEAA?AW4SDKError@ZOOMSDK@@_N@Z 00000001400343b0 f   SETTINGS_virtualBG_workflow.obj
 0001:00033410       ?EnableDisplayReminderWindowWhenExit@CSDKGeneralSettingsWorkFlow@@QEAA?AW4SDKError@ZOOMSDK@@_N@Z 0000000140034410 f   SETTINGS_general_workflow.obj
 0001:00033470       ?EnableDualScreenMode@CSDKGeneralSettingsWorkFlow@@QEAA?AW4SDKError@ZOOMSDK@@_N@Z 0000000140034470 f   SETTINGS_general_workflow.obj
 0001:000334d0       ?EnableShowMyMeetingElapseTime@CSDKGeneralSettingsWorkFlow@@QEAA?AW4SDKError@ZOOMSDK@@_N@Z 00000001400344d0 f   SETTINGS_general_workflow.obj
 0001:00033530       ?EnableSplitScreenMode@CSDKGeneralSettingsWorkFlow@@QEAA?AW4SDKError@ZOOMSDK@@_N@Z 0000000140034530 f   SETTINGS_general_workflow.obj
 0001:00033590       ?Init@CSDKGeneralSettingsWorkFlow@@QEAA?AW4SDKError@ZOOMSDK@@XZ 0000000140034590 f   SETTINGS_general_workflow.obj
 0001:00033610       ?IsAeroModeInSharingTurnOff@CSDKGeneralSettingsWorkFlow@@QEAA_NXZ 0000000140034610 f   SETTINGS_general_workflow.obj
 0001:00033650       ?IsAutoFullScreenVideoWhenJoinMeetingEnabled@CSDKGeneralSettingsWorkFlow@@QEAA_NXZ 0000000140034650 f   SETTINGS_general_workflow.obj
 0001:00033650       ?IsTCPConnectionWhenSharing@CSDKShareSettingsWorkFlow@@QEAA_NXZ 0000000140034650 f   SETTINGS_share_workflow.obj
 0001:00033690       ?IsDisplayReminderWindowWhenExitEnabled@CSDKGeneralSettingsWorkFlow@@QEAA_NXZ 0000000140034690 f   SETTINGS_general_workflow.obj
 0001:000336d0       ?IsDualScreenModeEnabled@CSDKGeneralSettingsWorkFlow@@QEAA_NXZ 00000001400346d0 f   SETTINGS_general_workflow.obj
 0001:00033710       ?IsShowMyMeetingElapseTimeEnabled@CSDKGeneralSettingsWorkFlow@@QEAA_NXZ 0000000140034710 f   SETTINGS_general_workflow.obj
 0001:00033750       ?IsSplitScreenModeEnabled@CSDKGeneralSettingsWorkFlow@@QEAA_NXZ 0000000140034750 f   SETTINGS_general_workflow.obj
 0001:00033790       ?TurnOffAeroModeInSharing@CSDKGeneralSettingsWorkFlow@@QEAA?AW4SDKError@ZOOMSDK@@_N@Z 0000000140034790 f   SETTINGS_general_workflow.obj
 0001:000337f0       ??0CSDKRecordingSettingsWorkFlow@@QEAA@XZ 00000001400347f0 f   SETTINGS_recording_workflow.obj
 0001:00033840       ??1CSDKRecordingSettingsWorkFlow@@UEAA@XZ 0000000140034840 f   SETTINGS_recording_workflow.obj
 0001:00033870       ??_GCSDKRecordingSettingsWorkFlow@@UEAAPEAXI@Z 0000000140034870 f i SETTINGS_recording_workflow.obj
 0001:00033870       ??_ECSDKRecordingSettingsWorkFlow@@UEAAPEAXI@Z 0000000140034870 f i SETTINGS_recording_workflow.obj
 0001:000338b0       ?CanGetRecordingManagementURL@CSDKRecordingSettingsWorkFlow@@QEAA?AW4SDKError@ZOOMSDK@@AEA_N@Z 00000001400348b0 f   SETTINGS_recording_workflow.obj
 0001:00033930       ?EnableAddTimestampWatermark@CSDKRecordingSettingsWorkFlow@@QEAA?AW4SDKError@ZOOMSDK@@_N@Z 0000000140034930 f   SETTINGS_recording_workflow.obj
 0001:00033930       ?EnableGreenBorderWhenShare@CSDKShareSettingsWorkFlow@@QEAA?AW4SDKError@ZOOMSDK@@_N@Z 0000000140034930 f   SETTINGS_share_workflow.obj
 0001:00033990       ?EnableRemoteControlAllApplications@CSDKShareSettingsWorkFlow@@QEAA?AW4SDKError@ZOOMSDK@@_N@Z 0000000140034990 f   SETTINGS_share_workflow.obj
 0001:00033990       ?EnableMultiAudioStreamRecord@CSDKRecordingSettingsWorkFlow@@QEAA?AW4SDKError@ZOOMSDK@@_N@Z 0000000140034990 f   SETTINGS_recording_workflow.obj
 0001:000339f0       ?EnableOptimizeFor3rdPartyVideoEditor@CSDKRecordingSettingsWorkFlow@@QEAA?AW4SDKError@ZOOMSDK@@_N@Z 00000001400349f0 f   SETTINGS_recording_workflow.obj
 0001:00033a50       ?EnablePlaceVideoNextToShareInRecord@CSDKRecordingSettingsWorkFlow@@QEAA?AW4SDKError@ZOOMSDK@@_N@Z 0000000140034a50 f   SETTINGS_recording_workflow.obj
 0001:00033ab0       ?EnableSelectRecordFileLocationAfterMeeting@CSDKRecordingSettingsWorkFlow@@QEAA?AW4SDKError@ZOOMSDK@@_N@Z 0000000140034ab0 f   SETTINGS_recording_workflow.obj
 0001:00033ab0       ?EnableAccelerateGPUWhenShare@CSDKShareSettingsWorkFlow@@QEAA?AW4SDKError@ZOOMSDK@@_N@Z 0000000140034ab0 f   SETTINGS_share_workflow.obj
 0001:00033b10       ?EnableShowVideoThumbnailWhenShare@CSDKRecordingSettingsWorkFlow@@QEAA?AW4SDKError@ZOOMSDK@@_N@Z 0000000140034b10 f   SETTINGS_recording_workflow.obj
 0001:00033b70       ?GetRecordingManagementURL@CSDKRecordingSettingsWorkFlow@@QEAAPEB_WXZ 0000000140034b70 f   SETTINGS_recording_workflow.obj
 0001:00033bc0       ?GetRecordingPath@CSDKRecordingSettingsWorkFlow@@QEAAPEB_WXZ 0000000140034bc0 f   SETTINGS_recording_workflow.obj
 0001:00033c10       ?Init@CSDKRecordingSettingsWorkFlow@@QEAA?AW4SDKError@ZOOMSDK@@XZ 0000000140034c10 f   SETTINGS_recording_workflow.obj
 0001:00033c90       ?IsAddTimestampWatermarkEnabled@CSDKRecordingSettingsWorkFlow@@QEAA_NXZ 0000000140034c90 f   SETTINGS_recording_workflow.obj
 0001:00033c90       ?IsGreenBorderEnabledWhenShare@CSDKShareSettingsWorkFlow@@QEAA_NXZ 0000000140034c90 f   SETTINGS_share_workflow.obj
 0001:00033cd0       ?IsRemoteControlAllApplicationsEnabled@CSDKShareSettingsWorkFlow@@QEAA_NXZ 0000000140034cd0 f   SETTINGS_share_workflow.obj
 0001:00033cd0       ?IsMultiAudioStreamRecordEnabled@CSDKRecordingSettingsWorkFlow@@QEAA_NXZ 0000000140034cd0 f   SETTINGS_recording_workflow.obj
 0001:00033d10       ?IsOptimizeFor3rdPartyVideoEditorEnabled@CSDKRecordingSettingsWorkFlow@@QEAA_NXZ 0000000140034d10 f   SETTINGS_recording_workflow.obj
 0001:00033d50       ?IsPlaceVideoNextToShareInRecordEnabled@CSDKRecordingSettingsWorkFlow@@QEAA_NXZ 0000000140034d50 f   SETTINGS_recording_workflow.obj
 0001:00033da0       ?IsSelectRecordFileLocationAfterMeetingEnabled@CSDKRecordingSettingsWorkFlow@@QEAA_NXZ 0000000140034da0 f   SETTINGS_recording_workflow.obj
 0001:00033de0       ?IsShowVideoThumbnailWhenShareEnabled@CSDKRecordingSettingsWorkFlow@@QEAA_NXZ 0000000140034de0 f   SETTINGS_recording_workflow.obj
 0001:00033e30       ?SetRecordingPath@CSDKRecordingSettingsWorkFlow@@QEAA?AW4SDKError@ZOOMSDK@@PEB_W@Z 0000000140034e30 f   SETTINGS_recording_workflow.obj
 0001:00033e90       ??0CSDKShareSettingsWorkFlow@@QEAA@XZ 0000000140034e90 f   SETTINGS_share_workflow.obj
 0001:00033ee0       ??1CSDKShareSettingsWorkFlow@@UEAA@XZ 0000000140034ee0 f   SETTINGS_share_workflow.obj
 0001:00033f10       ??_GCSDKShareSettingsWorkFlow@@UEAAPEAXI@Z 0000000140034f10 f i SETTINGS_share_workflow.obj
 0001:00033f10       ??_ECSDKShareSettingsWorkFlow@@UEAAPEAXI@Z 0000000140034f10 f i SETTINGS_share_workflow.obj
 0001:00033f50       ?EnableAccelerateGPUWhenVideoShare@CSDKShareSettingsWorkFlow@@QEAA?AW4SDKError@ZOOMSDK@@_N@Z 0000000140034f50 f   SETTINGS_share_workflow.obj
 0001:00033fb0       ?EnableLimitFPSWhenShare@CSDKShareSettingsWorkFlow@@QEAA?AW4SDKError@ZOOMSDK@@_N@Z 0000000140034fb0 f   SETTINGS_share_workflow.obj
 0001:00034010       ?EnableShowMyAppWindowWhenShare@CSDKShareSettingsWorkFlow@@QEAA?AW4SDKError@ZOOMSDK@@_N@Z 0000000140035010 f   SETTINGS_share_workflow.obj
 0001:00034070       ?GetLimitFPSValueWhenShare@CSDKShareSettingsWorkFlow@@QEAA?AW4LimitFPSValue@ZOOMSDK@@XZ 0000000140035070 f   SETTINGS_share_workflow.obj
 0001:000340b0       ?GetScreenCaptureMode@CSDKShareSettingsWorkFlow@@QEAA?AW4SDKError@ZOOMSDK@@AEAW4ScreenCaptureMode@3@@Z 00000001400350b0 f   SETTINGS_share_workflow.obj
 0001:00034110       ?GetWindowSizeTypeWhenViewShare@CSDKShareSettingsWorkFlow@@QEAA?AW4WindowSizeType@ZOOMSDK@@XZ 0000000140035110 f   SETTINGS_share_workflow.obj
 0001:00034160       ?Init@CSDKShareSettingsWorkFlow@@QEAA?AW4SDKError@ZOOMSDK@@XZ 0000000140035160 f   SETTINGS_share_workflow.obj
 0001:000341e0       ?IsAccelerateGPUWhenShareEnabled@CSDKShareSettingsWorkFlow@@QEAA_NXZ 00000001400351e0 f   SETTINGS_share_workflow.obj
 0001:00034230       ?IsAccelerateGPUWhenVideoShareEnabled@CSDKShareSettingsWorkFlow@@QEAA_NXZ 0000000140035230 f   SETTINGS_share_workflow.obj
 0001:00034280       ?IsAnnotateHardwareAccelerationEnabled@CSDKShareSettingsWorkFlow@@QEAA_NXZ 0000000140035280 f   SETTINGS_share_workflow.obj
 0001:000342d0       ?IsCurrentOSSupportAccelerateGPUWhenShare@CSDKShareSettingsWorkFlow@@QEAA_NXZ 00000001400352d0 f   SETTINGS_share_workflow.obj
 0001:00034310       ?IsLimitFPSEnabledWhenShare@CSDKShareSettingsWorkFlow@@QEAA_NXZ 0000000140035310 f   SETTINGS_share_workflow.obj
 0001:00034350       ?IsShowMyAppWindowWhenShareEnabled@CSDKShareSettingsWorkFlow@@QEAA_NXZ 0000000140035350 f   SETTINGS_share_workflow.obj
 0001:000343a0       ?IsSupportShowMyAppWindowWhenShare@CSDKShareSettingsWorkFlow@@QEAA_NXZ 00000001400353a0 f   SETTINGS_share_workflow.obj
 0001:000343e0       ?SetLimitFPSValueWhenShare@CSDKShareSettingsWorkFlow@@QEAA?AW4SDKError@ZOOMSDK@@W4LimitFPSValue@3@@Z 00000001400353e0 f   SETTINGS_share_workflow.obj
 0001:00034440       ?SetScreenCaptureMode@CSDKShareSettingsWorkFlow@@QEAA?AW4SDKError@ZOOMSDK@@W4ScreenCaptureMode@3@@Z 0000000140035440 f   SETTINGS_share_workflow.obj
 0001:000344a0       ?SetWindowSizeTypeWhenViewShare@CSDKShareSettingsWorkFlow@@QEAA?AW4SDKError@ZOOMSDK@@W4WindowSizeType@3@@Z 00000001400354a0 f   SETTINGS_share_workflow.obj
 0001:00034500       ??$?0HW4bkItemType@@$0A@@?$pair@$$CBHW4bkItemType@@@std@@QEAA@$$QEAU?$pair@HW4bkItemType@@@1@@Z 0000000140035500 f i settings_ui.obj
 0001:00034550       ??$?0U?$pair@HW4bkItemType@@@std@@@?$_Tree_temp_node@V?$allocator@U?$_Tree_node@U?$pair@$$CBHW4bkItemType@@@std@@PEAX@std@@@std@@@std@@QEAA@AEAV?$allocator@U?$_Tree_node@U?$pair@$$CBHW4bkItemType@@@std@@PEAX@std@@@1@PEAU?$_Tree_node@U?$pair@$$CBHW4bkItemType@@@std@@PEAX@1@$$QEAU?$pair@HW4bkItemType@@@1@@Z 0000000140035550 f i settings_ui.obj
 0001:00034620       ??$?0_KAEAW4bkItemType@@$0A@@?$pair@HW4bkItemType@@@std@@QEAA@$$QEA_KAEAW4bkItemType@@@Z 0000000140035620 f i settings_ui.obj
 0001:00034670       ??$_Copy_memmove@PEAPEAVIUserInfo@ZOOMSDK@@PEAPEAV12@@std@@YAPEAPEAVIUserInfo@ZOOMSDK@@PEAPEAV12@00@Z 0000000140035670 f i user_manager.obj
 0001:00034670       ??$_Copy_memmove@PEAPEAVIVirtualBGImageInfo@ZOOMSDK@@PEAPEAV12@@std@@YAPEAPEAVIVirtualBGImageInfo@ZOOMSDK@@PEAPEAV12@00@Z 0000000140035670 f i settings_ui.obj
 0001:00034710       ??$_Emplace@U?$pair@HW4bkItemType@@@std@@@?$_Tree@V?$_Tmap_traits@HW4bkItemType@@U?$less@H@std@@V?$allocator@U?$pair@$$CBHW4bkItemType@@@std@@@3@$0A@@std@@@std@@IEAA?AU?$pair@PEAU?$_Tree_node@U?$pair@$$CBHW4bkItemType@@@std@@PEAX@std@@_N@1@$$QEAU?$pair@HW4bkItemType@@@1@@Z 0000000140035710 f i settings_ui.obj
 0001:00034890       ??$_Emplace_back@PEAVIVirtualBGImageInfo@ZOOMSDK@@@?$_Uninitialized_backout_al@V?$allocator@PEAVIVirtualBGImageInfo@ZOOMSDK@@@std@@@std@@QEAAX$$QEAPEAVIVirtualBGImageInfo@ZOOMSDK@@@Z 0000000140035890 f i settings_ui.obj
 0001:00034890       ??$_Emplace_back@PEAVIUserInfo@ZOOMSDK@@@?$_Uninitialized_backout_al@V?$allocator@PEAVIUserInfo@ZOOMSDK@@@std@@@std@@QEAAX$$QEAPEAVIUserInfo@ZOOMSDK@@@Z 0000000140035890 f i user_manager.obj
 0001:000348f0       ??$_Emplace_back_with_unused_capacity@AEBQEAVIVirtualBGImageInfo@ZOOMSDK@@@?$vector@PEAVIVirtualBGImageInfo@ZOOMSDK@@V?$allocator@PEAVIVirtualBGImageInfo@ZOOMSDK@@@std@@@std@@AEAA?A_TAEBQEAVIVirtualBGImageInfo@ZOOMSDK@@@Z 00000001400358f0 f i settings_ui.obj
 0001:000348f0       ??$_Emplace_back_with_unused_capacity@AEBQEAVIUserInfo@ZOOMSDK@@@?$vector@PEAVIUserInfo@ZOOMSDK@@V?$allocator@PEAVIUserInfo@ZOOMSDK@@@std@@@std@@AEAA?A_TAEBQEAVIUserInfo@ZOOMSDK@@@Z 00000001400358f0 f i user_manager.obj
 0001:000349a0       ??$_Emplace_reallocate@AEBQEAVIUserInfo@ZOOMSDK@@@?$vector@PEAVIUserInfo@ZOOMSDK@@V?$allocator@PEAVIUserInfo@ZOOMSDK@@@std@@@std@@QEAAPEAPEAVIUserInfo@ZOOMSDK@@QEAPEAV23@AEBQEAV23@@Z 00000001400359a0 f i user_manager.obj
 0001:000349a0       ??$_Emplace_reallocate@AEBQEAVIVirtualBGImageInfo@ZOOMSDK@@@?$vector@PEAVIVirtualBGImageInfo@ZOOMSDK@@V?$allocator@PEAVIVirtualBGImageInfo@ZOOMSDK@@@std@@@std@@QEAAPEAPEAVIVirtualBGImageInfo@ZOOMSDK@@QEAPEAV23@AEBQEAV23@@Z 00000001400359a0 f i settings_ui.obj
 0001:00034bb0       ??$_Erase_head@V?$allocator@U?$_Tree_node@U?$pair@$$CBHW4bkItemType@@@std@@PEAX@std@@@std@@@?$_Tree_val@U?$_Tree_simple_types@U?$pair@$$CBHW4bkItemType@@@std@@@std@@@std@@QEAAXAEAV?$allocator@U?$_Tree_node@U?$pair@$$CBHW4bkItemType@@@std@@PEAX@std@@@1@@Z 0000000140035bb0 f i settings_ui.obj
 0001:00034c00       ??$_Erase_tree@V?$allocator@U?$_Tree_node@U?$pair@$$CBHW4bkItemType@@@std@@PEAX@std@@@std@@@?$_Tree_val@U?$_Tree_simple_types@U?$pair@$$CBHW4bkItemType@@@std@@@std@@@std@@QEAAXAEAV?$allocator@U?$_Tree_node@U?$pair@$$CBHW4bkItemType@@@std@@PEAX@std@@@1@PEAU?$_Tree_node@U?$pair@$$CBHW4bkItemType@@@std@@PEAX@1@@Z 0000000140035c00 f i settings_ui.obj
 0001:00034c60       ??$_Find@H@?$_Tree@V?$_Tmap_traits@HW4bkItemType@@U?$less@H@std@@V?$allocator@U?$pair@$$CBHW4bkItemType@@@std@@@3@$0A@@std@@@std@@AEBAPEAU?$_Tree_node@U?$pair@$$CBHW4bkItemType@@@std@@PEAX@1@AEBH@Z 0000000140035c60 f i settings_ui.obj
 0001:00034cc0       ??$_Find_lower_bound@H@?$_Tree@V?$_Tmap_traits@HW4bkItemType@@U?$less@H@std@@V?$allocator@U?$pair@$$CBHW4bkItemType@@@std@@@3@$0A@@std@@@std@@IEBA?AU?$_Tree_find_result@PEAU?$_Tree_node@U?$pair@$$CBHW4bkItemType@@@std@@PEAX@std@@@1@AEBH@Z 0000000140035cc0 f i settings_ui.obj
 0001:00034dd0       ??$_Freenode@V?$allocator@U?$_Tree_node@U?$pair@$$CBHW4bkItemType@@@std@@PEAX@std@@@std@@@?$_Tree_node@U?$pair@$$CBHW4bkItemType@@@std@@PEAX@std@@SAXAEAV?$allocator@U?$_Tree_node@U?$pair@$$CBHW4bkItemType@@@std@@PEAX@std@@@1@PEAU01@@Z 0000000140035dd0 f i settings_ui.obj
 0001:00034e20       ??$_Get_size_of_n@$07@std@@YA_K_K@Z 0000000140035e20 f i settings_ui.obj
 0001:00034e70       ??$_Lower_bound_duplicate@H@?$_Tree@V?$_Tmap_traits@HW4bkItemType@@U?$less@H@std@@V?$allocator@U?$pair@$$CBHW4bkItemType@@@std@@@3@$0A@@std@@@std@@IEBA_NQEAU?$_Tree_node@U?$pair@$$CBHW4bkItemType@@@std@@PEAX@1@AEBH@Z 0000000140035e70 f i settings_ui.obj
 0001:00034ef0       ??$_Uninitialized_move@PEAPEAVIVirtualBGImageInfo@ZOOMSDK@@V?$allocator@PEAVIVirtualBGImageInfo@ZOOMSDK@@@std@@@std@@YAPEAPEAVIVirtualBGImageInfo@ZOOMSDK@@QEAPEAV12@0PEAPEAV12@AEAV?$allocator@PEAVIVirtualBGImageInfo@ZOOMSDK@@@0@@Z 0000000140035ef0 f i settings_ui.obj
 0001:00034ef0       ??$_Uninitialized_move@PEAPEAVIUserInfo@ZOOMSDK@@V?$allocator@PEAVIUserInfo@ZOOMSDK@@@std@@@std@@YAPEAPEAVIUserInfo@ZOOMSDK@@QEAPEAV12@0PEAPEAV12@AEAV?$allocator@PEAVIUserInfo@ZOOMSDK@@@0@@Z 0000000140035ef0 f i user_manager.obj
 0001:00034fd0       ??$_itow_s@$0BA@@@YAHHAEAY0BA@_WH@Z 0000000140035fd0 f i settings_ui.obj
 0001:00035010       ??$construct@U?$pair@$$CBHW4bkItemType@@@std@@U?$pair@HW4bkItemType@@@2@@?$_Default_allocator_traits@V?$allocator@U?$_Tree_node@U?$pair@$$CBHW4bkItemType@@@std@@PEAX@std@@@std@@@std@@SAXAEAV?$allocator@U?$_Tree_node@U?$pair@$$CBHW4bkItemType@@@std@@PEAX@std@@@1@QEAU?$pair@$$CBHW4bkItemType@@@1@$$QEAU?$pair@HW4bkItemType@@@1@@Z 0000000140036010 f i settings_ui.obj
 0001:00035060       ??$emplace@U?$pair@HW4bkItemType@@@std@@@?$_Tree@V?$_Tmap_traits@HW4bkItemType@@U?$less@H@std@@V?$allocator@U?$pair@$$CBHW4bkItemType@@@std@@@3@$0A@@std@@@std@@QEAA?AU?$pair@V?$_Tree_iterator@V?$_Tree_val@U?$_Tree_simple_types@U?$pair@$$CBHW4bkItemType@@@std@@@std@@@std@@@std@@_N@1@$$QEAU?$pair@HW4bkItemType@@@1@@Z 0000000140036060 f i settings_ui.obj
 0001:000350d0       ??$emplace_back@AEBQEAVIVirtualBGImageInfo@ZOOMSDK@@@?$vector@PEAVIVirtualBGImageInfo@ZOOMSDK@@V?$allocator@PEAVIVirtualBGImageInfo@ZOOMSDK@@@std@@@std@@QEAA?A_TAEBQEAVIVirtualBGImageInfo@ZOOMSDK@@@Z 00000001400360d0 f i settings_ui.obj
 0001:000350d0       ??$emplace_back@AEBQEAVIUserInfo@ZOOMSDK@@@?$vector@PEAVIUserInfo@ZOOMSDK@@V?$allocator@PEAVIUserInfo@ZOOMSDK@@@std@@@std@@QEAA?A_TAEBQEAVIUserInfo@ZOOMSDK@@@Z 00000001400360d0 f i user_manager.obj
 0001:00035150       ??$insert@U?$pair@HW4bkItemType@@@std@@$0A@@?$map@HW4bkItemType@@U?$less@H@std@@V?$allocator@U?$pair@$$CBHW4bkItemType@@@std@@@3@@std@@QEAA?AU?$pair@V?$_Tree_iterator@V?$_Tree_val@U?$_Tree_simple_types@U?$pair@$$CBHW4bkItemType@@@std@@@std@@@std@@@std@@_N@1@$$QEAU?$pair@HW4bkItemType@@@1@@Z 0000000140036150 f i settings_ui.obj
 0001:00035190       ??0?$_Tree@V?$_Tmap_traits@HW4bkItemType@@U?$less@H@std@@V?$allocator@U?$pair@$$CBHW4bkItemType@@@std@@@3@$0A@@std@@@std@@QEAA@AEBU?$less@H@1@@Z 0000000140036190 f i settings_ui.obj
 0001:000351d0       ??0?$map@HW4bkItemType@@U?$less@H@std@@V?$allocator@U?$pair@$$CBHW4bkItemType@@@std@@@3@@std@@QEAA@XZ 00000001400361d0 f i settings_ui.obj
 0001:00035200       ??0?$vector@PEAVIVirtualBGImageInfo@ZOOMSDK@@V?$allocator@PEAVIVirtualBGImageInfo@ZOOMSDK@@@std@@@std@@QEAA@XZ 0000000140036200 f i settings_ui.obj
 0001:00035240       ??0CSDKAudioSettingsUIEvent@@QEAA@XZ 0000000140036240 f i settings_ui.obj
 0001:00035260       ??0CSDKAudioSettingsUIGroup@@QEAA@XZ 0000000140036260 f   settings_ui.obj
 0001:00035450       ??0CSDKFeatureCustomSettingsUIGroup@@QEAA@XZ 0000000140036450 f   settings_ui.obj
 0001:00035790       ??0CSDKGeneralSettingsUIGroup@@QEAA@XZ 0000000140036790 f   settings_ui.obj
 0001:00035830       ??0CSDKRecordingSettingsUIGroup@@QEAA@XZ 0000000140036830 f   settings_ui.obj
 0001:00035920       ??0CSDKSettingsUIMgr@@QEAA@XZ 0000000140036920 f   settings_ui.obj
 0001:00035b30       ??0CSDKShareSettingsUIGroup@@QEAA@XZ 0000000140036b30 f   settings_ui.obj
 0001:00035ca0       ??0CSDKUICustomSettingsUIGroup@@QEAA@XZ 0000000140036ca0 f   settings_ui.obj
 0001:00035fb0       ??0CSDKVBGImageList@@QEAA@XZ 0000000140036fb0 f   settings_ui.obj
 0001:00036000       ??0CSDKVideoSettingsUIEvent@@QEAA@XZ 0000000140037000 f i settings_ui.obj
 0001:00036020       ??0CSDKVideoSettingsUIGroup@@QEAA@XZ 0000000140037020 f   settings_ui.obj
 0001:000361a0       ??0CSDKVirtualBGSettingsUIGroup@@QEAA@XZ 00000001400371a0 f   settings_ui.obj
 0001:00036280       ??0CSDKVirtualBGUIEvent@@QEAA@XZ 0000000140037280 f i settings_ui.obj
 0001:000362a0       ??0tagShowChatDlgParam@ZOOMSDK@@QEAA@XZ 00000001400372a0 f i settings_ui.obj
 0001:00036300       ??0tagWndPosition@ZOOMSDK@@QEAA@XZ 0000000140037300 f i settings_ui.obj
 0001:00036340       ??1?$_Tree@V?$_Tmap_traits@HW4bkItemType@@U?$less@H@std@@V?$allocator@U?$pair@$$CBHW4bkItemType@@@std@@@3@$0A@@std@@@std@@QEAA@XZ 0000000140037340 f i settings_ui.obj
 0001:00036380       ??1?$_Tree_temp_node@V?$allocator@U?$_Tree_node@U?$pair@$$CBHW4bkItemType@@@std@@PEAX@std@@@std@@@std@@QEAA@XZ 0000000140037380 f i settings_ui.obj
 0001:00036410       ??1?$_Uninitialized_backout_al@V?$allocator@PEAVIUserInfo@ZOOMSDK@@@std@@@std@@QEAA@XZ 0000000140037410 f i user_manager.obj
 0001:00036410       ??1?$_Uninitialized_backout_al@V?$allocator@PEAVIVirtualBGImageInfo@ZOOMSDK@@@std@@@std@@QEAA@XZ 0000000140037410 f i settings_ui.obj
 0001:00036440       ??1?$map@HW4bkItemType@@U?$less@H@std@@V?$allocator@U?$pair@$$CBHW4bkItemType@@@std@@@3@@std@@QEAA@XZ 0000000140037440 f i settings_ui.obj
 0001:00036460       ??1?$vector@PEAVIUserInfo@ZOOMSDK@@V?$allocator@PEAVIUserInfo@ZOOMSDK@@@std@@@std@@QEAA@XZ 0000000140037460 f i user_manager.obj
 0001:00036460       ??1?$vector@PEAVIVirtualBGImageInfo@ZOOMSDK@@V?$allocator@PEAVIVirtualBGImageInfo@ZOOMSDK@@@std@@@std@@QEAA@XZ 0000000140037460 f i settings_ui.obj
 0001:00036480       ??1CSDKAudioSettingsUIGroup@@UEAA@XZ 0000000140037480 f   settings_ui.obj
 0001:00036660       ??1CSDKFeatureCustomSettingsUIGroup@@UEAA@XZ 0000000140037660 f   settings_ui.obj
 0001:00036990       ??1CSDKGeneralSettingsUIGroup@@UEAA@XZ 0000000140037990 f   settings_ui.obj
 0001:00036a30       ??1CSDKRecordingSettingsUIGroup@@UEAA@XZ 0000000140037a30 f   settings_ui.obj
 0001:00036b20       ??1CSDKSettingsUIMgr@@UEAA@XZ 0000000140037b20 f   settings_ui.obj
 0001:00036d10       ??1CSDKShareSettingsUIGroup@@UEAA@XZ 0000000140037d10 f   settings_ui.obj
 0001:00036dd0       ??1CSDKUICustomSettingsUIGroup@@UEAA@XZ 0000000140037dd0 f   settings_ui.obj
 0001:000370d0       ??1CSDKVBGImageList@@UEAA@XZ 00000001400380d0 f   settings_ui.obj
 0001:00037120       ??1CSDKVideoSettingsUIGroup@@UEAA@XZ 0000000140038120 f   settings_ui.obj
 0001:00037280       ??1CSDKVirtualBGSettingsUIGroup@@UEAA@XZ 0000000140038280 f   settings_ui.obj
 0001:00037320       ??A?$vector@PEAVIVirtualBGImageInfo@ZOOMSDK@@V?$allocator@PEAVIVirtualBGImageInfo@ZOOMSDK@@@std@@@std@@QEAAAEAPEAVIVirtualBGImageInfo@ZOOMSDK@@_K@Z 0000000140038320 f i settings_ui.obj
 0001:00037320       ??A?$vector@PEAVIUserInfo@ZOOMSDK@@V?$allocator@PEAVIUserInfo@ZOOMSDK@@@std@@@std@@QEAAAEAPEAVIUserInfo@ZOOMSDK@@_K@Z 0000000140038320 f i user_manager.obj
 0001:00037350       ??C?$_Tree_iterator@V?$_Tree_val@U?$_Tree_simple_types@U?$pair@$$CBHW4bkItemType@@@std@@@std@@@std@@@std@@QEBAPEAU?$pair@$$CBHW4bkItemType@@@1@XZ 0000000140038350 f i settings_ui.obj
 0001:00037370       ??D?$_Tree_const_iterator@V?$_Tree_val@U?$_Tree_simple_types@U?$pair@$$CBHW4bkItemType@@@std@@@std@@@std@@@std@@QEBAAEBU?$pair@$$CBHW4bkItemType@@@1@XZ 0000000140038370 f i settings_ui.obj
 0001:00037390       ??D?$_Tree_iterator@V?$_Tree_val@U?$_Tree_simple_types@U?$pair@$$CBHW4bkItemType@@@std@@@std@@@std@@@std@@QEBAAEAU?$pair@$$CBHW4bkItemType@@@1@XZ 0000000140038390 f i settings_ui.obj
 0001:000373b0       ??R?$less@H@std@@QEBA_NAEBH0@Z 00000001400383b0 f i settings_ui.obj
 0001:000373f0       ??_ECSDKAudioSettingsUIGroup@@UEAAPEAXI@Z 00000001400383f0 f i settings_ui.obj
 0001:000373f0       ??_GCSDKAudioSettingsUIGroup@@UEAAPEAXI@Z 00000001400383f0 f i settings_ui.obj
 0001:00037430       ??_GCSDKFeatureCustomSettingsUIGroup@@UEAAPEAXI@Z 0000000140038430 f i settings_ui.obj
 0001:00037430       ??_ECSDKFeatureCustomSettingsUIGroup@@UEAAPEAXI@Z 0000000140038430 f i settings_ui.obj
 0001:00037470       ??_ECSDKGeneralSettingsUIGroup@@UEAAPEAXI@Z 0000000140038470 f i settings_ui.obj
 0001:00037470       ??_GCSDKGeneralSettingsUIGroup@@UEAAPEAXI@Z 0000000140038470 f i settings_ui.obj
 0001:000374b0       ??_ECSDKRecordingSettingsUIGroup@@UEAAPEAXI@Z 00000001400384b0 f i settings_ui.obj
 0001:000374b0       ??_GCSDKRecordingSettingsUIGroup@@UEAAPEAXI@Z 00000001400384b0 f i settings_ui.obj
 0001:000374f0       ??_GCSDKSettingsUIMgr@@UEAAPEAXI@Z 00000001400384f0 f i settings_ui.obj
 0001:000374f0       ??_ECSDKSettingsUIMgr@@UEAAPEAXI@Z 00000001400384f0 f i settings_ui.obj
 0001:00037530       ??_ECSDKShareSettingsUIGroup@@UEAAPEAXI@Z 0000000140038530 f i settings_ui.obj
 0001:00037530       ??_GCSDKShareSettingsUIGroup@@UEAAPEAXI@Z 0000000140038530 f i settings_ui.obj
 0001:00037570       ??_ECSDKUICustomSettingsUIGroup@@UEAAPEAXI@Z 0000000140038570 f i settings_ui.obj
 0001:00037570       ??_GCSDKUICustomSettingsUIGroup@@UEAAPEAXI@Z 0000000140038570 f i settings_ui.obj
 0001:000375b0       ??_ECSDKVBGImageList@@UEAAPEAXI@Z 00000001400385b0 f i settings_ui.obj
 0001:000375b0       ??_GCSDKVBGImageList@@UEAAPEAXI@Z 00000001400385b0 f i settings_ui.obj
 0001:000375f0       ??_GCSDKVideoSettingsUIGroup@@UEAAPEAXI@Z 00000001400385f0 f i settings_ui.obj
 0001:000375f0       ??_ECSDKVideoSettingsUIGroup@@UEAAPEAXI@Z 00000001400385f0 f i settings_ui.obj
 0001:00037630       ??_ECSDKVirtualBGSettingsUIGroup@@UEAAPEAXI@Z 0000000140038630 f i settings_ui.obj
 0001:00037630       ??_GCSDKVirtualBGSettingsUIGroup@@UEAAPEAXI@Z 0000000140038630 f i settings_ui.obj
 0001:00037670       ?AddItem@CSDKVBGImageList@@QEAAXPEAVIVirtualBGImageInfo@ZOOMSDK@@W4bkItemType@@@Z 0000000140038670 f   settings_ui.obj
 0001:00037720       ?AjustDpiScaleRect@@YAXAEAUtagRECT@@@Z 0000000140038720 f   settings_ui.obj
 0001:000377c0       ?ClearAll@CSDKVBGImageList@@QEAAXXZ 00000001400387c0 f   settings_ui.obj
 0001:00037860       ?Do49VideoesInGallaryViewChkClick@CSDKVideoSettingsUIGroup@@QEAAXXZ 0000000140038860 f   settings_ui.obj
 0001:000378d0       ?DoAddImageBtnClick@CSDKVirtualBGSettingsUIGroup@@QEAAXW4bkItemType@@@Z 00000001400388d0 f   settings_ui.obj
 0001:00037a60       ?DoAddTimestampWatermarkChkClick@CSDKRecordingSettingsUIGroup@@QEAAXXZ 0000000140038a60 f   settings_ui.obj
 0001:00037ad0       ?DoAlwaysDisplayTaskbarIconChkClick@CSDKUICustomSettingsUIGroup@@QEAAXXZ 0000000140038ad0 f   settings_ui.obj
 0001:00037b40       ?DoAlwaysMuteMicWhenJoinVoipChkClick@CSDKAudioSettingsUIGroup@@QEAAXXZ 0000000140038b40 f   settings_ui.obj
 0001:00037bb0       ?DoAlwaysShowNameOnVideoChkClick@CSDKVideoSettingsUIGroup@@QEAAXXZ 0000000140038bb0 f   settings_ui.obj
 0001:00037c20       ?DoAlwaysUse16v9ChkClick@CSDKVideoSettingsUIGroup@@QEAAXXZ 0000000140038c20 f   settings_ui.obj
 0001:00037c50       ?DoApproveRemoteControlDlgChkClick@CSDKUICustomSettingsUIGroup@@QEAAXXZ 0000000140038c50 f   settings_ui.obj
 0001:00037cc0       ?DoAutoAdjustMicChkClick@CSDKAudioSettingsUIGroup@@QEAAXXZ 0000000140038cc0 f   settings_ui.obj
 0001:00037d80       ?DoAutoAdjustMicVolumeChkClick@CSDKFeatureCustomSettingsUIGroup@@QEAAXXZ 0000000140038d80 f   settings_ui.obj
 0001:00037df0       ?DoAutoAdjustSpeakerVolumeChkClick@CSDKFeatureCustomSettingsUIGroup@@QEAAXXZ 0000000140038df0 f   settings_ui.obj
 0001:00037e60       ?DoAutoEndOtherMeetingWhenStartMeetingChkClick@CSDKFeatureCustomSettingsUIGroup@@QEAAXXZ 0000000140038e60 f   settings_ui.obj
 0001:00037ed0       ?DoAutoFullScreenVideoWhenJoinMeetingChkClick@CSDKGeneralSettingsUIGroup@@QEAAXXZ 0000000140038ed0 f   settings_ui.obj
 0001:00037f40       ?DoAutoJoinAudioChkClick@CSDKAudioSettingsUIGroup@@QEAAXXZ 0000000140038f40 f   settings_ui.obj
 0001:00037fb0       ?DoAutoTurnOffVideoWhenJoinMeetingChkClick@CSDKVideoSettingsUIGroup@@QEAAXXZ 0000000140038fb0 f   settings_ui.obj
 0001:00038020       ?DoBackToMeetingBtnClick@CSDKFeatureCustomSettingsUIGroup@@QEAAXXZ 0000000140039020 f   settings_ui.obj
 0001:00038050       ?DoBottomToolbarChkClick@CSDKUICustomSettingsUIGroup@@QEAAXXZ 0000000140039050 f   settings_ui.obj
